(dp0
I1
(lp1
(dp2
S'label'
p3
I0
sS'string'
p4
VGov.
p5
sS'start_index'
p6
I5
sS'end_index'
p7
I8
sa(dp8
g3
I0
sg4
VAndrew
p9
sg6
I10
sg7
I15
sa(dp10
g3
I0
sg4
VCuomo
p11
sg6
I20
sg7
I24
sa(dp12
g3
I0
sg4
VExcelsior
p13
sg6
I40
sg7
I48
sa(dp14
g3
I0
sg4
VNew
p15
sg6
I95
sg7
I97
sa(dp16
g3
I0
sg4
VYork
p17
sg6
I99
sg7
I102
sa(dp18
g3
I0
sg4
VNew
p19
sg6
I157
sg7
I159
sa(dp20
g3
I0
sg4
VYork
p21
sg6
I161
sg7
I164
sa(dp22
g3
I0
sg4
VCommission
p23
sg6
I284
sg7
I293
sa(dp24
g3
I0
sg4
VIndependent
p25
sg6
I298
sg7
I308
sa(dp26
g3
I0
sg4
VNew
p27
sg6
I442
sg7
I444
sa(dp28
g3
I0
sg4
VYork
p29
sg6
I446
sg7
I449
sa(dp30
g3
I0
sg4
VExcelsior
p31
sg6
I627
sg7
I635
sa(dp32
g3
I0
sg4
VState
p33
sg6
I707
sg7
I711
sa(dp34
g3
I0
sg4
VNew
p35
sg6
I727
sg7
I729
sa(dp36
g3
I0
sg4
VYork
p37
sg6
I731
sg7
I734
sa(dp38
g3
I0
sg4
VCity
p39
sg6
I740
sg7
I743
sa(dp40
g3
I0
sg4
VNew
p41
sg6
I759
sg7
I761
sa(dp42
g3
I0
sg4
VYork
p43
sg6
I763
sg7
I766
sa(dp44
g3
I1
sg4
VSUNY
p45
sg6
I898
sg7
I901
sa(dp46
g3
I1
sg4
VCUNY
p47
sg6
I907
sg7
I910
sa(dp48
g3
I0
sg4
VHartwick
p49
sg6
I1048
sg7
I1055
sa(dp50
g3
I1
sg4
VSUNY
p51
sg6
I1087
sg7
I1090
sa(dp52
g3
I0
sg4
VOneonta
p53
sg6
I1092
sg7
I1098
sa(dp54
g3
I0
sg4
VCatskills
p55
sg6
I1107
sg7
I1115
sa(dp56
g3
I0
sg4
VNew
p57
sg6
I1211
sg7
I1213
sa(dp58
g3
I0
sg4
VYork
p59
sg6
I1215
sg7
I1218
sa(dp60
g3
I0
sg4
VSt.
p61
sg6
I1240
sg7
I1242
sa(dp62
g3
I0
sg4
VLawrence
p63
sg6
I1244
sg7
I1251
sa(dp64
g3
I0
sg4
VCanadian
p65
sg6
I1296
sg7
I1303
sa(dp66
g3
I0
sg4
VAlfred
p67
sg6
I1397
sg7
I1402
sa(dp68
g3
I0
sg4
VNew
p69
sg6
I1431
sg7
I1433
sa(dp70
g3
I0
sg4
VYork
p71
sg6
I1435
sg7
I1438
sa(dp72
g3
I0
sg4
VPennsylvania
p73
sg6
I1449
sg7
I1460
sa(dp74
g3
I0
sg4
VExcelsior
p75
sg6
I1578
sg7
I1586
sa(dp76
g3
I0
sg4
VExcelsior
p77
sg6
I1754
sg7
I1762
sa(dp78
g3
I1
sg4
VSUNY
p79
sg6
I1919
sg7
I1922
sa(dp80
g3
I0
sg4
VTennessee
p81
sg6
I2059
sg7
I2067
sa(dp82
g3
I0
sg4
VNew
p83
sg6
I2096
sg7
I2098
sa(dp84
g3
I0
sg4
VYork
p85
sg6
I2100
sg7
I2103
sa(dp86
g3
I0
sg4
VPell
p87
sg6
I2178
sg7
I2181
sa(dp88
g3
I0
sg4
VTuition
p89
sg6
I2214
sg7
I2220
sa(dp90
g3
I0
sg4
VAssistance
p91
sg6
I2222
sg7
I2231
sa(dp92
g3
I0
sg4
VProgram
p93
sg6
I2233
sg7
I2239
sa(dp94
g3
I0
sg4
VNew
p95
sg6
I2479
sg7
I2481
sa(dp96
g3
I0
sg4
VYork
p97
sg6
I2483
sg7
I2486
sa(dp98
g3
I0
sg4
VCritics
p99
sg6
I2585
sg7
I2591
sa(dp100
g3
I0
sg4
VExcelsior.
p101
sg6
I2740
sg7
I2749
sa(dp102
g3
I0
sg4
VExcelsior.
p103
sg6
I2797
sg7
I2806
sa(dp104
g3
I0
sg4
VGov.
p105
sg6
I2824
sg7
I2827
sa(dp106
g3
I0
sg4
VCuomo
p107
sg6
I2829
sg7
I2833
sa(dp108
g3
I0
sg4
VExcelsior
p109
sg6
I2837
sg7
I2845
sa(dp110
g3
I0
sg4
VScholarship
p111
sg6
I2847
sg7
I2857
sa(dp112
g3
I0
sg4
VJames
p113
sg6
I3000
sg7
I3004
sa(dp114
g3
I0
sg4
VMilliken
p115
sg6
I3009
sg7
I3016
sa(dp116
g3
I1
sg4
VCUNY
p117
sg6
I3018
sg7
I3021
sasI2
(lp118
(dp119
g3
I0
sg4
VAndrew M.
p120
sg6
I10
sg7
I18
sa(dp121
g3
I0
sg4
VM. Cuomo
p122
sg6
I17
sg7
I24
sa(dp123
g3
I0
sg4
VNew York
p124
sg6
I95
sg7
I102
sa(dp125
g3
I0
sg4
VNew York
p126
sg6
I157
sg7
I164
sa(dp127
g3
I0
sg4
VNew York
p128
sg6
I442
sg7
I449
sa(dp129
g3
I0
sg4
VState University
p130
sg6
I707
sg7
I722
sa(dp131
g3
I0
sg4
VNew York
p132
sg6
I727
sg7
I734
sa(dp133
g3
I0
sg4
VCity University
p134
sg6
I740
sg7
I754
sa(dp135
g3
I0
sg4
VNew York
p136
sg6
I759
sg7
I766
sa(dp137
g3
I1
sg4
VHartwick College
p138
sg6
I1048
sg7
I1063
sa(dp139
g3
I0
sg4
VSUNY Oneonta
p140
sg6
I1087
sg7
I1098
sa(dp141
g3
I0
sg4
VNew York
p142
sg6
I1211
sg7
I1218
sa(dp143
g3
I0
sg4
VSt. Lawrence
p144
sg6
I1240
sg7
I1251
sa(dp145
g3
I0
sg4
VLawrence University
p146
sg6
I1244
sg7
I1262
sa(dp147
g3
I1
sg4
VAlfred University
p148
sg6
I1397
sg7
I1413
sa(dp149
g3
I0
sg4
VNew York
p150
sg6
I1431
sg7
I1438
sa(dp151
g3
I0
sg4
VNew York
p152
sg6
I2096
sg7
I2103
sa(dp153
g3
I0
sg4
VTuition Assistance
p154
sg6
I2214
sg7
I2231
sa(dp155
g3
I0
sg4
VAssistance Program
p156
sg6
I2222
sg7
I2239
sa(dp157
g3
I0
sg4
VNew York
p158
sg6
I2479
sg7
I2486
sa(dp159
g3
I0
sg4
VExcelsior Scholarship
p160
sg6
I2837
sg7
I2857
sa(dp161
g3
I0
sg4
VJames B.
p162
sg6
I3000
sg7
I3007
sa(dp163
g3
I0
sg4
VB. Milliken
p164
sg6
I3006
sg7
I3016
sa(dp165
g3
I0
sg4
VMilliken CUNY
p166
sg6
I3009
sg7
I3021
sasI3
(lp167
(dp168
g3
I0
sg4
VAndrew M. Cuomo
p169
sg6
I10
sg7
I24
sa(dp170
g3
I0
sg4
VUniversity of New
p171
sg6
I713
sg7
I729
sa(dp172
g3
I0
sg4
VYork and City
p173
sg6
I731
sg7
I743
sa(dp174
g3
I0
sg4
VUniversity of New
p175
sg6
I745
sg7
I761
sa(dp176
g3
I0
sg4
VSUNY and CUNY
p177
sg6
I898
sg7
I910
sa(dp178
g3
I1
sg4
VSt. Lawrence University
p179
sg6
I1240
sg7
I1262
sa(dp180
g3
I0
sg4
VTuition Assistance Program
p181
sg6
I2214
sg7
I2239
sa(dp182
g3
I0
sg4
VJames B. Milliken
p183
sg6
I3000
sg7
I3016
sa(dp184
g3
I0
sg4
VB. Milliken CUNY
p185
sg6
I3006
sg7
I3021
sasI4
(lp186
(dp187
g3
I0
sg4
VState University of New
p188
sg6
I707
sg7
I729
sa(dp189
g3
I0
sg4
VUniversity of New York
p190
sg6
I713
sg7
I734
sa(dp191
g3
I0
sg4
VNew York and City
p192
sg6
I727
sg7
I743
sa(dp193
g3
I0
sg4
VYork and City University
p194
sg6
I731
sg7
I754
sa(dp195
g3
I0
sg4
VCity University of New
p196
sg6
I740
sg7
I761
sa(dp197
g3
I0
sg4
VUniversity of New York
p198
sg6
I745
sg7
I766
sa(dp199
g3
I0
sg4
VJames B. Milliken CUNY
p200
sg6
I3000
sg7
I3021
sasI5
(lp201
(dp202
g3
I1
sg4
VState University of New York
p203
sg6
I707
sg7
I734
sa(dp204
g3
I0
sg4
VNew York and City University
p205
sg6
I727
sg7
I754
sa(dp206
g3
I1
sg4
VCity University of New York
p207
sg6
I740
sg7
I766
sasI6
(lp208
(dp209
g3
I0
sg4
VUniversity of New York and City
p210
sg6
I713
sg7
I743
sa(dp211
g3
I0
sg4
VYork and City University of New
p212
sg6
I731
sg7
I761
sas.