(dp0
I1
(lp1
(dp2
S'label'
p3
I0
sS'string'
p4
VBitcoin
p5
sS'start_index'
p6
I69
sS'end_index'
p7
I75
sa(dp8
g3
I0
sg4
VCampbell
p9
sg6
I259
sg7
I266
sa(dp10
g3
I0
sg4
VHarvey
p11
sg6
I268
sg7
I273
sa(dp12
g3
I0
sg4
VDuke
p13
sg6
I290
sg7
I293
sa(dp14
g3
I0
sg4
VBusiness
p15
sg6
I295
sg7
I302
sa(dp16
g3
I0
sg4
VLast
p17
sg6
I734
sg7
I737
sa(dp18
g3
I0
sg4
VStanford
p19
sg6
I744
sg7
I751
sasI2
(lp20
(dp21
g3
I0
sg4
VCampbell Harvey
p22
sg6
I259
sg7
I273
sa(dp23
g3
I0
sg4
VDuke Business
p24
sg6
I290
sg7
I302
sa(dp25
g3
I0
sg4
VBusiness School
p26
sg6
I295
sg7
I309
sa(dp27
g3
I1
sg4
VStanford University
p28
sg6
I744
sg7
I762
sasI3
(lp29
(dp30
g3
I1
sg4
VDuke Business School
p31
sg6
I290
sg7
I309
sasI4
(lp32
sI5
(lp33
sI6
(lp34
s.