(dp0
I1
(lp1
(dp2
S'label'
p3
I0
sS'string'
p4
VCase
p5
sS'start_index'
p6
I0
sS'end_index'
p7
I3
sa(dp8
g3
I0
sg4
VWestern
p9
sg6
I5
sg7
I11
sa(dp10
g3
I0
sg4
VReserve
p11
sg6
I13
sg7
I19
sa(dp12
g3
I0
sg4
VCase
p13
sg6
I347
sg7
I350
sa(dp14
g3
I0
sg4
VWestern
p15
sg6
I352
sg7
I358
sa(dp16
g3
I0
sg4
VCase
p17
sg6
I577
sg7
I580
sa(dp18
g3
I0
sg4
VGraduates
p19
sg6
I684
sg7
I692
sa(dp20
g3
I0
sg4
VGallup
p21
sg6
I778
sg7
I783
sa(dp22
g3
I0
sg4
VBusiness
p23
sg6
I793
sg7
I800
sa(dp24
g3
I0
sg4
VHigher
p25
sg6
I802
sg7
I807
sa(dp26
g3
I0
sg4
VEducation
p27
sg6
I809
sg7
I817
sa(dp28
g3
I0
sg4
VForum
p29
sg6
I819
sg7
I823
sa(dp30
g3
I1
sg4
VSUNY
p31
sg6
I972
sg7
I975
sa(dp32
g3
I0
sg4
VCertificate
p33
sg6
I977
sg7
I987
sa(dp34
g3
I0
sg4
VProgram
p35
sg6
I989
sg7
I995
sa(dp36
g3
I0
sg4
VSteven
p37
sg6
I997
sg7
I1002
sa(dp38
g3
I0
sg4
VLima
p39
sg6
I1004
sg7
I1007
sa(dp40
g3
I0
sg4
VNational
p41
sg6
I1028
sg7
I1035
sa(dp42
g3
I0
sg4
VGrid
p43
sg6
I1037
sg7
I1040
sa(dp44
g3
I0
sg4
VGas
p45
sg6
I1042
sg7
I1044
sa(dp46
g3
I0
sg4
VCertificate
p47
sg6
I1046
sg7
I1056
sa(dp48
g3
I0
sg4
VProgram
p49
sg6
I1058
sg7
I1064
sa(dp50
g3
I0
sg4
VFarmingdale
p51
sg6
I1086
sg7
I1096
sa(dp52
g3
I0
sg4
VState
p53
sg6
I1098
sg7
I1102
sa(dp54
g3
I0
sg4
VNew
p55
sg6
I1115
sg7
I1117
sa(dp56
g3
I0
sg4
VYork.
p57
sg6
I1119
sg7
I1123
sasI2
(lp58
(dp59
g3
I0
sg4
VCase Western
p60
sg6
I0
sg7
I11
sa(dp61
g3
I0
sg4
VWestern Reserve
p62
sg6
I5
sg7
I19
sa(dp63
g3
I0
sg4
VReserve University
p64
sg6
I13
sg7
I30
sa(dp65
g3
I1
sg4
VCase Western
p66
sg6
I347
sg7
I358
sa(dp67
g3
I0
sg4
VBusiness Higher
p68
sg6
I793
sg7
I807
sa(dp69
g3
I0
sg4
VHigher Education
p70
sg6
I802
sg7
I817
sa(dp71
g3
I0
sg4
VEducation Forum
p72
sg6
I809
sg7
I823
sa(dp73
g3
I0
sg4
VSUNY Certificate
p74
sg6
I972
sg7
I987
sa(dp75
g3
I0
sg4
VCertificate Program
p76
sg6
I977
sg7
I995
sa(dp77
g3
I0
sg4
VProgram Steven
p78
sg6
I989
sg7
I1002
sa(dp79
g3
I0
sg4
VSteven Lima
p80
sg6
I997
sg7
I1007
sa(dp81
g3
I0
sg4
VNational Grid
p82
sg6
I1028
sg7
I1040
sa(dp83
g3
I0
sg4
VGrid Gas
p84
sg6
I1037
sg7
I1044
sa(dp85
g3
I0
sg4
VGas Certificate
p86
sg6
I1042
sg7
I1056
sa(dp87
g3
I0
sg4
VCertificate Program
p88
sg6
I1046
sg7
I1064
sa(dp89
g3
I0
sg4
VFarmingdale State
p90
sg6
I1086
sg7
I1102
sa(dp91
g3
I0
sg4
VState College
p92
sg6
I1098
sg7
I1110
sa(dp93
g3
I0
sg4
VNew York.
p94
sg6
I1115
sg7
I1123
sasI3
(lp95
(dp96
g3
I0
sg4
VCase Western Reserve
p97
sg6
I0
sg7
I19
sa(dp98
g3
I0
sg4
VWestern Reserve University
p99
sg6
I5
sg7
I30
sa(dp100
g3
I0
sg4
VBusiness Higher Education
p101
sg6
I793
sg7
I817
sa(dp102
g3
I0
sg4
VHigher Education Forum
p103
sg6
I802
sg7
I823
sa(dp104
g3
I0
sg4
VSUNY Certificate Program
p105
sg6
I972
sg7
I995
sa(dp106
g3
I0
sg4
VCertificate Program Steven
p107
sg6
I977
sg7
I1002
sa(dp108
g3
I0
sg4
VProgram Steven Lima
p109
sg6
I989
sg7
I1007
sa(dp110
g3
I0
sg4
VNational Grid Gas
p111
sg6
I1028
sg7
I1044
sa(dp112
g3
I0
sg4
VGrid Gas Certificate
p113
sg6
I1037
sg7
I1056
sa(dp114
g3
I0
sg4
VGas Certificate Program
p115
sg6
I1042
sg7
I1064
sa(dp116
g3
I1
sg4
VFarmingdale State College
p117
sg6
I1086
sg7
I1110
sasI4
(lp118
(dp119
g3
I1
sg4
VCase Western Reserve University
p120
sg6
I0
sg7
I30
sa(dp121
g3
I0
sg4
VBusiness Higher Education Forum
p122
sg6
I793
sg7
I823
sa(dp123
g3
I0
sg4
VSUNY Certificate Program Steven
p124
sg6
I972
sg7
I1002
sa(dp125
g3
I0
sg4
VCertificate Program Steven Lima
p126
sg6
I977
sg7
I1007
sa(dp127
g3
I0
sg4
VNational Grid Gas Certificate
p128
sg6
I1028
sg7
I1056
sa(dp129
g3
I0
sg4
VGrid Gas Certificate Program
p130
sg6
I1037
sg7
I1064
sasI5
(lp131
(dp132
g3
I0
sg4
VSUNY Certificate Program Steven Lima
p133
sg6
I972
sg7
I1007
sa(dp134
g3
I0
sg4
VNational Grid Gas Certificate Program
p135
sg6
I1028
sg7
I1064
sasI6
(lp136
s.