(dp0
I1
(lp1
(dp2
S'label'
p3
I0
sS'string'
p4
VFarmingdale
p5
sS'start_index'
p6
I173
sS'end_index'
p7
I183
sa(dp8
g3
I0
sg4
VState
p9
sg6
I185
sg7
I189
sa(dp10
g3
I0
sg4
VNew
p11
sg6
I202
sg7
I204
sa(dp12
g3
I0
sg4
VYork
p13
sg6
I206
sg7
I209
sa(dp14
g3
I0
sg4
VNational
p15
sg6
I294
sg7
I301
sa(dp16
g3
I0
sg4
VGrid
p17
sg6
I303
sg7
I306
sa(dp18
g3
I0
sg4
VMarjaneh
p19
sg6
I414
sg7
I421
sa(dp20
g3
I0
sg4
VIssapour
p21
sg6
I423
sg7
I430
sa(dp22
g3
I0
sg4
VEvery
p23
sg6
I455
sg7
I459
sa(dp24
g3
I0
sg4
VNational
p25
sg6
I506
sg7
I513
sa(dp26
g3
I0
sg4
VGrid.
p27
sg6
I515
sg7
I519
sa(dp28
g3
I0
sg4
VAssociated
p29
sg6
I753
sg7
I762
sa(dp30
g3
I0
sg4
VEquipment
p31
sg6
I764
sg7
I772
sa(dp32
g3
I0
sg4
VDistributors
p33
sg6
I774
sg7
I785
sa(dp34
g3
I0
sg4
VFarmingdale
p35
sg6
I1109
sg7
I1119
sa(dp36
g3
I0
sg4
VIssapour
p37
sg6
I1260
sg7
I1267
sa(dp38
g3
I0
sg4
VCalifornia
p39
sg6
I1493
sg7
I1502
sa(dp40
g3
I0
sg4
VTechnology.
p41
sg6
I1517
sg7
I1527
sa(dp42
g3
I0
sg4
VBase
p43
sg6
I1529
sg7
I1532
sa(dp44
g3
I0
sg4
VCaltech
p45
sg6
I1710
sg7
I1716
sa(dp46
g3
I0
sg4
VBase
p47
sg6
I1718
sg7
I1721
sa(dp48
g3
I0
sg4
VCalifornia
p49
sg6
I1790
sg7
I1799
sa(dp50
g3
I1
sg4
VCaltech
p51
sg6
I1817
sg7
I1823
sa(dp52
g3
I0
sg4
VSTEM
p53
sg6
I1927
sg7
I1930
sa(dp54
g3
I0
sg4
VBeverley
p55
sg6
I2239
sg7
I2246
sa(dp56
g3
I0
sg4
VMcKeon
p57
sg6
I2248
sg7
I2253
sa(dp58
g3
I1
sg4
VCaltech
p59
sg6
I2259
sg7
I2265
sa(dp60
g3
I0
sg4
VOthers
p61
sg6
I2301
sg7
I2306
sa(dp62
g3
I0
sg4
VNASA
p63
sg6
I2377
sg7
I2380
sa(dp64
g3
I0
sg4
VJet
p65
sg6
I2382
sg7
I2384
sa(dp66
g3
I0
sg4
VPropulsion
p67
sg6
I2386
sg7
I2395
sa(dp68
g3
I0
sg4
VLaboratory.
p69
sg6
I2397
sg7
I2407
sa(dp70
g3
I0
sg4
VBase
p71
sg6
I2409
sg7
I2412
sa(dp72
g3
I0
sg4
VSTEM
p73
sg6
I2458
sg7
I2461
sa(dp74
g3
I0
sg4
VSouthern
p75
sg6
I2514
sg7
I2521
sa(dp76
g3
I0
sg4
VCalifornia
p77
sg6
I2523
sg7
I2532
sa(dp78
g3
I0
sg4
VEngineering
p79
sg6
I2546
sg7
I2556
sa(dp80
g3
I0
sg4
VCalifornia
p81
sg6
I2580
sg7
I2589
sa(dp82
g3
I0
sg4
VIrvine.
p83
sg6
I2591
sg7
I2597
sasI2
(lp84
(dp85
g3
I0
sg4
VFarmingdale State
p86
sg6
I173
sg7
I189
sa(dp87
g3
I0
sg4
VState College
p88
sg6
I185
sg7
I197
sa(dp89
g3
I0
sg4
VNew York
p90
sg6
I202
sg7
I209
sa(dp91
g3
I0
sg4
VNational Grid
p92
sg6
I294
sg7
I306
sa(dp93
g3
I0
sg4
VMarjaneh Issapour
p94
sg6
I414
sg7
I430
sa(dp95
g3
I0
sg4
VNational Grid.
p96
sg6
I506
sg7
I519
sa(dp97
g3
I0
sg4
VAssociated Equipment
p98
sg6
I753
sg7
I772
sa(dp99
g3
I0
sg4
VEquipment Distributors
p100
sg6
I764
sg7
I785
sa(dp101
g3
I0
sg4
VCalifornia Institute
p102
sg6
I1493
sg7
I1512
sa(dp103
g3
I0
sg4
VCaltech Base
p104
sg6
I1710
sg7
I1721
sa(dp105
g3
I0
sg4
VBeverley McKeon
p106
sg6
I2239
sg7
I2253
sa(dp107
g3
I0
sg4
VNASA Jet
p108
sg6
I2377
sg7
I2384
sa(dp109
g3
I0
sg4
VJet Propulsion
p110
sg6
I2382
sg7
I2395
sa(dp111
g3
I0
sg4
VPropulsion Laboratory.
p112
sg6
I2386
sg7
I2407
sa(dp113
g3
I0
sg4
VSouthern California
p114
sg6
I2514
sg7
I2532
sa(dp115
g3
I0
sg4
VCalifornia Irvine.
p116
sg6
I2580
sg7
I2597
sasI3
(lp117
(dp118
g3
I1
sg4
VFarmingdale State College
p119
sg6
I173
sg7
I197
sa(dp120
g3
I0
sg4
VAssociated Equipment Distributors
p121
sg6
I753
sg7
I785
sa(dp122
g3
I0
sg4
VInstitute of Technology.
p123
sg6
I1504
sg7
I1527
sa(dp124
g3
I0
sg4
VNASA Jet Propulsion
p125
sg6
I2377
sg7
I2395
sa(dp126
g3
I0
sg4
VJet Propulsion Laboratory.
p127
sg6
I2382
sg7
I2407
sa(dp128
g3
I0
sg4
VUniversity of Southern
p129
sg6
I2500
sg7
I2521
sa(dp130
g3
I0
sg4
VSchool of Engineering
p131
sg6
I2536
sg7
I2556
sa(dp132
g3
I0
sg4
VUniversity of California
p133
sg6
I2566
sg7
I2589
sasI4
(lp134
(dp135
g3
I1
sg4
VCalifornia Institute of Technology.
p136
sg6
I1493
sg7
I1527
sa(dp137
g3
I0
sg4
VNASA Jet Propulsion Laboratory.
p138
sg6
I2377
sg7
I2407
sa(dp139
g3
I1
sg4
VUniversity of Southern California
p140
sg6
I2500
sg7
I2532
sa(dp141
g3
I1
sg4
VUniversity of California Irvine.
p142
sg6
I2566
sg7
I2597
sasI5
(lp143
sI6
(lp144
s.