(dp0
I1
(lp1
(dp2
S'label'
p3
I0
sS'string'
p4
VHeidi
p5
sS'start_index'
p6
I0
sS'end_index'
p7
I4
sa(dp8
g3
I0
sg4
VLunders
p9
sg6
I6
sg7
I12
sa(dp10
g3
I0
sg4
VLake
p11
sg6
I35
sg7
I38
sa(dp12
g3
I0
sg4
VArea
p13
sg6
I40
sg7
I43
sa(dp14
g3
I0
sg4
VTechnical
p15
sg6
I45
sg7
I53
sa(dp16
g3
I0
sg4
VWatertown
p17
sg6
I68
sg7
I76
sa(dp18
g3
I0
sg4
VTightly
p19
sg6
I219
sg7
I225
sa(dp20
g3
I0
sg4
VMichael
p21
sg6
I381
sg7
I387
sa(dp22
g3
I0
sg4
VCartney
p23
sg6
I389
sg7
I395
sa(dp24
g3
I0
sg4
VLake
p25
sg6
I414
sg7
I417
sa(dp26
g3
I0
sg4
VArea
p27
sg6
I419
sg7
I422
sa(dp28
g3
I0
sg4
VTechnical
p29
sg6
I424
sg7
I432
sa(dp30
g3
I0
sg4
VWatertown
p31
sg6
I447
sg7
I455
sa(dp32
g3
I0
sg4
VSenate
p33
sg6
I483
sg7
I488
sa(dp34
g3
I0
sg4
VCommerce
p35
sg6
I490
sg7
I497
sa(dp36
g3
I0
sg4
VCommittee
p37
sg6
I499
sg7
I507
sa(dp38
g3
I0
sg4
VMarch.
p39
sg6
I512
sg7
I517
sasI2
(lp40
(dp41
g3
I0
sg4
VHeidi Lunders
p42
sg6
I0
sg7
I12
sa(dp43
g3
I0
sg4
VLake Area
p44
sg6
I35
sg7
I43
sa(dp45
g3
I0
sg4
VArea Technical
p46
sg6
I40
sg7
I53
sa(dp47
g3
I0
sg4
VTechnical Institute
p48
sg6
I45
sg7
I63
sa(dp49
g3
I0
sg4
VWatertown S.
p50
sg6
I68
sg7
I79
sa(dp51
g3
I0
sg4
VS. D.
p52
sg6
I78
sg7
I82
sa(dp53
g3
I0
sg4
VMichael Cartney
p54
sg6
I381
sg7
I395
sa(dp55
g3
I0
sg4
VLake Area
p56
sg6
I414
sg7
I422
sa(dp57
g3
I0
sg4
VArea Technical
p58
sg6
I419
sg7
I432
sa(dp59
g3
I0
sg4
VTechnical Institute
p60
sg6
I424
sg7
I442
sa(dp61
g3
I0
sg4
VWatertown S.
p62
sg6
I447
sg7
I458
sa(dp63
g3
I0
sg4
VS. D.
p64
sg6
I457
sg7
I461
sa(dp65
g3
I0
sg4
VSenate Commerce
p66
sg6
I483
sg7
I497
sa(dp67
g3
I0
sg4
VCommerce Committee
p68
sg6
I490
sg7
I507
sasI3
(lp69
(dp70
g3
I0
sg4
VLake Area Technical
p71
sg6
I35
sg7
I53
sa(dp72
g3
I0
sg4
VArea Technical Institute
p73
sg6
I40
sg7
I63
sa(dp74
g3
I0
sg4
VWatertown S. D.
p75
sg6
I68
sg7
I82
sa(dp76
g3
I0
sg4
VLake Area Technical
p77
sg6
I414
sg7
I432
sa(dp78
g3
I0
sg4
VArea Technical Institute
p79
sg6
I419
sg7
I442
sa(dp80
g3
I0
sg4
VWatertown S. D.
p81
sg6
I447
sg7
I461
sa(dp82
g3
I0
sg4
VSenate Commerce Committee
p83
sg6
I483
sg7
I507
sasI4
(lp84
(dp85
g3
I1
sg4
VLake Area Technical Institute
p86
sg6
I35
sg7
I63
sa(dp87
g3
I1
sg4
VLake Area Technical Institute
p88
sg6
I414
sg7
I442
sasI5
(lp89
sI6
(lp90
s.