(dp0
I1
(lp1
(dp2
S'label'
p3
I0
sS'string'
p4
VCongress
p5
sS'start_index'
p6
I17
sS'end_index'
p7
I24
sa(dp8
g3
I0
sg4
VCartney.
p9
sg6
I46
sg7
I53
sa(dp10
g3
I0
sg4
VPresident
p11
sg6
I55
sg7
I63
sa(dp12
g3
I0
sg4
VBarack
p13
sg6
I65
sg7
I70
sa(dp14
g3
I0
sg4
VObama
p15
sg6
I72
sg7
I76
sa(dp16
g3
I0
sg4
VAspen
p17
sg6
I138
sg7
I142
sa(dp18
g3
I0
sg4
VWashington
p19
sg6
I156
sg7
I165
sa(dp20
g3
I0
sg4
VPrize
p21
sg6
I252
sg7
I256
sa(dp22
g3
I0
sg4
VCommunity
p23
sg6
I262
sg7
I270
sa(dp24
g3
I0
sg4
VExcellence.
p25
sg6
I280
sg7
I290
sa(dp26
g3
I0
sg4
VHence
p27
sg6
I838
sg7
I842
sa(dp28
g3
I0
sg4
VCartney
p29
sg6
I918
sg7
I924
sa(dp30
g3
I0
sg4
VMiami
p31
sg6
I1024
sg7
I1028
sa(dp32
g3
I0
sg4
VDade
p33
sg6
I1030
sg7
I1033
sa(dp34
g3
I0
sg4
VCollegeThe
p35
sg6
I1035
sg7
I1044
sa(dp36
g3
I0
sg4
VFlorida.
p37
sg6
I1108
sg7
I1115
sa(dp38
g3
I0
sg4
VLabor
p39
sg6
I1377
sg7
I1381
sa(dp40
g3
I0
sg4
VDepartment
p41
sg6
I1383
sg7
I1392
sa(dp42
g3
I0
sg4
VKaren
p43
sg6
I1660
sg7
I1664
sa(dp44
g3
I0
sg4
VElzey
p45
sg6
I1666
sg7
I1670
sa(dp46
g3
I0
sg4
VBusiness
p47
sg6
I1694
sg7
I1701
sa(dp48
g3
I0
sg4
VHigher
p49
sg6
I1703
sg7
I1708
sa(dp50
g3
I0
sg4
VEducation
p51
sg6
I1710
sg7
I1718
sa(dp52
g3
I0
sg4
VForum
p53
sg6
I1720
sg7
I1724
sa(dp54
g3
I0
sg4
VStacey
p55
sg6
I1771
sg7
I1776
sa(dp56
g3
I0
sg4
VMilligan
p57
sg6
I1778
sg7
I1785
sa(dp58
g3
I0
sg4
VDalhousie
p59
sg6
I1817
sg7
I1825
sa(dp60
g3
I0
sg4
VHalifax
p61
sg6
I1841
sg7
I1847
sa(dp62
g3
I0
sg4
VNova
p63
sg6
I1849
sg7
I1852
sa(dp64
g3
I0
sg4
VScotia
p65
sg6
I1854
sg7
I1859
sa(dp66
g3
I0
sg4
VLabrador
p67
sg6
I1883
sg7
I1890
sa(dp68
g3
I0
sg4
VForteau.
p69
sg6
I1903
sg7
I1910
sasI2
(lp70
(dp71
g3
I0
sg4
VPresident Barack
p72
sg6
I55
sg7
I70
sa(dp73
g3
I0
sg4
VBarack Obama
p74
sg6
I65
sg7
I76
sa(dp75
g3
I1
sg4
VAspen Institute
p76
sg6
I138
sg7
I152
sa(dp77
g3
I0
sg4
VCommunity College
p78
sg6
I262
sg7
I278
sa(dp79
g3
I0
sg4
VCollege Excellence.
p80
sg6
I272
sg7
I290
sa(dp81
g3
I0
sg4
V. Hence
p82
sg6
I836
sg7
I842
sa(dp83
g3
I0
sg4
VMiami Dade
p84
sg6
I1024
sg7
I1033
sa(dp85
g3
I0
sg4
VDade CollegeThe
p86
sg6
I1030
sg7
I1044
sa(dp87
g3
I0
sg4
VLabor Department
p88
sg6
I1377
sg7
I1392
sa(dp89
g3
I0
sg4
VKaren Elzey
p90
sg6
I1660
sg7
I1670
sa(dp91
g3
I0
sg4
VBusiness Higher
p92
sg6
I1694
sg7
I1708
sa(dp93
g3
I0
sg4
VHigher Education
p94
sg6
I1703
sg7
I1718
sa(dp95
g3
I0
sg4
VEducation Forum
p96
sg6
I1710
sg7
I1724
sa(dp97
g3
I0
sg4
VStacey Milligan
p98
sg6
I1771
sg7
I1785
sa(dp99
g3
I1
sg4
VDalhousie University
p100
sg6
I1817
sg7
I1836
sa(dp101
g3
I0
sg4
VHalifax Nova
p102
sg6
I1841
sg7
I1852
sa(dp103
g3
I0
sg4
VNova Scotia
p104
sg6
I1849
sg7
I1859
sasI3
(lp105
(dp106
g3
I0
sg4
VPresident Barack Obama
p107
sg6
I55
sg7
I76
sa(dp108
g3
I0
sg4
VCommunity College Excellence.
p109
sg6
I262
sg7
I290
sa(dp110
g3
I0
sg4
VMiami Dade CollegeThe
p111
sg6
I1024
sg7
I1044
sa(dp112
g3
I0
sg4
VBusiness Higher Education
p113
sg6
I1694
sg7
I1718
sa(dp114
g3
I0
sg4
VHigher Education Forum
p115
sg6
I1703
sg7
I1724
sa(dp116
g3
I0
sg4
VHalifax Nova Scotia
p117
sg6
I1841
sg7
I1859
sasI4
(lp118
(dp119
g3
I0
sg4
VBusiness Higher Education Forum
p120
sg6
I1694
sg7
I1724
sasI5
(lp121
sI6
(lp122
s.