(dp0
I1
(lp1
(dp2
S'label'
p3
I0
sS'string'
p4
VDalhousie
p5
sS'start_index'
p6
I41
sS'end_index'
p7
I49
sa(dp8
g3
I0
sg4
VHalifax
p9
sg6
I65
sg7
I71
sa(dp10
g3
I0
sg4
VNova
p11
sg6
I73
sg7
I76
sa(dp12
g3
I0
sg4
VScotia
p13
sg6
I78
sg7
I83
sa(dp14
g3
I0
sg4
VLabrador
p15
sg6
I107
sg7
I114
sa(dp16
g3
I0
sg4
VForteau
p17
sg6
I127
sg7
I133
sa(dp18
g3
I0
sg4
V.The
p19
sg6
I458
sg7
I461
sa(dp20
g3
I0
sg4
VCanadian
p21
sg6
I523
sg7
I530
sa(dp22
g3
I0
sg4
VDalhousie
p23
sg6
I583
sg7
I591
sa(dp24
g3
I0
sg4
VForteau
p25
sg6
I629
sg7
I635
sa(dp26
g3
I0
sg4
VPeter
p27
sg6
I720
sg7
I724
sa(dp28
g3
I0
sg4
VHaubrich
p29
sg6
I726
sg7
I733
sa(dp30
g3
I0
sg4
VBenjamin
p31
sg6
I789
sg7
I796
sa(dp32
g3
I0
sg4
VFranklin
p33
sg6
I798
sg7
I805
sa(dp34
g3
I0
sg4
VTechnology
p35
sg6
I820
sg7
I829
sa(dp36
g3
I0
sg4
VBoston
p37
sg6
I834
sg7
I839
sasI2
(lp38
(dp39
g3
I1
sg4
VDalhousie University
p40
sg6
I41
sg7
I60
sa(dp41
g3
I0
sg4
VHalifax Nova
p42
sg6
I65
sg7
I76
sa(dp43
g3
I0
sg4
VNova Scotia
p44
sg6
I73
sg7
I83
sa(dp45
g3
I0
sg4
VPeter Haubrich
p46
sg6
I720
sg7
I733
sa(dp47
g3
I0
sg4
VBenjamin Franklin
p48
sg6
I789
sg7
I805
sa(dp49
g3
I0
sg4
VFranklin Institute
p50
sg6
I798
sg7
I815
sasI3
(lp51
(dp52
g3
I0
sg4
VHalifax Nova Scotia
p53
sg6
I65
sg7
I83
sa(dp54
g3
I0
sg4
VBenjamin Franklin Institute
p55
sg6
I789
sg7
I815
sa(dp56
g3
I0
sg4
VInstitute of Technology
p57
sg6
I807
sg7
I829
sasI4
(lp58
(dp59
g3
I0
sg4
VFranklin Institute of Technology
p60
sg6
I798
sg7
I829
sasI5
(lp61
(dp62
g3
I1
sg4
VBenjamin Franklin Institute of Technology
p63
sg6
I789
sg7
I829
sasI6
(lp64
s.