(dp0
I1
(lp1
(dp2
S'label'
p3
I0
sS'string'
p4
VBenjamin
p5
sS'start_index'
p6
I26
sS'end_index'
p7
I33
sa(dp8
g3
I0
sg4
VFranklin
p9
sg6
I35
sg7
I42
sa(dp10
g3
I0
sg4
VTechnology
p11
sg6
I57
sg7
I66
sa(dp12
g3
I0
sg4
VBoston
p13
sg6
I71
sg7
I76
sa(dp14
g3
I0
sg4
VFranklin
p15
sg6
I186
sg7
I193
sa(dp16
g3
I0
sg4
VBoston
p17
sg6
I200
sg7
I205
sa(dp18
g3
I0
sg4
VSouth
p19
sg6
I469
sg7
I473
sa(dp20
g3
I0
sg4
VEnd
p21
sg6
I475
sg7
I477
sa(dp22
g3
I0
sg4
V.Peter
p23
sg6
I677
sg7
I682
sa(dp24
g3
I0
sg4
VHaubrich
p25
sg6
I684
sg7
I691
sa(dp26
g3
I0
sg4
VFranklin
p27
sg6
I722
sg7
I729
sa(dp28
g3
I0
sg4
VRoxbury
p29
sg6
I901
sg7
I907
sa(dp30
g3
I0
sg4
VBoston.
p31
sg6
I920
sg7
I926
sa(dp32
g3
I0
sg4
VHaubrich
p33
sg6
I961
sg7
I968
sa(dp34
g3
I0
sg4
VUnitedHealthcare
p35
sg6
I991
sg7
I1006
sa(dp36
g3
I0
sg4
VHaubrich
p37
sg6
I1092
sg7
I1099
sa(dp38
g3
I0
sg4
VBenjamin
p39
sg6
I1156
sg7
I1163
sa(dp40
g3
I0
sg4
VFranklin.
p41
sg6
I1165
sg7
I1173
sa(dp42
g3
I0
sg4
VSeems
p43
sg6
I1220
sg7
I1224
sa(dp44
g3
I0
sg4
VHolberton
p45
sg6
I1306
sg7
I1314
sa(dp46
g3
I0
sg4
VSan
p47
sg6
I1326
sg7
I1328
sa(dp48
g3
I0
sg4
VFrancisco
p49
sg6
I1330
sg7
I1338
sa(dp50
g3
I0
sg4
VPrograms
p51
sg6
I1430
sg7
I1437
sasI2
(lp52
(dp53
g3
I0
sg4
VBenjamin Franklin
p54
sg6
I26
sg7
I42
sa(dp55
g3
I0
sg4
VFranklin Institute
p56
sg6
I35
sg7
I52
sa(dp57
g3
I0
sg4
VSouth End
p58
sg6
I469
sg7
I477
sa(dp59
g3
I0
sg4
V.Peter Haubrich
p60
sg6
I677
sg7
I691
sa(dp61
g3
I0
sg4
VBenjamin Franklin.
p62
sg6
I1156
sg7
I1173
sa(dp63
g3
I1
sg4
VHolberton School
p64
sg6
I1306
sg7
I1321
sa(dp65
g3
I0
sg4
VSan Francisco
p66
sg6
I1326
sg7
I1338
sasI3
(lp67
(dp68
g3
I0
sg4
VBenjamin Franklin Institute
p69
sg6
I26
sg7
I52
sa(dp70
g3
I0
sg4
VInstitute of Technology
p71
sg6
I44
sg7
I66
sasI4
(lp72
(dp73
g3
I0
sg4
VFranklin Institute of Technology
p74
sg6
I35
sg7
I66
sasI5
(lp75
(dp76
g3
I1
sg4
VBenjamin Franklin Institute of Technology
p77
sg6
I26
sg7
I66
sasI6
(lp78
s.