(dp0
I1
(lp1
(dp2
S'label'
p3
I0
sS'string'
p4
VCenter
p5
sS'start_index'
p6
I195
sS'end_index'
p7
I200
sa(dp8
g3
I0
sg4
VBudget
p9
sg6
I205
sg7
I210
sa(dp10
g3
I0
sg4
VPolicy
p11
sg6
I216
sg7
I221
sa(dp12
g3
I0
sg4
VPriorities
p13
sg6
I223
sg7
I232
sa(dp14
g3
I0
sg4
VIllinois
p15
sg6
I558
sg7
I565
sa(dp16
g3
I0
sg4
VIllinois
p17
sg6
I649
sg7
I656
sa(dp18
g3
I0
sg4
VPolicy
p19
sg6
I658
sg7
I663
sa(dp20
g3
I0
sg4
VJames
p21
sg6
I835
sg7
I839
sa(dp22
g3
I0
sg4
VHyatt
p23
sg6
I844
sg7
I848
sa(dp24
g3
I0
sg4
VCenter
p25
sg6
I876
sg7
I881
sa(dp26
g3
I0
sg4
VStudies
p27
sg6
I887
sg7
I893
sa(dp28
g3
I0
sg4
VHigher
p29
sg6
I898
sg7
I903
sa(dp30
g3
I0
sg4
VEducation
p31
sg6
I905
sg7
I913
sa(dp32
g3
I0
sg4
VCalifornia
p33
sg6
I986
sg7
I995
sa(dp34
g3
I0
sg4
VBerkeley.
p35
sg6
I997
sg7
I1005
sa(dp36
g3
I0
sg4
VMoody
p37
sg6
I1096
sg7
I1100
sa(dp38
g3
I0
sg4
VDepartment
p39
sg6
I1235
sg7
I1244
sa(dp40
g3
I0
sg4
VEducation
p41
sg6
I1249
sg7
I1257
sa(dp42
g3
I0
sg4
VAPPA
p43
sg6
I1543
sg7
I1546
sa(dp44
g3
I0
sg4
VAssociation
p45
sg6
I1561
sg7
I1571
sa(dp46
g3
I0
sg4
VPhysical
p47
sg6
I1576
sg7
I1583
sa(dp48
g3
I0
sg4
VPlant
p49
sg6
I1585
sg7
I1589
sa(dp50
g3
I0
sg4
VAdministrators.
p51
sg6
I1591
sg7
I1605
sa(dp52
g3
I0
sg4
VDodge
p53
sg6
I1739
sg7
I1743
sa(dp54
g3
I0
sg4
VData
p55
sg6
I1745
sg7
I1748
sa(dp56
g3
I0
sg4
VAnalytics
p57
sg6
I1754
sg7
I1762
sa(dp58
g3
I0
sg4
VMeanwhile
p59
sg6
I1924
sg7
I1932
sa(dp60
g3
I0
sg4
VGoogle
p61
sg6
I2153
sg7
I2158
sa(dp62
g3
I0
sg4
VAmericans
p63
sg6
I2257
sg7
I2265
sa(dp64
g3
I0
sg4
VPublic
p65
sg6
I2289
sg7
I2294
sa(dp66
g3
I0
sg4
VAgenda
p67
sg6
I2296
sg7
I2301
sa(dp68
g3
I0
sg4
VGallup
p69
sg6
I2496
sg7
I2501
sa(dp70
g3
I0
sg4
VSusan
p71
sg6
I2694
sg7
I2698
sa(dp72
g3
I0
sg4
VFitzgerald
p73
sg6
I2700
sg7
I2709
sa(dp74
g3
I0
sg4
VMoody
p75
sg6
I2757
sg7
I2761
sa(dp76
g3
I0
sg4
VJames
p77
sg6
I2766
sg7
I2770
sa(dp78
g3
I0
sg4
VSoto
p79
sg6
I2772
sg7
I2775
sa(dp80
g3
I0
sg4
VAntony
p81
sg6
I2777
sg7
I2782
sa(dp82
g3
I0
sg4
VHarvard
p83
sg6
I2803
sg7
I2809
sa(dp84
g3
I0
sg4
VGraduate
p85
sg6
I2811
sg7
I2818
sa(dp86
g3
I0
sg4
VEducation
p87
sg6
I2830
sg7
I2838
sa(dp88
g3
I0
sg4
VAntony
p89
sg6
I3075
sg7
I3080
sasI2
(lp90
(dp91
g3
I0
sg4
VPolicy Priorities
p92
sg6
I216
sg7
I232
sa(dp93
g3
I0
sg4
VIllinois Policy
p94
sg6
I649
sg7
I663
sa(dp95
g3
I0
sg4
VPolicy Institute
p96
sg6
I658
sg7
I673
sa(dp97
g3
I0
sg4
VJames A.
p98
sg6
I835
sg7
I842
sa(dp99
g3
I0
sg4
VA. Hyatt
p100
sg6
I841
sg7
I848
sa(dp101
g3
I0
sg4
VHigher Education
p102
sg6
I898
sg7
I913
sa(dp103
g3
I0
sg4
VCalifornia Berkeley.
p104
sg6
I986
sg7
I1005
sa(dp105
g3
I0
sg4
VPhysical Plant
p106
sg6
I1576
sg7
I1589
sa(dp107
g3
I0
sg4
VPlant Administrators.
p108
sg6
I1585
sg7
I1605
sa(dp109
g3
I0
sg4
VDodge Data
p110
sg6
I1739
sg7
I1748
sa(dp111
g3
I0
sg4
VPublic Agenda
p112
sg6
I2289
sg7
I2301
sa(dp113
g3
I0
sg4
VSusan Fitzgerald
p114
sg6
I2694
sg7
I2709
sa(dp115
g3
I0
sg4
VJames Soto
p116
sg6
I2766
sg7
I2775
sa(dp117
g3
I0
sg4
VSoto Antony
p118
sg6
I2772
sg7
I2782
sa(dp119
g3
I0
sg4
VHarvard Graduate
p120
sg6
I2803
sg7
I2818
sa(dp121
g3
I0
sg4
VGraduate School
p122
sg6
I2811
sg7
I2825
sasI3
(lp123
(dp124
g3
I0
sg4
VBudget and Policy
p125
sg6
I205
sg7
I221
sa(dp126
g3
I0
sg4
VIllinois Policy Institute
p127
sg6
I649
sg7
I673
sa(dp128
g3
I0
sg4
VJames A. Hyatt
p129
sg6
I835
sg7
I848
sa(dp130
g3
I0
sg4
VUniversity of California
p131
sg6
I972
sg7
I995
sa(dp132
g3
I0
sg4
VDepartment of Education
p133
sg6
I1235
sg7
I1257
sa(dp134
g3
I0
sg4
VAssociation of Physical
p135
sg6
I1561
sg7
I1583
sa(dp136
g3
I0
sg4
VPhysical Plant Administrators.
p137
sg6
I1576
sg7
I1605
sa(dp138
g3
I0
sg4
VData and Analytics
p139
sg6
I1745
sg7
I1762
sa(dp140
g3
I0
sg4
VJames Soto Antony
p141
sg6
I2766
sg7
I2782
sa(dp142
g3
I0
sg4
VHarvard Graduate School
p143
sg6
I2803
sg7
I2825
sa(dp144
g3
I0
sg4
VSchool of Education
p145
sg6
I2820
sg7
I2838
sasI4
(lp146
(dp147
g3
I0
sg4
VBudget and Policy Priorities
p148
sg6
I205
sg7
I232
sa(dp149
g3
I1
sg4
VUniversity of California Berkeley.
p150
sg6
I972
sg7
I1005
sa(dp151
g3
I0
sg4
VAssociation of Physical Plant
p152
sg6
I1561
sg7
I1589
sa(dp153
g3
I0
sg4
VDodge Data and Analytics
p154
sg6
I1739
sg7
I1762
sa(dp155
g3
I0
sg4
VGraduate School of Education
p156
sg6
I2811
sg7
I2838
sasI5
(lp157
(dp158
g3
I0
sg4
VAssociation of Physical Plant Administrators.
p159
sg6
I1561
sg7
I1605
sa(dp160
g3
I1
sg4
VHarvard Graduate School of Education
p161
sg6
I2803
sg7
I2838
sasI6
(lp162
s.