(dp0
I1
(lp1
(dp2
S'label'
p3
I0
sS'string'
p4
VFifty
p5
sS'start_index'
p6
I0
sS'end_index'
p7
I4
sa(dp8
g3
I0
sg4
VMidwest
p9
sg6
I231
sg7
I237
sa(dp10
g3
I0
sg4
VNortheast
p11
sg6
I243
sg7
I251
sa(dp12
g3
I0
sg4
VWestern
p13
sg6
I336
sg7
I342
sa(dp14
g3
I0
sg4
VInterstate
p15
sg6
I344
sg7
I353
sa(dp16
g3
I0
sg4
VCommission
p17
sg6
I355
sg7
I364
sa(dp18
g3
I0
sg4
VHigher
p19
sg6
I370
sg7
I375
sa(dp20
g3
I0
sg4
VEducation
p21
sg6
I377
sg7
I385
sa(dp22
g3
I0
sg4
VLuke
p23
sg6
I542
sg7
I545
sa(dp24
g3
I0
sg4
VBehaunek
p25
sg6
I547
sg7
I554
sa(dp26
g3
I0
sg4
VSimpson
p27
sg6
I576
sg7
I582
sa(dp28
g3
I0
sg4
VIndianola
p29
sg6
I595
sg7
I603
sa(dp30
g3
I0
sg4
VIowa.
p31
sg6
I605
sg7
I609
sa(dp32
g3
I0
sg4
VAmerican
p33
sg6
I673
sg7
I680
sa(dp34
g3
I0
sg4
VEducational
p35
sg6
I682
sg7
I692
sa(dp36
g3
I0
sg4
VResearch
p37
sg6
I694
sg7
I701
sa(dp38
g3
I0
sg4
VAssociation
p39
sg6
I703
sg7
I713
sa(dp40
g3
I0
sg4
VBehaunek
p41
sg6
I804
sg7
I811
sa(dp42
g3
I0
sg4
VKen
p43
sg6
I1125
sg7
I1127
sa(dp44
g3
I0
sg4
VRedd
p45
sg6
I1129
sg7
I1132
sa(dp46
g3
I0
sg4
VBased
p47
sg6
I1352
sg7
I1356
sa(dp48
g3
I0
sg4
VChief
p49
sg6
I1413
sg7
I1417
sa(dp50
g3
I0
sg4
VHearing
p51
sg6
I1546
sg7
I1552
sa(dp52
g3
I0
sg4
VRedd
p53
sg6
I1612
sg7
I1615
sa(dp54
g3
I0
sg4
VSightlines.
p55
sg6
I1969
sg7
I1979
sa(dp56
g3
I0
sg4
VGeorgia
p57
sg6
I2197
sg7
I2203
sa(dp58
g3
I0
sg4
VBoard
p59
sg6
I2324
sg7
I2328
sa(dp60
g3
I0
sg4
VRegents
p61
sg6
I2333
sg7
I2339
sa(dp62
g3
I0
sg4
VConnecticut
p63
sg6
I2457
sg7
I2467
sa(dp64
g3
I0
sg4
VState
p65
sg6
I2469
sg7
I2473
sa(dp66
g3
I0
sg4
VConnecticut
p67
sg6
I2542
sg7
I2552
sa(dp68
g3
I0
sg4
VChange
p69
sg6
I2656
sg7
I2661
sa(dp70
g3
I0
sg4
VCharlie
p71
sg6
I2758
sg7
I2764
sa(dp72
g3
I0
sg4
VSutlive
p73
sg6
I2766
sg7
I2772
sa(dp74
g3
I0
sg4
VSystem
p75
sg6
I2852
sg7
I2857
sa(dp76
g3
I0
sg4
VGeorgia.
p77
sg6
I2862
sg7
I2869
sa(dp78
g3
I0
sg4
VBill
p79
sg6
I2983
sg7
I2986
sa(dp80
g3
I0
sg4
V&amp
p81
sg6
I2988
sg7
I2991
sa(dp82
g3
I0
sg4
VMelinda
p83
sg6
I2993
sg7
I2999
sa(dp84
g3
I0
sg4
VGates
p85
sg6
I3001
sg7
I3005
sa(dp86
g3
I0
sg4
VFoundation
p87
sg6
I3007
sg7
I3016
sa(dp88
g3
I0
sg4
VFrontier
p89
sg6
I3089
sg7
I3096
sa(dp90
g3
I0
sg4
VSet
p91
sg6
I3098
sg7
I3100
sasI2
(lp92
(dp93
g3
I0
sg4
VWestern Interstate
p94
sg6
I336
sg7
I353
sa(dp95
g3
I0
sg4
VInterstate Commission
p96
sg6
I344
sg7
I364
sa(dp97
g3
I0
sg4
VHigher Education
p98
sg6
I370
sg7
I385
sa(dp99
g3
I0
sg4
VLuke Behaunek
p100
sg6
I542
sg7
I554
sa(dp101
g3
I1
sg4
VSimpson College
p102
sg6
I576
sg7
I590
sa(dp103
g3
I0
sg4
VIndianola Iowa.
p104
sg6
I595
sg7
I609
sa(dp105
g3
I0
sg4
VAmerican Educational
p106
sg6
I673
sg7
I692
sa(dp107
g3
I0
sg4
VEducational Research
p108
sg6
I682
sg7
I701
sa(dp109
g3
I0
sg4
VResearch Association
p110
sg6
I694
sg7
I713
sa(dp111
g3
I0
sg4
VKen Redd
p112
sg6
I1125
sg7
I1132
sa(dp113
g3
I0
sg4
VConnecticut State
p114
sg6
I2457
sg7
I2473
sa(dp115
g3
I0
sg4
VCharlie Sutlive
p116
sg6
I2758
sg7
I2772
sa(dp117
g3
I0
sg4
VUniversity System
p118
sg6
I2841
sg7
I2857
sa(dp119
g3
I0
sg4
VBill &amp
p120
sg6
I2983
sg7
I2991
sa(dp121
g3
I0
sg4
V&amp Melinda
p122
sg6
I2988
sg7
I2999
sa(dp123
g3
I0
sg4
VMelinda Gates
p124
sg6
I2993
sg7
I3005
sa(dp125
g3
I0
sg4
VGates Foundation
p126
sg6
I3001
sg7
I3016
sa(dp127
g3
I0
sg4
VFrontier Set
p128
sg6
I3089
sg7
I3100
sasI3
(lp129
(dp130
g3
I0
sg4
VMidwest and Northeast
p131
sg6
I231
sg7
I251
sa(dp132
g3
I0
sg4
VWestern Interstate Commission
p133
sg6
I336
sg7
I364
sa(dp134
g3
I0
sg4
VAmerican Educational Research
p135
sg6
I673
sg7
I701
sa(dp136
g3
I0
sg4
VEducational Research Association
p137
sg6
I682
sg7
I713
sa(dp138
g3
I0
sg4
VBoard of Regents
p139
sg6
I2324
sg7
I2339
sa(dp140
g3
I1
sg4
VUniversity of Connecticut
p141
sg6
I2528
sg7
I2552
sa(dp142
g3
I0
sg4
VSystem of Georgia.
p143
sg6
I2852
sg7
I2869
sa(dp144
g3
I0
sg4
VBill &amp Melinda
p145
sg6
I2983
sg7
I2999
sa(dp146
g3
I0
sg4
V&amp Melinda Gates
p147
sg6
I2988
sg7
I3005
sa(dp148
g3
I0
sg4
VMelinda Gates Foundation
p149
sg6
I2993
sg7
I3016
sasI4
(lp150
(dp151
g3
I0
sg4
VAmerican Educational Research Association
p152
sg6
I673
sg7
I713
sa(dp153
g3
I1
sg4
VUniversity System of Georgia.
p154
sg6
I2841
sg7
I2869
sa(dp155
g3
I0
sg4
VBill &amp Melinda Gates
p156
sg6
I2983
sg7
I3005
sa(dp157
g3
I0
sg4
V&amp Melinda Gates Foundation
p158
sg6
I2988
sg7
I3016
sasI5
(lp159
(dp160
g3
I0
sg4
VBill &amp Melinda Gates Foundation
p161
sg6
I2983
sg7
I3016
sasI6
(lp162
s.