(dp0
I1
(lp1
(dp2
S'label'
p3
I0
sS'string'
p4
VGeorge
p5
sS'start_index'
p6
I76
sS'end_index'
p7
I81
sa(dp8
g3
I0
sg4
VMehaffy
p9
sg6
I86
sg7
I92
sa(dp10
g3
I0
sg4
VAmerican
p11
sg6
I151
sg7
I158
sa(dp12
g3
I0
sg4
VAssociation
p13
sg6
I160
sg7
I170
sa(dp14
g3
I0
sg4
VState
p15
sg6
I175
sg7
I179
sa(dp16
g3
I0
sg4
VGeorgia
p17
sg6
I380
sg7
I386
sa(dp18
g3
I0
sg4
VState
p19
sg6
I388
sg7
I392
sa(dp20
g3
I0
sg4
VRetention
p21
sg6
I679
sg7
I687
sa(dp22
g3
I0
sg4
VGeorgia.
p23
sg6
I943
sg7
I950
sa(dp24
g3
I0
sg4
VFranklin
p25
sg6
I958
sg7
I965
sa(dp26
g3
I0
sg4
VArts
p27
sg6
I978
sg7
I981
sa(dp28
g3
I0
sg4
VSciences
p29
sg6
I987
sg7
I994
sa(dp30
g3
I0
sg4
VFranklin
p31
sg6
I1000
sg7
I1007
sa(dp32
g3
I0
sg4
VArts.
p33
sg6
I1020
sg7
I1024
sasI2
(lp34
(dp35
g3
I0
sg4
VGeorge L.
p36
sg6
I76
sg7
I84
sa(dp37
g3
I0
sg4
VL. Mehaffy
p38
sg6
I83
sg7
I92
sa(dp39
g3
I0
sg4
VAmerican Association
p40
sg6
I151
sg7
I170
sa(dp41
g3
I0
sg4
VGeorgia State
p42
sg6
I380
sg7
I392
sa(dp43
g3
I0
sg4
VState University
p44
sg6
I388
sg7
I403
sa(dp45
g3
I0
sg4
VFranklin College
p46
sg6
I958
sg7
I973
sa(dp47
g3
I0
sg4
VFranklin College
p48
sg6
I1000
sg7
I1015
sasI3
(lp49
(dp50
g3
I0
sg4
VGeorge L. Mehaffy
p51
sg6
I76
sg7
I92
sa(dp52
g3
I0
sg4
VAssociation of State
p53
sg6
I160
sg7
I179
sa(dp54
g3
I1
sg4
VGeorgia State University
p55
sg6
I380
sg7
I403
sa(dp56
g3
I1
sg4
VUniversity of Georgia.
p57
sg6
I929
sg7
I950
sa(dp58
g3
I0
sg4
VCollege of Arts
p59
sg6
I967
sg7
I981
sa(dp60
g3
I0
sg4
VArts and Sciences
p61
sg6
I978
sg7
I994
sa(dp62
g3
I0
sg4
VCollege of Arts.
p63
sg6
I1009
sg7
I1024
sasI4
(lp64
(dp65
g3
I0
sg4
VAmerican Association of State
p66
sg6
I151
sg7
I179
sa(dp67
g3
I0
sg4
VFranklin College of Arts
p68
sg6
I958
sg7
I981
sa(dp69
g3
I1
sg4
VFranklin College of Arts.
p70
sg6
I1000
sg7
I1024
sasI5
(lp71
(dp72
g3
I0
sg4
VCollege of Arts and Sciences
p73
sg6
I967
sg7
I994
sasI6
(lp74
(dp75
g3
I1
sg4
VFranklin College of Arts and Sciences
p76
sg6
I958
sg7
I994
sas.