(dp0
I1
(lp1
(dp2
S'label'
p3
I0
sS'string'
p4
VMumps
p5
sS'start_index'
p6
I0
sS'end_index'
p7
I4
sa(dp8
g3
I0
sg4
VSyracuse
p9
sg6
I288
sg7
I295
sa(dp10
g3
I0
sg4
VRouth
p11
sg6
I489
sg7
I493
sa(dp12
g3
I0
sg4
VMumps
p13
sg6
I528
sg7
I532
sa(dp14
g3
I0
sg4
VM.R.
p15
sg6
I601
sg7
I604
sa(dp16
g3
I0
sg4
VPatricia
p17
sg6
I808
sg7
I815
sa(dp18
g3
I0
sg4
VQuinlisk
p19
sg6
I817
sg7
I824
sa(dp20
g3
I0
sg4
VIowa
p21
sg6
I880
sg7
I883
sa(dp22
g3
I0
sg4
VDepartment
p23
sg6
I885
sg7
I894
sa(dp24
g3
I0
sg4
VPublic
p25
sg6
I899
sg7
I904
sa(dp26
g3
I0
sg4
VHealth
p27
sg6
I906
sg7
I911
sa(dp28
g3
I0
sg4
VIowa
p29
sg6
I957
sg7
I960
sa(dp30
g3
I0
sg4
VM.R.
p31
sg6
I1085
sg7
I1088
sa(dp32
g3
I0
sg4
VNew
p33
sg6
I1257
sg7
I1259
sa(dp34
g3
I0
sg4
VEngland
p35
sg6
I1261
sg7
I1267
sa(dp36
g3
I0
sg4
VJournal
p37
sg6
I1269
sg7
I1275
sa(dp38
g3
I0
sg4
VMedicine
p39
sg6
I1280
sg7
I1287
sa(dp40
g3
I0
sg4
VQuinlisk
p41
sg6
I1293
sg7
I1300
sa(dp42
g3
I0
sg4
VM.R.
p43
sg6
I1401
sg7
I1404
sa(dp44
g3
I1
sg4
VIowa
p45
sg6
I1418
sg7
I1421
sa(dp46
g3
I0
sg4
VQuinlisk
p47
sg6
I1498
sg7
I1505
sa(dp48
g3
I0
sg4
VAlan
p49
sg6
I1717
sg7
I1720
sa(dp50
g3
I0
sg4
VLucerna
p51
sg6
I1722
sg7
I1728
sa(dp52
g3
I0
sg4
VRowan
p53
sg6
I1799
sg7
I1803
sa(dp54
g3
I0
sg4
VOsteopathic
p55
sg6
I1815
sg7
I1825
sa(dp56
g3
I0
sg4
VMedicine
p57
sg6
I1827
sg7
I1834
sa(dp58
g3
I0
sg4
VNew
p59
sg6
I1839
sg7
I1841
sa(dp60
g3
I0
sg4
VJersey
p61
sg6
I1843
sg7
I1848
sa(dp62
g3
I0
sg4
VLucerna
p63
sg6
I2153
sg7
I2159
sa(dp64
g3
I0
sg4
VAdults
p65
sg6
I2167
sg7
I2172
sa(dp66
g3
I0
sg4
VRouth
p67
sg6
I2485
sg7
I2489
sa(dp68
g3
I1
sg4
VIowa
p69
sg6
I2643
sg7
I2646
sa(dp70
g3
I0
sg4
VM.R.
p71
sg6
I2718
sg7
I2721
sa(dp72
g3
I0
sg4
VQuinlisk
p73
sg6
I3010
sg7
I3017
sa(dp74
g3
I0
sg4
VImmunity
p75
sg6
I3025
sg7
I3032
sa(dp76
g3
I0
sg4
VIowa
p77
sg6
I3146
sg7
I3149
sasI2
(lp78
(dp79
g3
I1
sg4
VSyracuse University
p80
sg6
I288
sg7
I306
sa(dp81
g3
I0
sg4
VM. M.R.
p82
sg6
I598
sg7
I604
sa(dp83
g3
I0
sg4
VPatricia Quinlisk
p84
sg6
I808
sg7
I824
sa(dp85
g3
I0
sg4
VIowa Department
p86
sg6
I880
sg7
I894
sa(dp87
g3
I0
sg4
VPublic Health
p88
sg6
I899
sg7
I911
sa(dp89
g3
I0
sg4
VM. M.R.
p90
sg6
I1082
sg7
I1088
sa(dp91
g3
I0
sg4
VNew England
p92
sg6
I1257
sg7
I1267
sa(dp93
g3
I0
sg4
VEngland Journal
p94
sg6
I1261
sg7
I1275
sa(dp95
g3
I0
sg4
VM. M.R.
p96
sg6
I1398
sg7
I1404
sa(dp97
g3
I0
sg4
VAlan Lucerna
p98
sg6
I1717
sg7
I1728
sa(dp99
g3
I0
sg4
VRowan School
p100
sg6
I1799
sg7
I1810
sa(dp101
g3
I0
sg4
VOsteopathic Medicine
p102
sg6
I1815
sg7
I1834
sa(dp103
g3
I0
sg4
VNew Jersey
p104
sg6
I1839
sg7
I1848
sa(dp105
g3
I0
sg4
VE. R.
p106
sg6
I2031
sg7
I2035
sa(dp107
g3
I0
sg4
VM. M.R.
p108
sg6
I2715
sg7
I2721
sasI3
(lp109
(dp110
g3
I0
sg4
VDepartment of Public
p111
sg6
I885
sg7
I904
sa(dp112
g3
I1
sg4
VUniversity of Iowa
p113
sg6
I943
sg7
I960
sa(dp114
g3
I0
sg4
VNew England Journal
p115
sg6
I1257
sg7
I1275
sa(dp116
g3
I0
sg4
VJournal of Medicine
p117
sg6
I1269
sg7
I1287
sa(dp118
g3
I0
sg4
VSchool of Osteopathic
p119
sg6
I1805
sg7
I1825
sa(dp120
g3
I1
sg4
VUniversity of Iowa
p121
sg6
I3132
sg7
I3149
sasI4
(lp122
(dp123
g3
I0
sg4
VIowa Department of Public
p124
sg6
I880
sg7
I904
sa(dp125
g3
I0
sg4
VDepartment of Public Health
p126
sg6
I885
sg7
I911
sa(dp127
g3
I0
sg4
VEngland Journal of Medicine
p128
sg6
I1261
sg7
I1287
sa(dp129
g3
I0
sg4
VRowan School of Osteopathic
p130
sg6
I1799
sg7
I1825
sa(dp131
g3
I0
sg4
VSchool of Osteopathic Medicine
p132
sg6
I1805
sg7
I1834
sasI5
(lp133
(dp134
g3
I0
sg4
VIowa Department of Public Health
p135
sg6
I880
sg7
I911
sa(dp136
g3
I0
sg4
VNew England Journal of Medicine
p137
sg6
I1257
sg7
I1287
sa(dp138
g3
I1
sg4
VRowan School of Osteopathic Medicine
p139
sg6
I1799
sg7
I1834
sasI6
(lp140
s.