(dp0
I1
(lp1
(dp2
S'label'
p3
I0
sS'string'
p4
VLet
p5
sS'start_index'
p6
I0
sS'end_index'
p7
I2
sa(dp8
g3
I0
sg4
VBitcoin
p9
sg6
I40
sg7
I46
sa(dp10
g3
I0
sg4
VNicolas
p11
sg6
I67
sg7
I73
sa(dp12
g3
I0
sg4
VChristin
p13
sg6
I75
sg7
I82
sa(dp14
g3
I0
sg4
VCarnegie
p15
sg6
I116
sg7
I123
sa(dp16
g3
I0
sg4
VMellon
p17
sg6
I125
sg7
I130
sa(dp18
g3
I0
sg4
VCryptocurrencies
p19
sg6
I160
sg7
I175
sa(dp20
g3
I0
sg4
VBlockchains
p21
sg6
I177
sg7
I187
sa(dp22
g3
I0
sg4
VApplications
p23
sg6
I193
sg7
I204
sa(dp24
g3
I0
sg4
VProfessors
p25
sg6
I279
sg7
I288
sa(dp26
g3
I0
sg4
VIndeed.
p27
sg6
I458
sg7
I464
sa(dp28
g3
I0
sg4
VCrypto
p29
sg6
I567
sg7
I572
sa(dp30
g3
I0
sg4
VJobs
p31
sg6
I574
sg7
I577
sa(dp32
g3
I0
sg4
VList
p33
sg6
I579
sg7
I582
sa(dp34
g3
I0
sg4
VVinny
p35
sg6
I634
sg7
I638
sa(dp36
g3
I0
sg4
VTuminelli
p37
sg6
I640
sg7
I648
sa(dp38
g3
I1
sg4
VBerkeley
p39
sg6
I703
sg7
I710
sa(dp40
g3
I0
sg4
VAnheuser
p41
sg6
I752
sg7
I759
sa(dp42
g3
I0
sg4
VBusch
p43
sg6
I761
sg7
I765
sa(dp44
g3
I0
sg4
VTuminelli
p45
sg6
I992
sg7
I1000
sa(dp46
g3
I1
sg4
VBerkeley
p47
sg6
I1189
sg7
I1196
sasI2
(lp48
(dp49
g3
I0
sg4
VNicolas Christin
p50
sg6
I67
sg7
I82
sa(dp51
g3
I1
sg4
VCarnegie Mellon
p52
sg6
I116
sg7
I130
sa(dp53
g3
I0
sg4
VCryptocurrencies Blockchains
p54
sg6
I160
sg7
I187
sa(dp55
g3
I0
sg4
VCrypto Jobs
p56
sg6
I567
sg7
I577
sa(dp57
g3
I0
sg4
VJobs List
p58
sg6
I574
sg7
I582
sa(dp59
g3
I0
sg4
VVinny Tuminelli
p60
sg6
I634
sg7
I648
sa(dp61
g3
I0
sg4
VAnheuser Busch
p62
sg6
I752
sg7
I765
sasI3
(lp63
(dp64
g3
I0
sg4
VBlockchains and Applications
p65
sg6
I177
sg7
I204
sa(dp66
g3
I0
sg4
VCrypto Jobs List
p67
sg6
I567
sg7
I582
sasI4
(lp68
(dp69
g3
I0
sg4
VCryptocurrencies Blockchains and Applications
p70
sg6
I160
sg7
I204
sasI5
(lp71
sI6
(lp72
s.