(dp0
I1
(lp1
(dp2
S'label'
p3
I0
sS'string'
p4
VO.P.
p5
sS'start_index'
p6
I17
sS'end_index'
p7
I20
sa(dp8
g3
I0
sg4
VWashington
p9
sg6
I433
sg7
I442
sa(dp10
g3
I0
sg4
VSean
p11
sg6
I476
sg7
I479
sa(dp12
g3
I0
sg4
VDecatur
p13
sg6
I481
sg7
I487
sa(dp14
g3
I0
sg4
VKenyon
p15
sg6
I502
sg7
I507
sa(dp16
g3
I0
sg4
VFriday.
p17
sg6
I522
sg7
I528
sa(dp18
g3
I0
sg4
VSupporters
p19
sg6
I530
sg7
I539
sa(dp20
g3
I0
sg4
VRepresentative
p21
sg6
I761
sg7
I774
sa(dp22
g3
I0
sg4
VTom
p23
sg6
I776
sg7
I778
sa(dp24
g3
I0
sg4
VReed
p25
sg6
I780
sg7
I783
sa(dp26
g3
I0
sg4
VNew
p27
sg6
I787
sg7
I789
sa(dp28
g3
I0
sg4
VYork
p29
sg6
I791
sg7
I794
sa(dp30
g3
I0
sg4
VRepublican
p31
sg6
I796
sg7
I805
sa(dp32
g3
I0
sg4
VCornell
p33
sg6
I831
sg7
I837
sa(dp34
g3
I0
sg4
VReed
p35
sg6
I1356
sg7
I1359
sa(dp36
g3
I0
sg4
VChronicle
p37
sg6
I1548
sg7
I1556
sa(dp38
g3
I0
sg4
VHigher
p39
sg6
I1561
sg7
I1566
sa(dp40
g3
I0
sg4
VEducation.
p41
sg6
I1568
sg7
I1577
sa(dp42
g3
I0
sg4
VTerry
p43
sg6
I1705
sg7
I1709
sa(dp44
g3
I0
sg4
VHartle
p45
sg6
I1711
sg7
I1716
sa(dp46
g3
I0
sg4
VAmerican
p47
sg6
I1747
sg7
I1754
sa(dp48
g3
I0
sg4
VCouncil
p49
sg6
I1756
sg7
I1762
sa(dp50
g3
I0
sg4
VEducation
p51
sg6
I1767
sg7
I1775
sa(dp52
g3
I0
sg4
VPrivate
p53
sg6
I1870
sg7
I1876
sa(dp54
g3
I0
sg4
VHartle
p55
sg6
I1962
sg7
I1967
sa(dp56
g3
I0
sg4
VAgnes
p57
sg6
I2145
sg7
I2149
sa(dp58
g3
I0
sg4
VScott
p59
sg6
I2151
sg7
I2155
sa(dp60
g3
I0
sg4
VDecatur
p61
sg6
I2168
sg7
I2174
sa(dp62
g3
I0
sg4
VGa.
p63
sg6
I2176
sg7
I2178
sa(dp64
g3
I0
sg4
VElizabeth
p65
sg6
I2241
sg7
I2249
sa(dp66
g3
I0
sg4
VKiss
p67
sg6
I2251
sg7
I2254
sa(dp68
g3
I0
sg4
VPell
p69
sg6
I2357
sg7
I2360
sa(dp70
g3
I0
sg4
VKiss
p71
sg6
I2665
sg7
I2668
sa(dp72
g3
I0
sg4
VYale
p73
sg6
I2692
sg7
I2695
sa(dp74
g3
I0
sg4
VTom
p75
sg6
I2708
sg7
I2710
sa(dp76
g3
I0
sg4
VConroy
p77
sg6
I2712
sg7
I2717
sa(dp78
g3
I1
sg4
VYale.
p79
sg6
I2826
sg7
I2830
sa(dp80
g3
I0
sg4
VConroy
p81
sg6
I3244
sg7
I3249
sa(dp82
g3
I0
sg4
VHouse
p83
sg6
I3274
sg7
I3278
sa(dp84
g3
I0
sg4
VRepresentatives
p85
sg6
I3283
sg7
I3297
sa(dp86
g3
I1
sg4
VYale
p87
sg6
I3539
sg7
I3542
sa(dp88
g3
I1
sg4
VHarvard
p89
sg6
I3674
sg7
I3680
sasI2
(lp90
(dp91
g3
I0
sg4
VG. O.P.
p92
sg6
I14
sg7
I20
sa(dp93
g3
I0
sg4
VSean Decatur
p94
sg6
I476
sg7
I487
sa(dp95
g3
I1
sg4
VKenyon College
p96
sg6
I502
sg7
I515
sa(dp97
g3
I0
sg4
VRepresentative Tom
p98
sg6
I761
sg7
I778
sa(dp99
g3
I0
sg4
VTom Reed
p100
sg6
I776
sg7
I783
sa(dp101
g3
I0
sg4
VNew York
p102
sg6
I787
sg7
I794
sa(dp103
g3
I0
sg4
VYork Republican
p104
sg6
I791
sg7
I805
sa(dp105
g3
I1
sg4
VCornell University
p106
sg6
I831
sg7
I848
sa(dp107
g3
I0
sg4
VHigher Education.
p108
sg6
I1561
sg7
I1577
sa(dp109
g3
I0
sg4
VTerry Hartle
p110
sg6
I1705
sg7
I1716
sa(dp111
g3
I0
sg4
VAmerican Council
p112
sg6
I1747
sg7
I1762
sa(dp113
g3
I0
sg4
VAgnes Scott
p114
sg6
I2145
sg7
I2155
sa(dp115
g3
I0
sg4
VScott College
p116
sg6
I2151
sg7
I2163
sa(dp117
g3
I0
sg4
VDecatur Ga.
p118
sg6
I2168
sg7
I2178
sa(dp119
g3
I0
sg4
VElizabeth Kiss
p120
sg6
I2241
sg7
I2254
sa(dp121
g3
I1
sg4
VYale University
p122
sg6
I2692
sg7
I2706
sa(dp123
g3
I0
sg4
VUniversity Tom
p124
sg6
I2697
sg7
I2710
sa(dp125
g3
I0
sg4
VTom Conroy
p126
sg6
I2708
sg7
I2717
sasI3
(lp127
(dp128
g3
I0
sg4
VRepresentative Tom Reed
p129
sg6
I761
sg7
I783
sa(dp130
g3
I0
sg4
VNew York Republican
p131
sg6
I787
sg7
I805
sa(dp132
g3
I0
sg4
VChronicle of Higher
p133
sg6
I1548
sg7
I1566
sa(dp134
g3
I1
sg4
VAgnes Scott College
p135
sg6
I2145
sg7
I2163
sa(dp136
g3
I0
sg4
VYale University Tom
p137
sg6
I2692
sg7
I2710
sa(dp138
g3
I0
sg4
VUniversity Tom Conroy
p139
sg6
I2697
sg7
I2717
sa(dp140
g3
I0
sg4
VHouse of Representatives
p141
sg6
I3274
sg7
I3297
sasI4
(lp142
(dp143
g3
I0
sg4
VChronicle of Higher Education.
p144
sg6
I1548
sg7
I1577
sa(dp145
g3
I0
sg4
VYale University Tom Conroy
p146
sg6
I2692
sg7
I2717
sasI5
(lp147
sI6
(lp148
s.