(dp0
I1
(lp1
(dp2
S'label'
p3
I0
sS'string'
p4
VCongressional
p5
sS'start_index'
p6
I20
sS'end_index'
p7
I32
sa(dp8
g3
I0
sg4
VResearch
p9
sg6
I34
sg7
I41
sa(dp10
g3
I0
sg4
VService
p11
sg6
I43
sg7
I49
sa(dp12
g3
I0
sg4
VLarger
p13
sg6
I213
sg7
I218
sa(dp14
g3
I1
sg4
VYale
p15
sg6
I312
sg7
I315
sa(dp16
g3
I1
sg4
VPrinceton
p17
sg6
I371
sg7
I379
sa(dp18
g3
I1
sg4
VHarvard
p19
sg6
I412
sg7
I418
sa(dp20
g3
I1
sg4
VHarvard
p21
sg6
I468
sg7
I474
sa(dp22
g3
I1
sg4
VCornell
p23
sg6
I551
sg7
I557
sa(dp24
g3
I0
sg4
VMartha
p25
sg6
I670
sg7
I675
sa(dp26
g3
I0
sg4
VPollack
p27
sg6
I680
sg7
I686
sa(dp28
g3
I0
sg4
VFriday.
p29
sg6
I696
sg7
I702
sa(dp30
g3
I1
sg4
VCornell
p31
sg6
I728
sg7
I734
sa(dp32
g3
I0
sg4
VPollack
p33
sg6
I917
sg7
I923
sa(dp34
g3
I0
sg4
VS.A.
p35
sg6
I1156
sg7
I1159
sa(dp36
g3
I0
sg4
VGymnastics
p37
sg6
I1161
sg7
I1170
sa(dp38
g3
I0
sg4
VLawrence
p39
sg6
I1179
sg7
I1186
sa(dp40
g3
I0
sg4
VNassar
p41
sg6
I1191
sg7
I1196
sa(dp42
g3
I0
sg4
VOlympians
p43
sg6
I1265
sg7
I1273
sa(dp44
g3
I0
sg4
VMcKayla
p45
sg6
I1283
sg7
I1289
sa(dp46
g3
I0
sg4
VMaroney
p47
sg6
I1291
sg7
I1297
sa(dp48
g3
I0
sg4
VAly
p49
sg6
I1299
sg7
I1301
sa(dp50
g3
I0
sg4
VRaisman
p51
sg6
I1303
sg7
I1309
sa(dp52
g3
I0
sg4
VSimone
p53
sg6
I1315
sg7
I1320
sa(dp54
g3
I0
sg4
VBiles
p55
sg6
I1322
sg7
I1326
sa(dp56
g3
I1
sg4
VMichigan
p57
sg6
I1467
sg7
I1474
sa(dp58
g3
I0
sg4
VMichigan
p59
sg6
I1525
sg7
I1532
sa(dp60
g3
I0
sg4
VState
p61
sg6
I1534
sg7
I1538
sa(dp62
g3
I0
sg4
VNassar
p63
sg6
I1638
sg7
I1643
sa(dp64
g3
I0
sg4
VMichigan
p65
sg6
I1863
sg7
I1870
sa(dp66
g3
I0
sg4
VState
p67
sg6
I1872
sg7
I1876
sa(dp68
g3
I0
sg4
VSpartans
p69
sg6
I1945
sg7
I1952
sa(dp70
g3
I0
sg4
VC.A.
p71
sg6
I1965
sg7
I1968
sa(dp72
g3
I0
sg4
VNatalie
p73
sg6
I2197
sg7
I2203
sa(dp74
g3
I0
sg4
VStein
p75
sg6
I2205
sg7
I2209
sa(dp76
g3
I0
sg4
VLos
p77
sg6
I2238
sg7
I2240
sa(dp78
g3
I0
sg4
VAngeles
p79
sg6
I2242
sg7
I2248
sa(dp80
g3
I0
sg4
VNassar
p81
sg6
I2268
sg7
I2273
sasI2
(lp82
(dp83
g3
I0
sg4
VCongressional Research
p84
sg6
I20
sg7
I41
sa(dp85
g3
I0
sg4
VResearch Service
p86
sg6
I34
sg7
I49
sa(dp87
g3
I0
sg4
VMartha E.
p88
sg6
I670
sg7
I678
sa(dp89
g3
I0
sg4
VE. Pollack
p90
sg6
I677
sg7
I686
sa(dp91
g3
I0
sg4
VU. S.A.
p92
sg6
I1153
sg7
I1159
sa(dp93
g3
I0
sg4
VS.A. Gymnastics
p94
sg6
I1156
sg7
I1170
sa(dp95
g3
I0
sg4
VLawrence G.
p96
sg6
I1179
sg7
I1189
sa(dp97
g3
I0
sg4
VG. Nassar
p98
sg6
I1188
sg7
I1196
sa(dp99
g3
I0
sg4
VMcKayla Maroney
p100
sg6
I1283
sg7
I1297
sa(dp101
g3
I0
sg4
VMaroney Aly
p102
sg6
I1291
sg7
I1301
sa(dp103
g3
I0
sg4
VAly Raisman
p104
sg6
I1299
sg7
I1309
sa(dp105
g3
I0
sg4
VSimone Biles
p106
sg6
I1315
sg7
I1326
sa(dp107
g3
I1
sg4
VMichigan State
p108
sg6
I1525
sg7
I1538
sa(dp109
g3
I1
sg4
VMichigan State
p110
sg6
I1863
sg7
I1876
sa(dp111
g3
I0
sg4
VN. C.A.
p112
sg6
I1962
sg7
I1968
sa(dp113
g3
I0
sg4
VC.A. A.
p114
sg6
I1965
sg7
I1971
sa(dp115
g3
I0
sg4
VNatalie Stein
p116
sg6
I2197
sg7
I2209
sa(dp117
g3
I0
sg4
VLos Angeles
p118
sg6
I2238
sg7
I2248
sasI3
(lp119
(dp120
g3
I0
sg4
VCongressional Research Service
p121
sg6
I20
sg7
I49
sa(dp122
g3
I0
sg4
VMartha E. Pollack
p123
sg6
I670
sg7
I686
sa(dp124
g3
I0
sg4
VU. S.A. Gymnastics
p125
sg6
I1153
sg7
I1170
sa(dp126
g3
I0
sg4
VLawrence G. Nassar
p127
sg6
I1179
sg7
I1196
sa(dp128
g3
I0
sg4
VMcKayla Maroney Aly
p129
sg6
I1283
sg7
I1301
sa(dp130
g3
I0
sg4
VMaroney Aly Raisman
p131
sg6
I1291
sg7
I1309
sa(dp132
g3
I0
sg4
VRaisman and Simone
p133
sg6
I1303
sg7
I1320
sa(dp134
g3
I0
sg4
VN. C.A. A.
p135
sg6
I1962
sg7
I1971
sasI4
(lp136
(dp137
g3
I0
sg4
VMcKayla Maroney Aly Raisman
p138
sg6
I1283
sg7
I1309
sa(dp139
g3
I0
sg4
VAly Raisman and Simone
p140
sg6
I1299
sg7
I1320
sa(dp141
g3
I0
sg4
VRaisman and Simone Biles
p142
sg6
I1303
sg7
I1326
sasI5
(lp143
(dp144
g3
I0
sg4
VMaroney Aly Raisman and Simone
p145
sg6
I1291
sg7
I1320
sa(dp146
g3
I0
sg4
VAly Raisman and Simone Biles
p147
sg6
I1299
sg7
I1326
sasI6
(lp148
(dp149
g3
I0
sg4
VMcKayla Maroney Aly Raisman and Simone
p150
sg6
I1283
sg7
I1320
sa(dp151
g3
I0
sg4
VMaroney Aly Raisman and Simone Biles
p152
sg6
I1291
sg7
I1326
sas.