(dp0
I1
(lp1
(dp2
S'label'
p3
I0
sS'string'
p4
VRoughly
p5
sS'start_index'
p6
I0
sS'end_index'
p7
I6
sa(dp8
g3
I0
sg4
VMichigan
p9
sg6
I65
sg7
I72
sa(dp10
g3
I0
sg4
VState
p11
sg6
I74
sg7
I78
sa(dp12
g3
I0
sg4
VActive
p13
sg6
I193
sg7
I198
sa(dp14
g3
I0
sg4
VNassar
p15
sg6
I246
sg7
I251
sa(dp16
g3
I0
sg4
VC.A.
p17
sg6
I399
sg7
I402
sa(dp18
g3
I0
sg4
VMichigan
p19
sg6
I491
sg7
I498
sa(dp20
g3
I0
sg4
VState
p21
sg6
I500
sg7
I504
sa(dp22
g3
I0
sg4
VPresident
p23
sg6
I579
sg7
I587
sa(dp24
g3
I0
sg4
VEngler
p25
sg6
I589
sg7
I594
sa(dp26
g3
I1
sg4
VMSU
p27
sg6
I631
sg7
I633
sa(dp28
g3
I1
sg4
VMichigan
p29
sg6
I730
sg7
I737
sa(dp30
g3
I0
sg4
VJohn
p31
sg6
I748
sg7
I751
sa(dp32
g3
I0
sg4
VEngler
p33
sg6
I753
sg7
I758
sa(dp34
g3
I0
sg4
VAmerica
p35
sg6
I921
sg7
I927
sa(dp36
g3
I0
sg4
VLawrence
p37
sg6
I950
sg7
I957
sa(dp38
g3
I0
sg4
VNassar
p39
sg6
I962
sg7
I967
sa(dp40
g3
I1
sg4
VMichigan.
p41
sg6
I1097
sg7
I1105
sasI2
(lp42
(dp43
g3
I1
sg4
VMichigan State
p44
sg6
I65
sg7
I78
sa(dp45
g3
I0
sg4
VN. C.A.
p46
sg6
I396
sg7
I402
sa(dp47
g3
I0
sg4
VC.A. A.
p48
sg6
I399
sg7
I405
sa(dp49
g3
I1
sg4
VMichigan State
p50
sg6
I491
sg7
I504
sa(dp51
g3
I0
sg4
VPresident Engler
p52
sg6
I579
sg7
I594
sa(dp53
g3
I0
sg4
VJohn Engler
p54
sg6
I748
sg7
I758
sa(dp55
g3
I0
sg4
VLawrence G.
p56
sg6
I950
sg7
I960
sa(dp57
g3
I0
sg4
VG. Nassar
p58
sg6
I959
sg7
I967
sasI3
(lp59
(dp60
g3
I0
sg4
VN. C.A. A.
p61
sg6
I396
sg7
I405
sa(dp62
g3
I0
sg4
VLawrence G. Nassar
p63
sg6
I950
sg7
I967
sasI4
(lp64
sI5
(lp65
sI6
(lp66
s.