(dp0
I1
(lp1
(dp2
S'label'
p3
I0
sS'string'
p4
VNassar
p5
sS'start_index'
p6
I68
sS'end_index'
p7
I73
sa(dp8
g3
I0
sg4
VMedical
p9
sg6
I170
sg7
I176
sa(dp10
g3
I0
sg4
VAccording
p11
sg6
I394
sg7
I402
sa(dp12
g3
I0
sg4
VNassar
p13
sg6
I427
sg7
I432
sa(dp14
g3
I0
sg4
VMichigan
p15
sg6
I478
sg7
I485
sa(dp16
g3
I0
sg4
VState
p17
sg6
I487
sg7
I491
sa(dp18
g3
I0
sg4
VBig
p19
sg6
I539
sg7
I541
sa(dp20
g3
I0
sg4
VTen
p21
sg6
I543
sg7
I545
sa(dp22
g3
I0
sg4
VUSA
p23
sg6
I624
sg7
I626
sa(dp24
g3
I0
sg4
VMichigan
p25
sg6
I745
sg7
I752
sa(dp26
g3
I0
sg4
VState
p27
sg6
I754
sg7
I758
sa(dp28
g3
I0
sg4
VJenison
p29
sg6
I762
sg7
I768
sa(dp30
g3
I0
sg4
VField
p31
sg6
I770
sg7
I774
sa(dp32
g3
I0
sg4
VHouse
p33
sg6
I776
sg7
I780
sa(dp34
g3
I0
sg4
VSometimes
p35
sg6
I986
sg7
I994
sa(dp36
g3
I0
sg4
VNassar
p37
sg6
I1019
sg7
I1024
sa(dp38
g3
I0
sg4
VStein
p39
sg6
I1248
sg7
I1252
sa(dp40
g3
I0
sg4
VNassar
p41
sg6
I1283
sg7
I1288
sa(dp42
g3
I0
sg4
VDivision
p43
sg6
I1431
sg7
I1438
sa(dp44
g3
I0
sg4
VCate
p45
sg6
I1455
sg7
I1458
sa(dp46
g3
I0
sg4
VHannum
p47
sg6
I1460
sg7
I1465
sa(dp48
g3
I0
sg4
VNassar
p49
sg6
I1488
sg7
I1493
sa(dp50
g3
I0
sg4
VMichigan
p51
sg6
I1593
sg7
I1600
sa(dp52
g3
I0
sg4
VState.
p53
sg6
I1602
sg7
I1607
sa(dp54
g3
I0
sg4
VWhy
p55
sg6
I1609
sg7
I1611
sa(dp56
g3
I0
sg4
VNassar
p57
sg6
I1707
sg7
I1712
sa(dp58
g3
I0
sg4
VCharla
p59
sg6
I1746
sg7
I1751
sa(dp60
g3
I0
sg4
VBurill
p61
sg6
I1753
sg7
I1758
sa(dp62
g3
I0
sg4
VLindsey
p63
sg6
I1903
sg7
I1909
sa(dp64
g3
I0
sg4
VLemke
p65
sg6
I1911
sg7
I1915
sa(dp66
g3
I0
sg4
VNassar
p67
sg6
I1940
sg7
I1945
sa(dp68
g3
I0
sg4
VMichigan
p69
sg6
I2012
sg7
I2019
sa(dp70
g3
I0
sg4
VState
p71
sg6
I2021
sg7
I2025
sa(dp72
g3
I0
sg4
VOlympians
p73
sg6
I2127
sg7
I2135
sa(dp74
g3
I0
sg4
VChristie
p75
sg6
I2282
sg7
I2289
sa(dp76
g3
I0
sg4
VAchenbach
p77
sg6
I2291
sg7
I2299
sa(dp78
g3
I0
sg4
VNassar
p79
sg6
I2337
sg7
I2342
sa(dp80
g3
I0
sg4
VMichigan
p81
sg6
I2398
sg7
I2405
sa(dp82
g3
I0
sg4
VState.
p83
sg6
I2407
sg7
I2412
sa(dp84
g3
I0
sg4
VOlympic
p85
sg6
I2459
sg7
I2465
sa(dp86
g3
I0
sg4
VAchenbach
p87
sg6
I2488
sg7
I2496
sasI2
(lp88
(dp89
g3
I1
sg4
VMichigan State
p90
sg6
I478
sg7
I491
sa(dp91
g3
I0
sg4
VBig Ten
p92
sg6
I539
sg7
I545
sa(dp93
g3
I1
sg4
VMichigan State
p94
sg6
I745
sg7
I758
sa(dp95
g3
I0
sg4
VJenison Field
p96
sg6
I762
sg7
I774
sa(dp97
g3
I0
sg4
VField House
p98
sg6
I770
sg7
I780
sa(dp99
g3
I0
sg4
VCate Hannum
p100
sg6
I1455
sg7
I1465
sa(dp101
g3
I1
sg4
VMichigan State.
p102
sg6
I1593
sg7
I1607
sa(dp103
g3
I0
sg4
VCharla Burill
p104
sg6
I1746
sg7
I1758
sa(dp105
g3
I0
sg4
VLindsey Lemke
p106
sg6
I1903
sg7
I1915
sa(dp107
g3
I1
sg4
VMichigan State
p108
sg6
I2012
sg7
I2025
sa(dp109
g3
I0
sg4
VChristie Achenbach
p110
sg6
I2282
sg7
I2299
sa(dp111
g3
I1
sg4
VMichigan State.
p112
sg6
I2398
sg7
I2412
sasI3
(lp113
(dp114
g3
I0
sg4
VJenison Field House
p115
sg6
I762
sg7
I780
sasI4
(lp116
sI5
(lp117
sI6
(lp118
s.