(dp0
I1
(lp1
(dp2
S'label'
p3
I0
sS'string'
p4
VLindsey
p5
sS'start_index'
p6
I0
sS'end_index'
p7
I6
sa(dp8
g3
I0
sg4
VLemke
p9
sg6
I8
sg7
I12
sa(dp10
g3
I0
sg4
VMichigan
p11
sg6
I23
sg7
I30
sa(dp12
g3
I0
sg4
VState
p13
sg6
I32
sg7
I36
sa(dp14
g3
I0
sg4
VEast
p15
sg6
I93
sg7
I96
sa(dp16
g3
I0
sg4
VLansing
p17
sg6
I98
sg7
I104
sa(dp18
g3
I0
sg4
VJan.
p19
sg6
I109
sg7
I112
sa(dp20
g3
I0
sg4
VLemke
p21
sg6
I118
sg7
I122
sa(dp22
g3
I0
sg4
VNassar
p23
sg6
I133
sg7
I138
sa(dp24
g3
I0
sg4
VMichigan
p25
sg6
I223
sg7
I230
sa(dp26
g3
I0
sg4
VState.
p27
sg6
I232
sg7
I237
sa(dp28
g3
I0
sg4
VMichigan
p29
sg6
I292
sg7
I299
sa(dp30
g3
I0
sg4
VState
p31
sg6
I301
sg7
I305
sa(dp32
g3
I0
sg4
VTitle
p33
sg6
I403
sg7
I407
sa(dp34
g3
I0
sg4
VNassar
p35
sg6
I453
sg7
I458
sa(dp36
g3
I1
sg4
VMichigan
p37
sg6
I587
sg7
I594
sa(dp38
g3
I0
sg4
VMichigan
p39
sg6
I709
sg7
I716
sa(dp40
g3
I0
sg4
VState
p41
sg6
I718
sg7
I722
sa(dp42
g3
I0
sg4
VNassar
p43
sg6
I763
sg7
I768
sa(dp44
g3
I0
sg4
VKathie
p45
sg6
I891
sg7
I896
sa(dp46
g3
I0
sg4
VKlages
p47
sg6
I898
sg7
I903
sa(dp48
g3
I0
sg4
VNassar
p49
sg6
I920
sg7
I925
sa(dp50
g3
I0
sg4
VLemke
p51
sg6
I1030
sg7
I1034
sa(dp52
g3
I0
sg4
VKlages
p53
sg6
I1050
sg7
I1055
sa(dp54
g3
I0
sg4
VNassar
p55
sg6
I1109
sg7
I1114
sa(dp56
g3
I0
sg4
VIndianapolis
p57
sg6
I1183
sg7
I1194
sa(dp58
g3
I0
sg4
VStar.
p59
sg6
I1196
sg7
I1200
sa(dp60
g3
I0
sg4
VKlages
p61
sg6
I1202
sg7
I1207
sa(dp62
g3
I0
sg4
VLemke
p63
sg6
I1225
sg7
I1229
sasI2
(lp64
(dp65
g3
I0
sg4
VLindsey Lemke
p66
sg6
I0
sg7
I12
sa(dp67
g3
I1
sg4
VMichigan State
p68
sg6
I23
sg7
I36
sa(dp69
g3
I0
sg4
VEast Lansing
p70
sg6
I93
sg7
I104
sa(dp71
g3
I1
sg4
VMichigan State.
p72
sg6
I223
sg7
I237
sa(dp73
g3
I1
sg4
VMichigan State
p74
sg6
I292
sg7
I305
sa(dp75
g3
I0
sg4
VTitle IX
p76
sg6
I403
sg7
I410
sa(dp77
g3
I1
sg4
VMichigan State
p78
sg6
I709
sg7
I722
sa(dp79
g3
I0
sg4
VKathie Klages
p80
sg6
I891
sg7
I903
sa(dp81
g3
I0
sg4
VIndianapolis Star.
p82
sg6
I1183
sg7
I1200
sasI3
(lp83
sI4
(lp84
sI5
(lp85
sI6
(lp86
s.