(dp0
I1
(lp1
(dp2
S'label'
p3
I0
sS'string'
p4
VKlages
p5
sS'start_index'
p6
I22
sS'end_index'
p7
I27
sa(dp8
g3
I0
sg4
VAchenbach
p9
sg6
I68
sg7
I76
sa(dp10
g3
I0
sg4
VMichigan
p11
sg6
I131
sg7
I138
sa(dp12
g3
I0
sg4
VState
p13
sg6
I140
sg7
I144
sa(dp14
g3
I0
sg4
VNassar
p15
sg6
I180
sg7
I185
sa(dp16
g3
I0
sg4
VAchenbach
p17
sg6
I238
sg7
I246
sa(dp18
g3
I0
sg4
VHannum
p19
sg6
I248
sg7
I253
sa(dp20
g3
I0
sg4
VMichigan
p21
sg6
I272
sg7
I279
sa(dp22
g3
I0
sg4
VState.
p23
sg6
I281
sg7
I286
sa(dp24
g3
I0
sg4
VGrowing
p25
sg6
I288
sg7
I294
sa(dp26
g3
I0
sg4
VAndover
p27
sg6
I302
sg7
I308
sa(dp28
g3
I0
sg4
VMass.
p29
sg6
I310
sg7
I314
sa(dp30
g3
I0
sg4
VOlympic
p31
sg6
I341
sg7
I347
sa(dp32
g3
I0
sg4
VMichigan
p33
sg6
I368
sg7
I375
sa(dp34
g3
I0
sg4
VState
p35
sg6
I377
sg7
I381
sa(dp36
g3
I0
sg4
VBeginning
p37
sg6
I405
sg7
I413
sa(dp38
g3
I0
sg4
VMets
p39
sg6
I585
sg7
I588
sa(dp40
g3
I0
sg4
VMatt
p41
sg6
I598
sg7
I601
sa(dp42
g3
I0
sg4
VHarvey
p43
sg6
I603
sg7
I608
sa(dp44
g3
I0
sg4
VHannum
p45
sg6
I634
sg7
I639
sa(dp46
g3
I0
sg4
VNassar
p47
sg6
I690
sg7
I695
sa(dp48
g3
I0
sg4
VHannum
p49
sg6
I791
sg7
I796
sa(dp50
g3
I0
sg4
VNassar
p51
sg6
I807
sg7
I812
sa(dp52
g3
I0
sg4
VOther
p53
sg6
I989
sg7
I993
sa(dp54
g3
I0
sg4
VHannum
p55
sg6
I1006
sg7
I1011
sa(dp56
g3
I0
sg4
VNassar
p57
sg6
I1209
sg7
I1214
sa(dp58
g3
I0
sg4
VOlympic
p59
sg6
I1224
sg7
I1230
sa(dp60
g3
I0
sg4
VNassar
p61
sg6
I1310
sg7
I1315
sasI2
(lp62
(dp63
g3
I1
sg4
VMichigan State
p64
sg6
I131
sg7
I144
sa(dp65
g3
I0
sg4
VAchenbach Hannum
p66
sg6
I238
sg7
I253
sa(dp67
g3
I1
sg4
VMichigan State.
p68
sg6
I272
sg7
I286
sa(dp69
g3
I0
sg4
VAndover Mass.
p70
sg6
I302
sg7
I314
sa(dp71
g3
I1
sg4
VMichigan State
p72
sg6
I368
sg7
I381
sa(dp73
g3
I0
sg4
VMatt Harvey
p74
sg6
I598
sg7
I608
sasI3
(lp75
sI4
(lp76
sI5
(lp77
sI6
(lp78
s.