(dp0
I1
(lp1
(dp2
S'label'
p3
I0
sS'string'
p4
VMichigan
p5
sS'start_index'
p6
I53
sS'end_index'
p7
I60
sa(dp8
g3
I0
sg4
VState
p9
sg6
I62
sg7
I66
sa(dp10
g3
I0
sg4
VLawrence
p11
sg6
I100
sg7
I107
sa(dp12
g3
I0
sg4
VNassar.
p13
sg6
I112
sg7
I118
sa(dp14
g3
I0
sg4
VLife
p15
sg6
I199
sg7
I202
sa(dp16
g3
I0
sg4
VJulie
p17
sg6
I373
sg7
I377
sa(dp18
g3
I0
sg4
VScelfo
p19
sg6
I379
sg7
I384
sa(dp20
g3
I0
sg4
VKathryn
p21
sg6
I395
sg7
I401
sa(dp22
g3
I0
sg4
VDeWitt
p23
sg6
I403
sg7
I408
sa(dp24
g3
I0
sg4
VPennsylvania
p25
sg6
I447
sg7
I458
sa(dp26
g3
I0
sg4
VDeWitt
p27
sg6
I561
sg7
I566
sasI2
(lp28
(dp29
g3
I1
sg4
VMichigan State
p30
sg6
I53
sg7
I66
sa(dp31
g3
I0
sg4
VLawrence G.
p32
sg6
I100
sg7
I110
sa(dp33
g3
I0
sg4
VG. Nassar.
p34
sg6
I109
sg7
I118
sa(dp35
g3
I0
sg4
VEd Life
p36
sg6
I196
sg7
I202
sa(dp37
g3
I0
sg4
VJulie Scelfo
p38
sg6
I373
sg7
I384
sa(dp39
g3
I0
sg4
VKathryn DeWitt
p40
sg6
I395
sg7
I408
sasI3
(lp41
(dp42
g3
I0
sg4
VLawrence G. Nassar.
p43
sg6
I100
sg7
I118
sa(dp44
g3
I1
sg4
VUniversity of Pennsylvania
p45
sg6
I433
sg7
I458
sasI4
(lp46
sI5
(lp47
sI6
(lp48
s.