(dp0
I1
(lp1
(dp2
S'label'
p3
I0
sS'string'
p4
VMissouri
p5
sS'start_index'
p6
I115
sS'end_index'
p7
I122
sa(dp8
g3
I0
sg4
VJohn
p9
sg6
I124
sg7
I127
sa(dp10
g3
I0
sg4
VEligon
p11
sg6
I129
sg7
I134
sa(dp12
g3
I0
sg4
VHispanics
p13
sg6
I420
sg7
I428
sa(dp14
g3
I0
sg4
VDiversity
p15
sg6
I669
sg7
I677
sa(dp16
g3
I0
sg4
VJustice
p17
sg6
I770
sg7
I776
sa(dp18
g3
I0
sg4
VDepartment
p19
sg6
I778
sg7
I787
sa(dp20
g3
I0
sg4
VEthan
p21
sg6
I860
sg7
I864
sa(dp22
g3
I0
sg4
VBronner
p23
sg6
I866
sg7
I872
sa(dp24
g3
I0
sg4
VWisconsin
p25
sg6
I920
sg7
I928
sa(dp26
g3
I0
sg4
VHitler
p27
sg6
I979
sg7
I984
sa(dp28
g3
I0
sg4
VMein
p29
sg6
I988
sg7
I991
sa(dp30
g3
I0
sg4
VKampf
p31
sg6
I993
sg7
I997
sa(dp32
g3
I0
sg4
VJew
p33
sg6
I1032
sg7
I1034
sa(dp34
g3
I0
sg4
VCalifornia
p35
sg6
I1161
sg7
I1170
sa(dp36
g3
I0
sg4
VBowdoin
p37
sg6
I1175
sg7
I1181
sa(dp38
g3
I0
sg4
VMaine
p39
sg6
I1194
sg7
I1198
sa(dp40
g3
I0
sg4
VAmerican
p41
sg6
I1337
sg7
I1344
sasI2
(lp42
(dp43
g3
I0
sg4
VMissouri John
p44
sg6
I115
sg7
I127
sa(dp45
g3
I0
sg4
VJohn Eligon
p46
sg6
I124
sg7
I134
sa(dp47
g3
I0
sg4
VJustice Department
p48
sg6
I770
sg7
I787
sa(dp49
g3
I0
sg4
VEthan Bronner
p50
sg6
I860
sg7
I872
sa(dp51
g3
I0
sg4
VMein Kampf
p52
sg6
I988
sg7
I997
sa(dp53
g3
I1
sg4
VBowdoin College
p54
sg6
I1175
sg7
I1189
sasI3
(lp55
(dp56
g3
I1
sg4
VUniversity of Missouri
p57
sg6
I101
sg7
I122
sa(dp58
g3
I0
sg4
VMissouri John Eligon
p59
sg6
I115
sg7
I134
sa(dp60
g3
I1
sg4
VUniversity of Wisconsin
p61
sg6
I906
sg7
I928
sa(dp62
g3
I1
sg4
VUniversity of California
p63
sg6
I1147
sg7
I1170
sasI4
(lp64
(dp65
g3
I0
sg4
VUniversity of Missouri John
p66
sg6
I101
sg7
I127
sasI5
(lp67
(dp68
g3
I0
sg4
VUniversity of Missouri John Eligon
p69
sg6
I101
sg7
I134
sasI6
(lp70
s.