(dp0
I1
(lp1
(dp2
S'label'
p3
I0
sS'string'
p4
VPolicymakers
p5
sS'start_index'
p6
I0
sS'end_index'
p7
I11
sa(dp8
g3
I0
sg4
VMaureen
p9
sg6
I94
sg7
I100
sa(dp10
g3
I0
sg4
VHoyler
p11
sg6
I102
sg7
I107
sa(dp12
g3
I0
sg4
VCouncil
p13
sg6
I126
sg7
I132
sa(dp14
g3
I0
sg4
VOpportunity
p15
sg6
I138
sg7
I148
sa(dp16
g3
I0
sg4
VEducation
p17
sg6
I153
sg7
I161
sa(dp18
g3
I0
sg4
VFilling
p19
sg6
I625
sg7
I631
sa(dp20
g3
I0
sg4
VEnglish
p21
sg6
I712
sg7
I718
sa(dp22
g3
I0
sg4
VWeingarten
p23
sg6
I724
sg7
I733
sa(dp24
g3
I0
sg4
VHigher
p25
sg6
I1233
sg7
I1238
sa(dp26
g3
I0
sg4
VEducation
p27
sg6
I1240
sg7
I1248
sa(dp28
g3
I0
sg4
VSeptember.
p29
sg6
I1253
sg7
I1262
sa(dp30
g3
I1
sg4
VBowdoin
p31
sg6
I1453
sg7
I1459
sa(dp32
g3
I1
sg4
VTrinity
p33
sg6
I1465
sg7
I1471
sa(dp34
g3
I0
sg4
VPitzer
p35
sg6
I1540
sg7
I1545
sa(dp36
g3
I0
sg4
VWisconsin
p37
sg6
I1605
sg7
I1613
sa(dp38
g3
I1
sg4
VDuke
p39
sg6
I1686
sg7
I1689
sa(dp40
g3
I0
sg4
VCommon
p41
sg6
I1945
sg7
I1950
sa(dp42
g3
I0
sg4
VApplication
p43
sg6
I1952
sg7
I1962
sa(dp44
g3
I0
sg4
VCommon
p45
sg6
I2317
sg7
I2322
sa(dp46
g3
I0
sg4
VApplication
p47
sg6
I2324
sg7
I2334
sa(dp48
g3
I0
sg4
VWeingarten
p49
sg6
I2451
sg7
I2460
sa(dp50
g3
I0
sg4
VDNA
p51
sg6
I2688
sg7
I2690
sa(dp52
g3
I0
sg4
VWeingarten
p53
sg6
I2883
sg7
I2892
sa(dp54
g3
I0
sg4
VCertainly
p55
sg6
I3068
sg7
I3076
sa(dp56
g3
I0
sg4
VEast
p57
sg6
I3264
sg7
I3267
sa(dp58
g3
I0
sg4
VCoast
p59
sg6
I3269
sg7
I3273
sa(dp60
g3
I0
sg4
VPorsche.
p61
sg6
I3322
sg7
I3329
sa(dp62
g3
I0
sg4
VConceivably
p63
sg6
I3456
sg7
I3466
sa(dp64
g3
I0
sg4
VMinnesota
p65
sg6
I3538
sg7
I3546
sa(dp66
g3
I0
sg4
VFortune
p67
sg6
I3808
sg7
I3814
sa(dp68
g3
I0
sg4
VRobert
p69
sg6
I4113
sg7
I4118
sa(dp70
g3
I0
sg4
VKelchen
p71
sg6
I4120
sg7
I4126
sa(dp72
g3
I0
sg4
VSeton
p73
sg6
I4154
sg7
I4158
sa(dp74
g3
I0
sg4
VHall
p75
sg6
I4160
sg7
I4163
sa(dp76
g3
I0
sg4
VUniversity.
p77
sg6
I4165
sg7
I4175
sa(dp78
g3
I0
sg4
VOfficials
p79
sg6
I4261
sg7
I4269
sa(dp80
g3
I1
sg4
VHarvard
p81
sg6
I4598
sg7
I4604
sa(dp82
g3
I0
sg4
VWilliam
p83
sg6
I4654
sg7
I4660
sa(dp84
g3
I0
sg4
VFitzsimmons
p85
sg6
I4665
sg7
I4675
sa(dp86
g3
I0
sg4
VBrian
p87
sg6
I4953
sg7
I4957
sa(dp88
g3
I0
sg4
VTaylor
p89
sg6
I4959
sg7
I4964
sa(dp90
g3
I0
sg4
VCoach
p91
sg6
I4991
sg7
I4995
sa(dp92
g3
I0
sg4
VNew
p93
sg6
I4999
sg7
I5001
sa(dp94
g3
I0
sg4
VYork
p95
sg6
I5003
sg7
I5006
sa(dp96
g3
I0
sg4
VConfidential
p97
sg6
I5159
sg7
I5170
sa(dp98
g3
I0
sg4
VReddit
p99
sg6
I5176
sg7
I5181
sa(dp100
g3
I0
sg4
VKaplan
p101
sg6
I5406
sg7
I5411
sa(dp102
g3
I0
sg4
VUniversity.
p103
sg6
I5413
sg7
I5423
sa(dp104
g3
I1
sg4
VColumbia
p105
sg6
I5486
sg7
I5493
sa(dp106
g3
I0
sg4
VCyndy
p107
sg6
I5640
sg7
I5644
sa(dp108
g3
I0
sg4
VMcDonald
p109
sg6
I5646
sg7
I5653
sa(dp110
g3
I0
sg4
VVisalia
p111
sg6
I5671
sg7
I5677
sa(dp112
g3
I0
sg4
VCalif.
p113
sg6
I5679
sg7
I5684
sasI2
(lp114
(dp115
g3
I0
sg4
VMaureen Hoyler
p116
sg6
I94
sg7
I107
sa(dp117
g3
I0
sg4
VHigher Education
p118
sg6
I1233
sg7
I1248
sa(dp119
g3
I1
sg4
VPitzer College
p120
sg6
I1540
sg7
I1553
sa(dp121
g3
I0
sg4
VCommon Application
p122
sg6
I1945
sg7
I1962
sa(dp123
g3
I0
sg4
VCommon Application
p124
sg6
I2317
sg7
I2334
sa(dp125
g3
I0
sg4
VEast Coast
p126
sg6
I3264
sg7
I3273
sa(dp127
g3
I0
sg4
VRobert Kelchen
p128
sg6
I4113
sg7
I4126
sa(dp129
g3
I0
sg4
VSeton Hall
p130
sg6
I4154
sg7
I4163
sa(dp131
g3
I0
sg4
VHall University.
p132
sg6
I4160
sg7
I4175
sa(dp133
g3
I0
sg4
VWilliam R.
p134
sg6
I4654
sg7
I4663
sa(dp135
g3
I0
sg4
VR. Fitzsimmons
p136
sg6
I4662
sg7
I4675
sa(dp137
g3
I0
sg4
VBrian Taylor
p138
sg6
I4953
sg7
I4964
sa(dp139
g3
I0
sg4
VNew York
p140
sg6
I4999
sg7
I5006
sa(dp141
g3
I0
sg4
VCollege Confidential
p142
sg6
I5151
sg7
I5170
sa(dp143
g3
I1
sg4
VKaplan University.
p144
sg6
I5406
sg7
I5423
sa(dp145
g3
I0
sg4
VCyndy McDonald
p146
sg6
I5640
sg7
I5653
sa(dp147
g3
I0
sg4
VVisalia Calif.
p148
sg6
I5671
sg7
I5684
sasI3
(lp149
(dp150
g3
I0
sg4
VBowdoin and Trinity
p151
sg6
I1453
sg7
I1471
sa(dp152
g3
I1
sg4
VUniversity of Wisconsin
p153
sg6
I1591
sg7
I1613
sa(dp154
g3
I1
sg4
VSeton Hall University.
p155
sg6
I4154
sg7
I4175
sa(dp156
g3
I0
sg4
VWilliam R. Fitzsimmons
p157
sg6
I4654
sg7
I4675
sa(dp158
g3
I0
sg4
VConfidential and Reddit
p159
sg6
I5159
sg7
I5181
sasI4
(lp160
(dp161
g3
I0
sg4
VCollege Confidential and Reddit
p162
sg6
I5151
sg7
I5181
sasI5
(lp163
sI6
(lp164
s.