(dp0
I1
(lp1
(dp2
S'label'
p3
I0
sS'string'
p4
VFitzsimmons
p5
sS'start_index'
p6
I87
sS'end_index'
p7
I97
sa(dp8
g3
I0
sg4
VAnthony
p9
sg6
I305
sg7
I311
sa(dp10
g3
I0
sg4
VJack
p11
sg6
I316
sg7
I319
sa(dp12
g3
I1
sg4
VHarvard
p13
sg6
I323
sg7
I329
sa(dp14
g3
I0
sg4
VJack
p15
sg6
I696
sg7
I699
sa(dp16
g3
I0
sg4
VPennsylvania
p17
sg6
I851
sg7
I862
sa(dp18
g3
I0
sg4
VG.L.
p19
sg6
I882
sg7
I885
sa(dp20
g3
I1
sg4
VBrown
p21
sg6
I947
sg7
I951
sa(dp22
g3
I0
sg4
VGeneration
p23
sg6
I970
sg7
I979
sa(dp24
g3
I0
sg4
VLow
p25
sg6
I993
sg7
I995
sa(dp26
g3
I0
sg4
VIncome
p27
sg6
I997
sg7
I1002
sa(dp28
g3
I0
sg4
VCenter
p29
sg6
I1012
sg7
I1017
sa(dp30
g3
I0
sg4
VTomiko
p31
sg6
I1133
sg7
I1138
sa(dp32
g3
I0
sg4
VNagin
p33
sg6
I1140
sg7
I1144
sa(dp34
g3
I1
sg4
VHarvard
p35
sg6
I1148
sg7
I1154
sa(dp36
g3
I0
sg4
VPell
p37
sg6
I1411
sg7
I1414
sa(dp38
g3
I0
sg4
VChicago
p39
sg6
I1538
sg7
I1544
sa(dp40
g3
I0
sg4
VHigher
p41
sg6
I1584
sg7
I1589
sa(dp42
g3
I0
sg4
VEducation
p43
sg6
I1591
sg7
I1599
sa(dp44
g3
I0
sg4
VPolicy
p45
sg6
I1601
sg7
I1606
sa(dp46
g3
I0
sg4
VBill
p47
sg6
I1652
sg7
I1655
sa(dp48
g3
I0
sg4
V&amp
p49
sg6
I1657
sg7
I1660
sa(dp50
g3
I0
sg4
VMelinda
p51
sg6
I1662
sg7
I1668
sa(dp52
g3
I0
sg4
VGates
p53
sg6
I1670
sg7
I1674
sa(dp54
g3
I0
sg4
VFoundation
p55
sg6
I1676
sg7
I1685
sa(dp56
g3
I0
sg4
VMyth
p57
sg6
I2232
sg7
I2235
sa(dp58
g3
I0
sg4
VSTEM
p59
sg6
I2257
sg7
I2260
sa(dp60
g3
I0
sg4
VDouglas
p61
sg6
I2560
sg7
I2566
sa(dp62
g3
I0
sg4
VWebber
p63
sg6
I2571
sg7
I2576
sa(dp64
g3
I0
sg4
VTemple
p65
sg6
I2617
sg7
I2622
sa(dp66
g3
I0
sg4
VEnglish
p67
sg6
I2742
sg7
I2748
sasI2
(lp68
(dp69
g3
I0
sg4
VAnthony A.
p70
sg6
I305
sg7
I314
sa(dp71
g3
I0
sg4
VA. Jack
p72
sg6
I313
sg7
I319
sa(dp73
g3
I0
sg4
VF. G.L.
p74
sg6
I879
sg7
I885
sa(dp75
g3
I0
sg4
VG.L. I.
p76
sg6
I882
sg7
I888
sa(dp77
g3
I0
sg4
VGeneration College
p78
sg6
I970
sg7
I987
sa(dp79
g3
I0
sg4
VLow Income
p80
sg6
I993
sg7
I1002
sa(dp81
g3
I0
sg4
VTomiko Nagin
p82
sg6
I1133
sg7
I1144
sa(dp83
g3
I0
sg4
VHigher Education
p84
sg6
I1584
sg7
I1599
sa(dp85
g3
I0
sg4
VEducation Policy
p86
sg6
I1591
sg7
I1606
sa(dp87
g3
I0
sg4
VBill &amp
p88
sg6
I1652
sg7
I1660
sa(dp89
g3
I0
sg4
V&amp Melinda
p90
sg6
I1657
sg7
I1668
sa(dp91
g3
I0
sg4
VMelinda Gates
p92
sg6
I1662
sg7
I1674
sa(dp93
g3
I0
sg4
VGates Foundation
p94
sg6
I1670
sg7
I1685
sa(dp95
g3
I0
sg4
VDouglas A.
p96
sg6
I2560
sg7
I2569
sa(dp97
g3
I0
sg4
VA. Webber
p98
sg6
I2568
sg7
I2576
sa(dp99
g3
I1
sg4
VTemple University
p100
sg6
I2617
sg7
I2633
sasI3
(lp101
(dp102
g3
I0
sg4
VAnthony A. Jack
p103
sg6
I305
sg7
I319
sa(dp104
g3
I1
sg4
VUniversity of Pennsylvania
p105
sg6
I837
sg7
I862
sa(dp106
g3
I0
sg4
VF. G.L. I.
p107
sg6
I879
sg7
I888
sa(dp108
g3
I0
sg4
VCollege and Low
p109
sg6
I981
sg7
I995
sa(dp110
g3
I1
sg4
VUniversity of Chicago
p111
sg6
I1524
sg7
I1544
sa(dp112
g3
I0
sg4
VHigher Education Policy
p113
sg6
I1584
sg7
I1606
sa(dp114
g3
I0
sg4
VBill &amp Melinda
p115
sg6
I1652
sg7
I1668
sa(dp116
g3
I0
sg4
V&amp Melinda Gates
p117
sg6
I1657
sg7
I1674
sa(dp118
g3
I0
sg4
VMelinda Gates Foundation
p119
sg6
I1662
sg7
I1685
sa(dp120
g3
I0
sg4
VDouglas A. Webber
p121
sg6
I2560
sg7
I2576
sasI4
(lp122
(dp123
g3
I0
sg4
VGeneration College and Low
p124
sg6
I970
sg7
I995
sa(dp125
g3
I0
sg4
VCollege and Low Income
p126
sg6
I981
sg7
I1002
sa(dp127
g3
I0
sg4
VBill &amp Melinda Gates
p128
sg6
I1652
sg7
I1674
sa(dp129
g3
I0
sg4
V&amp Melinda Gates Foundation
p130
sg6
I1657
sg7
I1685
sasI5
(lp131
(dp132
g3
I0
sg4
VGeneration College and Low Income
p133
sg6
I970
sg7
I1002
sa(dp134
g3
I0
sg4
VBill &amp Melinda Gates Foundation
p135
sg6
I1652
sg7
I1685
sasI6
(lp136
s.