(dp0
I1
(lp1
(dp2
S'label'
p3
I1
sS'string'
p4
VMIT
p5
sS'start_index'
p6
I16
sS'end_index'
p7
I18
sa(dp8
g3
I0
sg4
VDigital
p9
sg6
I22
sg7
I28
sa(dp10
g3
I0
sg4
VCurrency
p11
sg6
I30
sg7
I37
sa(dp12
g3
I0
sg4
VInitiative
p13
sg6
I39
sg7
I48
sa(dp14
g3
I0
sg4
VNeha
p15
sg6
I50
sg7
I53
sa(dp16
g3
I0
sg4
VNarula
p17
sg6
I55
sg7
I60
sa(dp18
g3
I0
sg4
VControversies
p19
sg6
I310
sg7
I322
sa(dp20
g3
I0
sg4
VErwin
p21
sg6
I502
sg7
I506
sa(dp22
g3
I0
sg4
VChemerinsky
p23
sg6
I508
sg7
I518
sa(dp24
g3
I0
sg4
VFree
p25
sg6
I531
sg7
I534
sa(dp26
g3
I0
sg4
VSpeech
p27
sg6
I536
sg7
I541
sa(dp28
g3
I0
sg4
VCampus
p29
sg6
I546
sg7
I551
sa(dp30
g3
I0
sg4
VHoward
p31
sg6
I566
sg7
I571
sa(dp32
g3
I0
sg4
VGillman.
p33
sg6
I573
sg7
I580
sa(dp34
g3
I0
sg4
VChemerinsky
p35
sg6
I586
sg7
I596
sa(dp36
g3
I0
sg4
VAmendment
p37
sg6
I658
sg7
I666
sa(dp38
g3
I0
sg4
VCalifornia
p39
sg6
I770
sg7
I779
sa(dp40
g3
I0
sg4
VBerkeley
p41
sg6
I781
sg7
I788
sa(dp42
g3
I0
sg4
VNatalie
p43
sg6
I824
sg7
I830
sa(dp44
g3
I0
sg4
VShutler
p45
sg6
I832
sg7
I838
sa(dp46
g3
I0
sg4
VCampus
p47
sg6
I861
sg7
I866
sa(dp48
g3
I0
sg4
VNatalie
p49
sg6
I986
sg7
I992
sa(dp50
g3
I0
sg4
VShutler
p51
sg6
I994
sg7
I1000
sasI2
(lp52
(dp53
g3
I0
sg4
VDigital Currency
p54
sg6
I22
sg7
I37
sa(dp55
g3
I0
sg4
VCurrency Initiative
p56
sg6
I30
sg7
I48
sa(dp57
g3
I0
sg4
VInitiative Neha
p58
sg6
I39
sg7
I53
sa(dp59
g3
I0
sg4
VNeha Narula
p60
sg6
I50
sg7
I60
sa(dp61
g3
I0
sg4
VErwin Chemerinsky
p62
sg6
I502
sg7
I518
sa(dp63
g3
I0
sg4
VFree Speech
p64
sg6
I531
sg7
I541
sa(dp65
g3
I0
sg4
VHoward Gillman.
p66
sg6
I566
sg7
I580
sa(dp67
g3
I0
sg4
VCalifornia Berkeley
p68
sg6
I770
sg7
I788
sa(dp69
g3
I0
sg4
VNatalie Shutler
p70
sg6
I824
sg7
I838
sa(dp71
g3
I0
sg4
VNatalie Shutler
p72
sg6
I986
sg7
I1000
sa(dp73
g3
I0
sg4
VShutler Hi
p74
sg6
I994
sg7
I1003
sasI3
(lp75
(dp76
g3
I0
sg4
VDigital Currency Initiative
p77
sg6
I22
sg7
I48
sa(dp78
g3
I0
sg4
VCurrency Initiative Neha
p79
sg6
I30
sg7
I53
sa(dp80
g3
I0
sg4
VInitiative Neha Narula
p81
sg6
I39
sg7
I60
sa(dp82
g3
I0
sg4
VUniversity of California
p83
sg6
I756
sg7
I779
sa(dp84
g3
I0
sg4
VNatalie Shutler Hi
p85
sg6
I986
sg7
I1003
sasI4
(lp86
(dp87
g3
I0
sg4
VDigital Currency Initiative Neha
p88
sg6
I22
sg7
I53
sa(dp89
g3
I0
sg4
VCurrency Initiative Neha Narula
p90
sg6
I30
sg7
I60
sa(dp91
g3
I1
sg4
VUniversity of California Berkeley
p92
sg6
I756
sg7
I788
sasI5
(lp93
(dp94
g3
I0
sg4
VDigital Currency Initiative Neha Narula
p95
sg6
I22
sg7
I60
sasI6
(lp96
s.