(dp0
I1
(lp1
(dp2
S'label'
p3
I0
sS'string'
p4
VTake
p5
sS'start_index'
p6
I0
sS'end_index'
p7
I3
sa(dp8
g3
I0
sg4
VEnglish
p9
sg6
I399
sg7
I405
sa(dp10
g3
I0
sg4
VMyth
p11
sg6
I535
sg7
I538
sa(dp12
g3
I0
sg4
VWomen
p13
sg6
I542
sg7
I546
sa(dp14
g3
I0
sg4
VWomen
p15
sg6
I569
sg7
I573
sa(dp16
g3
I0
sg4
VGeorgetown
p17
sg6
I894
sg7
I903
sa(dp18
g3
I0
sg4
VCenter
p19
sg6
I918
sg7
I923
sa(dp20
g3
I0
sg4
VEducation
p21
sg6
I928
sg7
I936
sa(dp22
g3
I0
sg4
VWorkforce
p23
sg6
I946
sg7
I954
sa(dp24
g3
I0
sg4
VJust
p25
sg6
I986
sg7
I989
sa(dp26
g3
I0
sg4
VWomen
p27
sg6
I1238
sg7
I1242
sa(dp28
g3
I0
sg4
VAnthony
p29
sg6
I1316
sg7
I1322
sa(dp30
g3
I0
sg4
VCarnevale
p31
sg6
I1327
sg7
I1335
sa(dp32
g3
I1
sg4
VGeorgetown
p33
sg6
I1353
sg7
I1362
sa(dp34
g3
I0
sg4
VCarnevale
p35
sg6
I1376
sg7
I1384
sa(dp36
g3
I0
sg4
VMyth
p37
sg6
I1688
sg7
I1691
sa(dp38
g3
I0
sg4
VChoice
p39
sg6
I1695
sg7
I1700
sa(dp40
g3
I0
sg4
VArkansas
p41
sg6
I1772
sg7
I1779
sa(dp42
g3
I0
sg4
VColorado
p43
sg6
I1781
sg7
I1788
sa(dp44
g3
I0
sg4
VMinnesota
p45
sg6
I1790
sg7
I1798
sa(dp46
g3
I0
sg4
VTennessee
p47
sg6
I1800
sg7
I1808
sa(dp48
g3
I0
sg4
VTexas
p49
sg6
I1810
sg7
I1814
sa(dp50
g3
I0
sg4
VVirginia
p51
sg6
I1816
sg7
I1823
sa(dp52
g3
I0
sg4
VWashington
p53
sg6
I1829
sg7
I1838
sa(dp54
g3
I0
sg4
VArts
p55
sg6
I2330
sg7
I2333
sa(dp56
g3
I0
sg4
VFiveThirtyEight
p57
sg6
I2693
sg7
I2707
sa(dp58
g3
I0
sg4
VBarron
p59
sg6
I2745
sg7
I2750
sa(dp60
g3
I0
sg4
VCarnevale
p61
sg6
I3064
sg7
I3072
sa(dp62
g3
I0
sg4
VComplementary
p63
sg6
I3263
sg7
I3275
sa(dp64
g3
I0
sg4
VRichard
p65
sg6
I3411
sg7
I3417
sa(dp66
g3
I0
sg4
VPitt
p67
sg6
I3422
sg7
I3425
sa(dp68
g3
I0
sg4
VVanderbilt
p69
sg6
I3466
sg7
I3475
sa(dp70
g3
I0
sg4
VMyth
p71
sg6
I3582
sg7
I3585
sa(dp72
g3
I0
sg4
VLiberal
p73
sg6
I3589
sg7
I3595
sa(dp74
g3
I0
sg4
VKentucky
p75
sg6
I3730
sg7
I3737
sa(dp76
g3
I0
sg4
VMatt
p77
sg6
I3739
sg7
I3742
sa(dp78
g3
I0
sg4
VBevin.
p79
sg6
I3744
sg7
I3749
sa(dp80
g3
I0
sg4
VGod
p81
sg6
I3789
sg7
I3791
sa(dp82
g3
I0
sg4
VAmerica
p83
sg6
I3846
sg7
I3852
sa(dp84
g3
I0
sg4
VGovernor
p85
sg6
I3898
sg7
I3905
sa(dp86
g3
I0
sg4
VBevin
p87
sg6
I3907
sg7
I3911
sa(dp88
g3
I0
sg4
VSeptember.
p89
sg6
I3933
sg7
I3942
sa(dp90
g3
I0
sg4
VInterpretive
p91
sg6
I3944
sg7
I3955
sa(dp92
g3
I0
sg4
VDavid
p93
sg6
I4121
sg7
I4125
sa(dp94
g3
I0
sg4
VDeming
p95
sg6
I4130
sg7
I4135
sa(dp96
g3
I1
sg4
VHarvard
p97
sg6
I4190
sg7
I4196
sa(dp98
g3
I0
sg4
VBurning
p99
sg6
I4437
sg7
I4443
sa(dp100
g3
I0
sg4
VGlass
p101
sg6
I4445
sg7
I4449
sa(dp102
g3
I0
sg4
VTechnologies
p103
sg6
I4451
sg7
I4462
sa(dp104
g3
I0
sg4
VBoston
p105
sg6
I4466
sg7
I4471
sa(dp106
g3
I0
sg4
VGeorge
p107
sg6
I4927
sg7
I4932
sa(dp108
g3
I0
sg4
VAnders
p109
sg6
I4934
sg7
I4939
sa(dp110
g3
I0
sg4
VCan
p111
sg6
I4955
sg7
I4957
sa(dp112
g3
I0
sg4
VSurprising
p113
sg6
I4975
sg7
I4984
sa(dp114
g3
I0
sg4
VPower
p115
sg6
I4986
sg7
I4990
sa(dp116
g3
I0
sg4
VUseless
p117
sg6
I4997
sg7
I5003
sa(dp118
g3
I0
sg4
VLiberal
p119
sg6
I5005
sg7
I5011
sa(dp120
g3
I0
sg4
VArts
p121
sg6
I5013
sg7
I5016
sa(dp122
g3
I0
sg4
VEducation.
p123
sg6
I5018
sg7
I5027
sa(dp124
g3
I0
sg4
VAnders
p125
sg6
I5045
sg7
I5050
sa(dp126
g3
I0
sg4
VE.O.
p127
sg6
I5189
sg7
I5192
sa(dp128
g3
I0
sg4
VAnders
p129
sg6
I5237
sg7
I5242
sasI2
(lp130
(dp131
g3
I1
sg4
VGeorgetown University
p132
sg6
I894
sg7
I914
sa(dp133
g3
I0
sg4
V. Women
p134
sg6
I1236
sg7
I1242
sa(dp135
g3
I0
sg4
VAnthony P.
p136
sg6
I1316
sg7
I1325
sa(dp137
g3
I0
sg4
VP. Carnevale
p138
sg6
I1324
sg7
I1335
sa(dp139
g3
I0
sg4
VArkansas Colorado
p140
sg6
I1772
sg7
I1788
sa(dp141
g3
I0
sg4
VColorado Minnesota
p142
sg6
I1781
sg7
I1798
sa(dp143
g3
I0
sg4
VMinnesota Tennessee
p144
sg6
I1790
sg7
I1808
sa(dp145
g3
I0
sg4
VTennessee Texas
p146
sg6
I1800
sg7
I1814
sa(dp147
g3
I0
sg4
VTexas Virginia
p148
sg6
I1810
sg7
I1823
sa(dp149
g3
I0
sg4
VRichard N.
p150
sg6
I3411
sg7
I3420
sa(dp151
g3
I0
sg4
VN. Pitt
p152
sg6
I3419
sg7
I3425
sa(dp153
g3
I1
sg4
VVanderbilt University
p154
sg6
I3466
sg7
I3486
sa(dp155
g3
I0
sg4
VKentucky Matt
p156
sg6
I3730
sg7
I3742
sa(dp157
g3
I0
sg4
VMatt Bevin.
p158
sg6
I3739
sg7
I3749
sa(dp159
g3
I0
sg4
VGovernor Bevin
p160
sg6
I3898
sg7
I3911
sa(dp161
g3
I0
sg4
VDavid J.
p162
sg6
I4121
sg7
I4128
sa(dp163
g3
I0
sg4
VJ. Deming
p164
sg6
I4127
sg7
I4135
sa(dp165
g3
I0
sg4
VBurning Glass
p166
sg6
I4437
sg7
I4449
sa(dp167
g3
I0
sg4
VGlass Technologies
p168
sg6
I4445
sg7
I4462
sa(dp169
g3
I0
sg4
VGeorge Anders
p170
sg6
I4927
sg7
I4939
sa(dp171
g3
I0
sg4
VCan Do
p172
sg6
I4955
sg7
I4960
sa(dp173
g3
I0
sg4
VSurprising Power
p174
sg6
I4975
sg7
I4990
sa(dp175
g3
I0
sg4
VUseless Liberal
p176
sg6
I4997
sg7
I5011
sa(dp177
g3
I0
sg4
VLiberal Arts
p178
sg6
I5005
sg7
I5016
sa(dp179
g3
I0
sg4
VArts Education.
p180
sg6
I5013
sg7
I5027
sa(dp181
g3
I0
sg4
VC. E.O.
p182
sg6
I5186
sg7
I5192
sasI3
(lp183
(dp184
g3
I0
sg4
VAnthony P. Carnevale
p185
sg6
I1316
sg7
I1335
sa(dp186
g3
I0
sg4
VArkansas Colorado Minnesota
p187
sg6
I1772
sg7
I1798
sa(dp188
g3
I0
sg4
VColorado Minnesota Tennessee
p189
sg6
I1781
sg7
I1808
sa(dp190
g3
I0
sg4
VMinnesota Tennessee Texas
p191
sg6
I1790
sg7
I1814
sa(dp192
g3
I0
sg4
VTennessee Texas Virginia
p193
sg6
I1800
sg7
I1823
sa(dp194
g3
I0
sg4
VVirginia and Washington
p195
sg6
I1816
sg7
I1838
sa(dp196
g3
I0
sg4
VRichard N. Pitt
p197
sg6
I3411
sg7
I3425
sa(dp198
g3
I0
sg4
VKentucky Matt Bevin.
p199
sg6
I3730
sg7
I3749
sa(dp200
g3
I0
sg4
VDavid J. Deming
p201
sg6
I4121
sg7
I4135
sa(dp202
g3
I0
sg4
VBurning Glass Technologies
p203
sg6
I4437
sg7
I4462
sa(dp204
g3
I0
sg4
VUseless Liberal Arts
p205
sg6
I4997
sg7
I5016
sa(dp206
g3
I0
sg4
VLiberal Arts Education.
p207
sg6
I5005
sg7
I5027
sasI4
(lp208
(dp209
g3
I0
sg4
VArkansas Colorado Minnesota Tennessee
p210
sg6
I1772
sg7
I1808
sa(dp211
g3
I0
sg4
VColorado Minnesota Tennessee Texas
p212
sg6
I1781
sg7
I1814
sa(dp213
g3
I0
sg4
VMinnesota Tennessee Texas Virginia
p214
sg6
I1790
sg7
I1823
sa(dp215
g3
I0
sg4
VTexas Virginia and Washington
p216
sg6
I1810
sg7
I1838
sa(dp217
g3
I0
sg4
VUseless Liberal Arts Education.
p218
sg6
I4997
sg7
I5027
sasI5
(lp219
(dp220
g3
I0
sg4
VArkansas Colorado Minnesota Tennessee Texas
p221
sg6
I1772
sg7
I1814
sa(dp222
g3
I0
sg4
VColorado Minnesota Tennessee Texas Virginia
p223
sg6
I1781
sg7
I1823
sa(dp224
g3
I0
sg4
VTennessee Texas Virginia and Washington
p225
sg6
I1800
sg7
I1838
sasI6
(lp226
(dp227
g3
I0
sg4
VArkansas Colorado Minnesota Tennessee Texas Virginia
p228
sg6
I1772
sg7
I1823
sa(dp229
g3
I0
sg4
VMinnesota Tennessee Texas Virginia and Washington
p230
sg6
I1790
sg7
I1838
sas.