(dp0
I1
(lp1
(dp2
S'label'
p3
I0
sS'string'
p4
VMyth
p5
sS'start_index'
p6
I0
sS'end_index'
p7
I3
sa(dp8
g3
I0
sg4
VWhy
p9
sg6
I47
sg7
I49
sa(dp10
g3
I0
sg4
VCalifornia
p11
sg6
I398
sg7
I407
sa(dp12
g3
I0
sg4
VLos
p13
sg6
I409
sg7
I411
sa(dp14
g3
I0
sg4
VAngeles.
p15
sg6
I413
sg7
I420
sa(dp16
g3
I0
sg4
VChanging
p17
sg6
I422
sg7
I429
sa(dp18
g3
I0
sg4
VArizona
p19
sg6
I579
sg7
I585
sa(dp20
g3
I0
sg4
VState
p21
sg6
I587
sg7
I591
sa(dp22
g3
I0
sg4
VGeorgia
p23
sg6
I604
sg7
I610
sa(dp24
g3
I0
sg4
VState
p25
sg6
I612
sg7
I616
sa(dp26
g3
I0
sg4
VLehman
p27
sg6
I633
sg7
I638
sa(dp28
g3
I0
sg4
VBronx
p29
sg6
I655
sg7
I659
sa(dp30
g3
I0
sg4
VTimothy
p31
sg6
I828
sg7
I834
sa(dp32
g3
I0
sg4
VRenick
p33
sg6
I836
sg7
I841
sa(dp34
g3
I0
sg4
VGeorgia
p35
sg6
I843
sg7
I849
sa(dp36
g3
I0
sg4
VState
p37
sg6
I851
sg7
I855
sa(dp38
g3
I0
sg4
VSTEM.
p39
sg6
I1086
sg7
I1090
sa(dp40
g3
I0
sg4
VProgramming
p41
sg6
I1225
sg7
I1235
sa(dp42
g3
I0
sg4
VRenick
p43
sg6
I1512
sg7
I1517
sa(dp44
g3
I0
sg4
VMyth
p45
sg6
I1573
sg7
I1576
sa(dp46
g3
I0
sg4
VIndiana
p47
sg6
I1630
sg7
I1636
sa(dp48
g3
I0
sg4
VEvergreen
p49
sg6
I1657
sg7
I1665
sa(dp50
g3
I0
sg4
VState
p51
sg6
I1667
sg7
I1671
sa(dp52
g3
I0
sg4
VWill
p53
sg6
I1766
sg7
I1769
sa(dp54
g3
I0
sg4
VShortz
p55
sg6
I1771
sg7
I1776
sa(dp56
g3
I0
sg4
VTimes
p57
sg6
I1814
sg7
I1818
sa(dp58
g3
I1
sg4
VIndiana
p59
sg6
I1836
sg7
I1842
sa(dp60
g3
I0
sg4
VMajors
p61
sg6
I1858
sg7
I1863
sa(dp62
g3
I0
sg4
VChristine
p63
sg6
I1901
sg7
I1909
sa(dp64
g3
I0
sg4
VOrtiz
p65
sg6
I1911
sg7
I1915
sa(dp66
g3
I0
sg4
VMassachusetts
p67
sg6
I1931
sg7
I1943
sa(dp68
g3
I0
sg4
VTechnology
p69
sg6
I1958
sg7
I1967
sa(dp70
g3
I0
sg4
VMajors
p71
sg6
I2076
sg7
I2081
sa(dp72
g3
I0
sg4
VWebber
p73
sg6
I2282
sg7
I2287
sa(dp74
g3
I1
sg4
VTemple
p75
sg6
I2292
sg7
I2297
sasI2
(lp76
(dp77
g3
I0
sg4
VCalifornia Los
p78
sg6
I398
sg7
I411
sa(dp79
g3
I0
sg4
VLos Angeles.
p80
sg6
I409
sg7
I420
sa(dp81
g3
I0
sg4
VArizona State
p82
sg6
I579
sg7
I591
sa(dp83
g3
I0
sg4
VState University
p84
sg6
I587
sg7
I602
sa(dp85
g3
I0
sg4
VUniversity Georgia
p86
sg6
I593
sg7
I610
sa(dp87
g3
I0
sg4
VGeorgia State
p88
sg6
I604
sg7
I616
sa(dp89
g3
I0
sg4
VState University
p90
sg6
I612
sg7
I627
sa(dp91
g3
I1
sg4
VLehman College
p92
sg6
I633
sg7
I646
sa(dp93
g3
I0
sg4
VTimothy Renick
p94
sg6
I828
sg7
I841
sa(dp95
g3
I0
sg4
VRenick Georgia
p96
sg6
I836
sg7
I849
sa(dp97
g3
I1
sg4
VGeorgia State
p98
sg6
I843
sg7
I855
sa(dp99
g3
I1
sg4
VIndiana University
p100
sg6
I1630
sg7
I1647
sa(dp101
g3
I0
sg4
VEvergreen State
p102
sg6
I1657
sg7
I1671
sa(dp103
g3
I0
sg4
VState College
p104
sg6
I1667
sg7
I1679
sa(dp105
g3
I0
sg4
VWill Shortz
p106
sg6
I1766
sg7
I1776
sa(dp107
g3
I0
sg4
VChristine Ortiz
p108
sg6
I1901
sg7
I1915
sa(dp109
g3
I0
sg4
VMassachusetts Institute
p110
sg6
I1931
sg7
I1953
sasI3
(lp111
(dp112
g3
I0
sg4
VUniversity of California
p113
sg6
I384
sg7
I407
sa(dp114
g3
I0
sg4
VCalifornia Los Angeles.
p115
sg6
I398
sg7
I420
sa(dp116
g3
I1
sg4
VArizona State University
p117
sg6
I579
sg7
I602
sa(dp118
g3
I0
sg4
VState University Georgia
p119
sg6
I587
sg7
I610
sa(dp120
g3
I0
sg4
VUniversity Georgia State
p121
sg6
I593
sg7
I616
sa(dp122
g3
I1
sg4
VGeorgia State University
p123
sg6
I604
sg7
I627
sa(dp124
g3
I0
sg4
VUniversity and Lehman
p125
sg6
I618
sg7
I638
sa(dp126
g3
I0
sg4
VTimothy Renick Georgia
p127
sg6
I828
sg7
I849
sa(dp128
g3
I0
sg4
VRenick Georgia State
p129
sg6
I836
sg7
I855
sa(dp130
g3
I1
sg4
VEvergreen State College
p131
sg6
I1657
sg7
I1679
sa(dp132
g3
I0
sg4
VInstitute of Technology
p133
sg6
I1945
sg7
I1967
sa(dp134
g3
I0
sg4
VWebber of Temple
p135
sg6
I2282
sg7
I2297
sasI4
(lp136
(dp137
g3
I0
sg4
VUniversity of California Los
p138
sg6
I384
sg7
I411
sa(dp139
g3
I0
sg4
VArizona State University Georgia
p140
sg6
I579
sg7
I610
sa(dp141
g3
I0
sg4
VState University and Lehman
p142
sg6
I612
sg7
I638
sa(dp143
g3
I0
sg4
VTimothy Renick Georgia State
p144
sg6
I828
sg7
I855
sa(dp145
g3
I1
sg4
VMassachusetts Institute of Technology
p146
sg6
I1931
sg7
I1967
sasI5
(lp147
(dp148
g3
I1
sg4
VUniversity of California Los Angeles.
p149
sg6
I384
sg7
I420
sa(dp150
g3
I0
sg4
VGeorgia State University and Lehman
p151
sg6
I604
sg7
I638
sasI6
(lp152
s.