(dp0
I1
(lp1
(dp2
S'label'
p3
I0
sS'string'
p4
VAndrea
p5
sS'start_index'
p6
I32
sS'end_index'
p7
I37
sa(dp8
g3
I0
sg4
VCote
p9
sg6
I39
sg7
I42
sa(dp10
g3
I0
sg4
VBotero
p11
sg6
I44
sg7
I49
sa(dp12
g3
I0
sg4
VEnglish
p13
sg6
I70
sg7
I76
sa(dp14
g3
I0
sg4
VSpanish
p15
sg6
I82
sg7
I88
sa(dp16
g3
I0
sg4
VCiudad
p17
sg6
I168
sg7
I173
sa(dp18
g3
I0
sg4
VF.A.
p19
sg6
I225
sg7
I228
sa(dp20
g3
I0
sg4
VTexas
p21
sg6
I276
sg7
I280
sa(dp22
g3
I0
sg4
VPaso
p23
sg6
I288
sg7
I291
sa(dp24
g3
I0
sg4
VScott
p25
sg6
I335
sg7
I339
sa(dp26
g3
I0
sg4
VFitzgerald
p27
sg6
I341
sg7
I350
sa(dp28
g3
I0
sg4
VGabriel
p29
sg6
I356
sg7
I362
sa(dp30
g3
I0
sg4
VGarc
p31
sg6
I364
sg7
I367
sa(dp32
g3
I0
sg4
VWest
p33
sg6
I386
sg7
I389
sa(dp34
g3
I0
sg4
VEgg
p35
sg6
I391
sg7
I393
sa(dp36
g3
I0
sg4
VMacondo
p37
sg6
I399
sg7
I405
sa(dp38
g3
I0
sg4
VSpanish
p39
sg6
I505
sg7
I511
sa(dp40
g3
I0
sg4
VEnglish
p41
sg6
I579
sg7
I585
sa(dp42
g3
I0
sg4
VCote
p43
sg6
I601
sg7
I604
sa(dp44
g3
I0
sg4
VBotero
p45
sg6
I606
sg7
I611
sa(dp46
g3
I0
sg4
VMexico
p47
sg6
I685
sg7
I690
sa(dp48
g3
I0
sg4
VCity
p49
sg6
I692
sg7
I695
sa(dp50
g3
I0
sg4
VLas
p51
sg6
I719
sg7
I721
sa(dp52
g3
I0
sg4
VVegas
p53
sg6
I723
sg7
I727
sa(dp54
g3
I0
sg4
VFitzgerald
p55
sg6
I745
sg7
I754
sa(dp56
g3
I0
sg4
VGreat
p57
sg6
I758
sg7
I762
sa(dp58
g3
I0
sg4
VGatsby
p59
sg6
I764
sg7
I769
sa(dp60
g3
I0
sg4
VGoogle
p61
sg6
I796
sg7
I801
sa(dp62
g3
I0
sg4
VTranslate
p63
sg6
I803
sg7
I811
sa(dp64
g3
I0
sg4
VPaso
p65
sg6
I829
sg7
I832
sa(dp66
g3
I0
sg4
VMasters
p67
sg6
I836
sg7
I842
sa(dp68
g3
I0
sg4
VFine
p69
sg6
I847
sg7
I850
sa(dp70
g3
I0
sg4
VArts
p71
sg6
I852
sg7
I855
sa(dp72
g3
I0
sg4
VSpanish
p73
sg6
I979
sg7
I985
sa(dp74
g3
I0
sg4
VEnglish
p75
sg6
I1024
sg7
I1030
sa(dp76
g3
I0
sg4
VSpanish.
p77
sg6
I1036
sg7
I1043
sa(dp78
g3
I0
sg4
VTexan
p79
sg6
I1183
sg7
I1187
sa(dp80
g3
I0
sg4
VPalestinian
p81
sg6
I1192
sg7
I1202
sa(dp82
g3
I0
sg4
VArabic.
p83
sg6
I1270
sg7
I1276
sa(dp84
g3
I0
sg4
VPaso
p85
sg6
I1287
sg7
I1290
sa(dp86
g3
I0
sg4
VSpanish
p87
sg6
I1397
sg7
I1403
sa(dp88
g3
I0
sg4
VSpanish
p89
sg6
I1478
sg7
I1484
sa(dp90
g3
I0
sg4
VUnited
p91
sg6
I1548
sg7
I1553
sa(dp92
g3
I0
sg4
VStates
p93
sg6
I1555
sg7
I1560
sa(dp94
g3
I0
sg4
VCensus
p95
sg6
I1602
sg7
I1607
sa(dp96
g3
I0
sg4
VBureau
p97
sg6
I1609
sg7
I1614
sa(dp98
g3
I0
sg4
VHurricane
p99
sg6
I1653
sg7
I1661
sa(dp100
g3
I0
sg4
VHarvey
p101
sg6
I1663
sg7
I1668
sa(dp102
g3
I0
sg4
VHouston
p103
sg6
I1702
sg7
I1708
sa(dp104
g3
I0
sg4
VPh.
p105
sg6
I1720
sg7
I1722
sa(dp106
g3
I0
sg4
VSpanish
p107
sg6
I1734
sg7
I1740
sa(dp108
g3
I1
sg4
VHouston
p109
sg6
I1958
sg7
I1964
sa(dp110
g3
I0
sg4
VCristina
p111
sg6
I1977
sg7
I1984
sa(dp112
g3
I0
sg4
VRivera
p113
sg6
I1986
sg7
I1991
sa(dp114
g3
I0
sg4
VGarza
p115
sg6
I1993
sg7
I1997
sa(dp116
g3
I0
sg4
VUnited
p117
sg6
I2136
sg7
I2141
sa(dp118
g3
I0
sg4
VStates.
p119
sg6
I2143
sg7
I2149
sa(dp120
g3
I1
sg4
VHouston
p121
sg6
I2155
sg7
I2161
sa(dp122
g3
I0
sg4
VCal
p123
sg6
I2167
sg7
I2169
sa(dp124
g3
I0
sg4
VState
p125
sg6
I2171
sg7
I2175
sa(dp126
g3
I0
sg4
VHispanic
p127
sg6
I2240
sg7
I2247
sa(dp128
g3
I1
sg4
VHouston
p129
sg6
I2261
sg7
I2267
sa(dp130
g3
I0
sg4
VLos
p131
sg6
I2320
sg7
I2322
sa(dp132
g3
I0
sg4
VAngeles
p133
sg6
I2324
sg7
I2330
sa(dp134
g3
I0
sg4
VCounty
p135
sg6
I2332
sg7
I2337
sa(dp136
g3
I0
sg4
VCal
p137
sg6
I2360
sg7
I2362
sa(dp138
g3
I0
sg4
VState
p139
sg6
I2364
sg7
I2368
sa(dp140
g3
I0
sg4
VAlex
p141
sg6
I2389
sg7
I2392
sa(dp142
g3
I0
sg4
VEspinoza
p143
sg6
I2394
sg7
I2401
sa(dp144
g3
I0
sg4
VSpanish
p145
sg6
I2452
sg7
I2458
sa(dp146
g3
I0
sg4
VEast
p147
sg6
I2469
sg7
I2472
sa(dp148
g3
I0
sg4
VTrump
p149
sg6
I2575
sg7
I2579
sasI2
(lp150
(dp151
g3
I0
sg4
VAndrea Cote
p152
sg6
I32
sg7
I42
sa(dp153
g3
I0
sg4
VCote Botero
p154
sg6
I39
sg7
I49
sa(dp155
g3
I0
sg4
VCiudad Ju
p156
sg6
I168
sg7
I176
sa(dp157
g3
I0
sg4
VM. F.A.
p158
sg6
I222
sg7
I228
sa(dp159
g3
I0
sg4
VEl Paso
p160
sg6
I285
sg7
I291
sa(dp161
g3
I0
sg4
VF. Scott
p162
sg6
I332
sg7
I339
sa(dp163
g3
I0
sg4
VScott Fitzgerald
p164
sg6
I335
sg7
I350
sa(dp165
g3
I0
sg4
VGabriel Garc
p166
sg6
I356
sg7
I367
sa(dp167
g3
I0
sg4
VWest Egg
p168
sg6
I386
sg7
I393
sa(dp169
g3
I0
sg4
VCote Botero
p170
sg6
I601
sg7
I611
sa(dp171
g3
I0
sg4
VMexico City
p172
sg6
I685
sg7
I695
sa(dp173
g3
I0
sg4
VLas Vegas
p174
sg6
I719
sg7
I727
sa(dp175
g3
I0
sg4
VGreat Gatsby
p176
sg6
I758
sg7
I769
sa(dp177
g3
I0
sg4
VGoogle Translate
p178
sg6
I796
sg7
I811
sa(dp179
g3
I1
sg4
VEl Paso
p180
sg6
I826
sg7
I832
sa(dp181
g3
I0
sg4
VFine Arts
p182
sg6
I847
sg7
I855
sa(dp183
g3
I1
sg4
VEl Paso
p184
sg6
I1284
sg7
I1290
sa(dp185
g3
I0
sg4
VUnited States
p186
sg6
I1548
sg7
I1560
sa(dp187
g3
I0
sg4
VCensus Bureau
p188
sg6
I1602
sg7
I1614
sa(dp189
g3
I0
sg4
VHurricane Harvey
p190
sg6
I1653
sg7
I1668
sa(dp191
g3
I0
sg4
VPh. D.
p192
sg6
I1720
sg7
I1725
sa(dp193
g3
I0
sg4
VCristina Rivera
p194
sg6
I1977
sg7
I1991
sa(dp195
g3
I0
sg4
VRivera Garza
p196
sg6
I1986
sg7
I1997
sa(dp197
g3
I0
sg4
VUnited States.
p198
sg6
I2136
sg7
I2149
sa(dp199
g3
I1
sg4
VCal State
p200
sg6
I2167
sg7
I2175
sa(dp201
g3
I0
sg4
VLos Angeles
p202
sg6
I2320
sg7
I2330
sa(dp203
g3
I0
sg4
VAngeles County
p204
sg6
I2324
sg7
I2337
sa(dp205
g3
I0
sg4
V. Cal
p206
sg6
I2358
sg7
I2362
sa(dp207
g3
I1
sg4
VCal State
p208
sg6
I2360
sg7
I2368
sa(dp209
g3
I0
sg4
VAlex Espinoza
p210
sg6
I2389
sg7
I2401
sa(dp211
g3
I0
sg4
VEast L.
p212
sg6
I2469
sg7
I2475
sa(dp213
g3
I0
sg4
VL. A.
p214
sg6
I2474
sg7
I2478
sasI3
(lp215
(dp216
g3
I0
sg4
VAndrea Cote Botero
p217
sg6
I32
sg7
I49
sa(dp218
g3
I0
sg4
VEnglish and Spanish
p219
sg6
I70
sg7
I88
sa(dp220
g3
I1
sg4
VUniversity of Texas
p221
sg6
I262
sg7
I280
sa(dp222
g3
I0
sg4
VF. Scott Fitzgerald
p223
sg6
I332
sg7
I350
sa(dp224
g3
I0
sg4
VFitzgerald and Gabriel
p225
sg6
I341
sg7
I362
sa(dp226
g3
I0
sg4
VEgg and Macondo
p227
sg6
I391
sg7
I405
sa(dp228
g3
I0
sg4
VMasters of Fine
p229
sg6
I836
sg7
I850
sa(dp230
g3
I0
sg4
VEnglish and Spanish.
p231
sg6
I1024
sg7
I1043
sa(dp232
g3
I0
sg4
VTexan of Palestinian
p233
sg6
I1183
sg7
I1202
sa(dp234
g3
I1
sg4
VUniversity of Houston
p235
sg6
I1688
sg7
I1708
sa(dp236
g3
I0
sg4
VCristina Rivera Garza
p237
sg6
I1977
sg7
I1997
sa(dp238
g3
I0
sg4
VHouston and Cal
p239
sg6
I2155
sg7
I2169
sa(dp240
g3
I0
sg4
VLos Angeles County
p241
sg6
I2320
sg7
I2337
sa(dp242
g3
I0
sg4
V. Cal State
p243
sg6
I2358
sg7
I2368
sa(dp244
g3
I0
sg4
VEast L. A.
p245
sg6
I2469
sg7
I2478
sasI4
(lp246
(dp247
g3
I0
sg4
VScott Fitzgerald and Gabriel
p248
sg6
I335
sg7
I362
sa(dp249
g3
I0
sg4
VFitzgerald and Gabriel Garc
p250
sg6
I341
sg7
I367
sa(dp251
g3
I0
sg4
VWest Egg and Macondo
p252
sg6
I386
sg7
I405
sa(dp253
g3
I0
sg4
VMasters of Fine Arts
p254
sg6
I836
sg7
I855
sa(dp255
g3
I0
sg4
VHouston and Cal State
p256
sg6
I2155
sg7
I2175
sasI5
(lp257
(dp258
g3
I0
sg4
VF. Scott Fitzgerald and Gabriel
p259
sg6
I332
sg7
I362
sa(dp260
g3
I0
sg4
VScott Fitzgerald and Gabriel Garc
p261
sg6
I335
sg7
I367
sasI6
(lp262
(dp263
g3
I0
sg4
VF. Scott Fitzgerald and Gabriel Garc
p264
sg6
I332
sg7
I367
sas.