(dp0
I1
(lp1
(dp2
S'label'
p3
I0
sS'string'
p4
VWhatever
p5
sS'start_index'
p6
I0
sS'end_index'
p7
I7
sa(dp8
g3
I0
sg4
VJos
p9
sg6
I74
sg7
I76
sa(dp10
g3
I0
sg4
VPaso
p11
sg6
I96
sg7
I99
sa(dp12
g3
I0
sg4
VAlessandra
p13
sg6
I187
sg7
I196
sa(dp14
g3
I0
sg4
VNarv
p15
sg6
I198
sg7
I201
sa(dp16
g3
I0
sg4
VVarela
p17
sg6
I206
sg7
I211
sa(dp18
g3
I0
sg4
VTexas
p19
sg6
I306
sg7
I310
sa(dp20
g3
I0
sg4
VPaso.
p21
sg6
I368
sg7
I372
sa(dp22
g3
I0
sg4
VPoetry
p23
sg6
I527
sg7
I532
sa(dp24
g3
I0
sg4
VPaso
p25
sg6
I552
sg7
I555
sa(dp26
g3
I0
sg4
VF.A.
p27
sg6
I572
sg7
I575
sa(dp28
g3
I0
sg4
VOddly
p29
sg6
I824
sg7
I828
sa(dp30
g3
I0
sg4
VNarv
p31
sg6
I840
sg7
I843
sa(dp32
g3
I0
sg4
VVarela
p33
sg6
I848
sg7
I853
sa(dp34
g3
I0
sg4
VSpanish
p35
sg6
I878
sg7
I884
sa(dp36
g3
I0
sg4
VEnglish.
p37
sg6
I993
sg7
I1000
sa(dp38
g3
I0
sg4
VMaybe
p39
sg6
I1002
sg7
I1006
sa(dp40
g3
I0
sg4
VSpanish
p41
sg6
I1012
sg7
I1018
sa(dp42
g3
I0
sg4
VEnglish
p43
sg6
I1095
sg7
I1101
sa(dp44
g3
I0
sg4
VNarv
p45
sg6
I1173
sg7
I1176
sa(dp46
g3
I0
sg4
VVarela
p47
sg6
I1181
sg7
I1186
sa(dp48
g3
I0
sg4
VLos
p49
sg6
I1230
sg7
I1232
sa(dp50
g3
I0
sg4
VAngeles
p51
sg6
I1234
sg7
I1240
sa(dp52
g3
I0
sg4
VSpanish
p53
sg6
I1319
sg7
I1325
sa(dp54
g3
I0
sg4
VSpanish
p55
sg6
I1360
sg7
I1366
sa(dp56
g3
I0
sg4
VOvarian
p57
sg6
I1375
sg7
I1381
sa(dp58
g3
I0
sg4
VCancer
p59
sg6
I1383
sg7
I1388
sa(dp60
g3
I0
sg4
VClassmates
p61
sg6
I1460
sg7
I1469
sa(dp62
g3
I0
sg4
VNarv
p63
sg6
I1550
sg7
I1553
sa(dp64
g3
I0
sg4
VVarela
p65
sg6
I1558
sg7
I1563
sa(dp66
g3
I0
sg4
VEnglish.
p67
sg6
I1618
sg7
I1625
sa(dp68
g3
I0
sg4
VEnglish
p69
sg6
I1705
sg7
I1711
sa(dp70
g3
I0
sg4
VEnglish.
p71
sg6
I1794
sg7
I1801
sa(dp72
g3
I0
sg4
VSpanish
p73
sg6
I1803
sg7
I1809
sa(dp74
g3
I0
sg4
VNarv
p75
sg6
I1992
sg7
I1995
sa(dp76
g3
I0
sg4
VVarela
p77
sg6
I2000
sg7
I2005
sa(dp78
g3
I0
sg4
VMexican
p79
sg6
I2026
sg7
I2032
sa(dp80
g3
I0
sg4
VAmerican
p81
sg6
I2038
sg7
I2045
sa(dp82
g3
I0
sg4
VSpanglish
p83
sg6
I2064
sg7
I2072
sa(dp84
g3
I0
sg4
VReal
p85
sg6
I2133
sg7
I2136
sa(dp86
g3
I0
sg4
VMexican
p87
sg6
I2138
sg7
I2144
sa(dp88
g3
I0
sg4
VMexican
p89
sg6
I2192
sg7
I2198
sa(dp90
g3
I0
sg4
VAmerican
p91
sg6
I2200
sg7
I2207
sa(dp92
g3
I0
sg4
VHispanic
p93
sg6
I2242
sg7
I2249
sa(dp94
g3
I0
sg4
VTony
p95
sg6
I2342
sg7
I2345
sa(dp96
g3
I0
sg4
VAntonio
p97
sg6
I2352
sg7
I2358
sa(dp98
g3
I0
sg4
VAnthony
p99
sg6
I2360
sg7
I2366
sa(dp100
g3
I0
sg4
VSpanglish
p101
sg6
I2447
sg7
I2455
sa(dp102
g3
I0
sg4
VMexican
p103
sg6
I2497
sg7
I2503
sa(dp104
g3
I0
sg4
VNarv
p105
sg6
I2542
sg7
I2545
sa(dp106
g3
I0
sg4
VVarela
p107
sg6
I2550
sg7
I2555
sa(dp108
g3
I0
sg4
VMexican
p109
sg6
I2621
sg7
I2627
sa(dp110
g3
I0
sg4
VAmerican.
p111
sg6
I2629
sg7
I2637
sa(dp112
g3
I0
sg4
VSpanglish.
p113
sg6
I2695
sg7
I2704
sa(dp114
g3
I0
sg4
VSpanglish
p115
sg6
I2765
sg7
I2773
sa(dp116
g3
I0
sg4
VWriting
p117
sg6
I2860
sg7
I2866
sa(dp118
g3
I0
sg4
VEnglish
p119
sg6
I2945
sg7
I2951
sa(dp120
g3
I0
sg4
VSpanish
p121
sg6
I2956
sg7
I2962
sa(dp122
g3
I0
sg4
VAfrican
p123
sg6
I2977
sg7
I2983
sa(dp124
g3
I0
sg4
VAmerican
p125
sg6
I2985
sg7
I2992
sa(dp126
g3
I0
sg4
VEnglish
p127
sg6
I2994
sg7
I3000
sa(dp128
g3
I0
sg4
VHuizache
p129
sg6
I3051
sg7
I3058
sa(dp130
g3
I0
sg4
VLatino
p131
sg6
I3073
sg7
I3078
sa(dp132
g3
I0
sg4
VReal
p133
sg6
I3110
sg7
I3113
sa(dp134
g3
I0
sg4
VMexican.
p135
sg6
I3115
sg7
I3122
sasI2
(lp136
(dp137
g3
I1
sg4
VEl Paso
p138
sg6
I93
sg7
I99
sa(dp139
g3
I0
sg4
VAlessandra Narv
p140
sg6
I187
sg7
I201
sa(dp141
g3
I1
sg4
VEl Paso.
p142
sg6
I365
sg7
I372
sa(dp143
g3
I0
sg4
VB. S.
p144
sg6
I384
sg7
I388
sa(dp145
g3
I0
sg4
VB. A.
p146
sg6
I407
sg7
I411
sa(dp147
g3
I1
sg4
VEl Paso
p148
sg6
I549
sg7
I555
sa(dp149
g3
I0
sg4
VM. F.A.
p150
sg6
I569
sg7
I575
sa(dp151
g3
I0
sg4
VLos Angeles
p152
sg6
I1230
sg7
I1240
sa(dp153
g3
I0
sg4
VOvarian Cancer
p154
sg6
I1375
sg7
I1388
sa(dp155
g3
I0
sg4
V. Classmates
p156
sg6
I1458
sg7
I1469
sa(dp157
g3
I0
sg4
VReal Mexican
p158
sg6
I2133
sg7
I2144
sa(dp159
g3
I0
sg4
VMexican American
p160
sg6
I2192
sg7
I2207
sa(dp161
g3
I0
sg4
VAntonio Anthony
p162
sg6
I2352
sg7
I2366
sa(dp163
g3
I0
sg4
VU. S.
p164
sg6
I2532
sg7
I2536
sa(dp165
g3
I0
sg4
VMexican American.
p166
sg6
I2621
sg7
I2637
sa(dp167
g3
I0
sg4
VAfrican American
p168
sg6
I2977
sg7
I2992
sa(dp169
g3
I0
sg4
VAmerican English
p170
sg6
I2985
sg7
I3000
sa(dp171
g3
I0
sg4
VReal Mexican.
p172
sg6
I3110
sg7
I3122
sasI3
(lp173
(dp174
g3
I1
sg4
VUniversity of Texas
p175
sg6
I292
sg7
I310
sa(dp176
g3
I0
sg4
VMexican and American
p177
sg6
I2026
sg7
I2045
sa(dp178
g3
I0
sg4
VAfrican American English
p179
sg6
I2977
sg7
I3000
sasI4
(lp180
sI5
(lp181
sI6
(lp182
s.