(dp0
I1
(lp1
(dp2
S'label'
p3
I0
sS'string'
p4
VCisneros
p5
sS'start_index'
p6
I4
sS'end_index'
p7
I11
sa(dp8
g3
I0
sg4
VMexican
p9
sg6
I20
sg7
I26
sa(dp10
g3
I0
sg4
VAmerican
p11
sg6
I28
sg7
I35
sa(dp12
g3
I1
sg4
VIowa
p13
sg6
I105
sg7
I108
sa(dp14
g3
I0
sg4
VWriters
p15
sg6
I110
sg7
I116
sa(dp16
g3
I0
sg4
VWorkshop
p17
sg6
I118
sg7
I125
sa(dp18
g3
I0
sg4
VHouse
p19
sg6
I154
sg7
I158
sa(dp20
g3
I0
sg4
VMango
p21
sg6
I163
sg7
I167
sa(dp22
g3
I0
sg4
VStreet.
p23
sg6
I169
sg7
I175
sa(dp24
g3
I0
sg4
VEnglish
p25
sg6
I208
sg7
I214
sa(dp26
g3
I0
sg4
VSpanish
p27
sg6
I238
sg7
I244
sa(dp28
g3
I0
sg4
VSpanish.
p29
sg6
I382
sg7
I389
sa(dp30
g3
I0
sg4
VSpanish.
p31
sg6
I439
sg7
I446
sa(dp32
g3
I0
sg4
VIowa
p33
sg6
I489
sg7
I492
sa(dp34
g3
I0
sg4
VCisneros
p35
sg6
I498
sg7
I505
sa(dp36
g3
I0
sg4
VSpanish
p37
sg6
I539
sg7
I545
sa(dp38
g3
I0
sg4
VHouse
p39
sg6
I586
sg7
I590
sa(dp40
g3
I0
sg4
VMango
p41
sg6
I595
sg7
I599
sa(dp42
g3
I0
sg4
VStreet.
p43
sg6
I601
sg7
I607
sa(dp44
g3
I0
sg4
VCisneros
p45
sg6
I667
sg7
I674
sa(dp46
g3
I0
sg4
VHouse
p47
sg6
I753
sg7
I757
sa(dp48
g3
I0
sg4
VMango
p49
sg6
I762
sg7
I766
sa(dp50
g3
I0
sg4
VStreet
p51
sg6
I768
sg7
I773
sa(dp52
g3
I0
sg4
VEsperanza
p53
sg6
I775
sg7
I783
sa(dp54
g3
I0
sg4
VEsperanza
p55
sg6
I827
sg7
I835
sa(dp56
g3
I0
sg4
VEnglish.
p57
sg6
I877
sg7
I884
sa(dp58
g3
I0
sg4
VSpanish
p59
sg6
I974
sg7
I980
sa(dp60
g3
I0
sg4
VCisneros
p61
sg6
I1176
sg7
I1183
sa(dp62
g3
I0
sg4
VPulitzer
p63
sg6
I1254
sg7
I1261
sa(dp64
g3
I0
sg4
VPrize
p65
sg6
I1263
sg7
I1267
sa(dp66
g3
I0
sg4
VDominican
p67
sg6
I1277
sg7
I1285
sa(dp68
g3
I0
sg4
VAmerican
p69
sg6
I1287
sg7
I1294
sa(dp70
g3
I0
sg4
VCornell
p71
sg6
I1312
sg7
I1318
sa(dp72
g3
I0
sg4
VF.A.
p73
sg6
I1336
sg7
I1339
sa(dp74
g3
I0
sg4
VMassachusetts
p75
sg6
I1372
sg7
I1384
sa(dp76
g3
I0
sg4
VTechnology.
p77
sg6
I1399
sg7
I1409
sa(dp78
g3
I0
sg4
VCreoles
p79
sg6
I1512
sg7
I1518
sasI2
(lp80
(dp81
g3
I0
sg4
VMexican American
p82
sg6
I20
sg7
I35
sa(dp83
g3
I0
sg4
VIowa Writers
p84
sg6
I105
sg7
I116
sa(dp85
g3
I0
sg4
VWriters Workshop
p86
sg6
I110
sg7
I125
sa(dp87
g3
I0
sg4
VMango Street.
p88
sg6
I163
sg7
I175
sa(dp89
g3
I0
sg4
VMango Street.
p90
sg6
I595
sg7
I607
sa(dp91
g3
I0
sg4
VMango Street
p92
sg6
I762
sg7
I773
sa(dp93
g3
I0
sg4
VStreet Esperanza
p94
sg6
I768
sg7
I783
sa(dp95
g3
I0
sg4
VU. S.
p96
sg6
I1158
sg7
I1162
sa(dp97
g3
I0
sg4
VPulitzer Prize
p98
sg6
I1254
sg7
I1267
sa(dp99
g3
I0
sg4
VDominican American
p100
sg6
I1277
sg7
I1294
sa(dp101
g3
I1
sg4
VCornell University
p102
sg6
I1312
sg7
I1329
sa(dp103
g3
I0
sg4
VM. F.A.
p104
sg6
I1333
sg7
I1339
sa(dp105
g3
I0
sg4
VMassachusetts Institute
p106
sg6
I1372
sg7
I1394
sasI3
(lp107
(dp108
g3
I0
sg4
VIowa Writers Workshop
p109
sg6
I105
sg7
I125
sa(dp110
g3
I0
sg4
VMango Street Esperanza
p111
sg6
I762
sg7
I783
sa(dp112
g3
I0
sg4
VInstitute of Technology.
p113
sg6
I1386
sg7
I1409
sasI4
(lp114
(dp115
g3
I1
sg4
VMassachusetts Institute of Technology.
p116
sg6
I1372
sg7
I1409
sasI5
(lp117
sI6
(lp118
s.