(dp0
I1
(lp1
(dp2
S'label'
p3
I0
sS'string'
p4
VSpanish
p5
sS'start_index'
p6
I91
sS'end_index'
p7
I97
sa(dp8
g3
I0
sg4
VSpanish
p9
sg6
I141
sg7
I147
sa(dp10
g3
I0
sg4
VEnglish.
p11
sg6
I181
sg7
I188
sa(dp12
g3
I0
sg4
VSpanish
p13
sg6
I301
sg7
I307
sa(dp14
g3
I0
sg4
VDiaz
p15
sg6
I335
sg7
I338
sa(dp16
g3
I0
sg4
VEnglish
p17
sg6
I355
sg7
I361
sa(dp18
g3
I0
sg4
VSpanish
p19
sg6
I415
sg7
I421
sa(dp20
g3
I0
sg4
VSantiago
p21
sg6
I440
sg7
I447
sa(dp22
g3
I0
sg4
VPuerto
p23
sg6
I481
sg7
I486
sa(dp24
g3
I0
sg4
VRican
p25
sg6
I488
sg7
I492
sa(dp26
g3
I0
sg4
VF.A.
p27
sg6
I504
sg7
I507
sa(dp28
g3
I0
sg4
VSarah
p29
sg6
I521
sg7
I525
sa(dp30
g3
I0
sg4
VLawrence
p31
sg6
I527
sg7
I534
sa(dp32
g3
I0
sg4
VEnglish
p33
sg6
I658
sg7
I664
sa(dp34
g3
I0
sg4
VSpanish
p35
sg6
I672
sg7
I678
sa(dp36
g3
I0
sg4
VLater
p37
sg6
I690
sg7
I694
sa(dp38
g3
I0
sg4
VSpanish
p39
sg6
I748
sg7
I754
sa(dp40
g3
I0
sg4
VEnglish
p41
sg6
I761
sg7
I767
sa(dp42
g3
I0
sg4
VEnglish
p43
sg6
I811
sg7
I817
sa(dp44
g3
I0
sg4
VSpanish
p45
sg6
I823
sg7
I829
sa(dp46
g3
I0
sg4
VPaso
p47
sg6
I871
sg7
I874
sa(dp48
g3
I0
sg4
VEnglish
p49
sg6
I955
sg7
I961
sa(dp50
g3
I0
sg4
VSpanish
p51
sg6
I963
sg7
I969
sa(dp52
g3
I0
sg4
VProfessors
p53
sg6
I980
sg7
I989
sa(dp54
g3
I0
sg4
VEnglish
p55
sg6
I1099
sg7
I1105
sa(dp56
g3
I0
sg4
VSpanish
p57
sg6
I1128
sg7
I1134
sa(dp58
g3
I0
sg4
VDaniel
p59
sg6
I1141
sg7
I1146
sa(dp60
g3
I0
sg4
VChac
p61
sg6
I1148
sg7
I1151
sa(dp62
g3
I0
sg4
VSpanish.
p63
sg6
I1220
sg7
I1227
sa(dp64
g3
I0
sg4
VWhatever
p65
sg6
I1229
sg7
I1236
sa(dp66
g3
I0
sg4
VJos
p67
sg6
I1373
sg7
I1375
sa(dp68
g3
I0
sg4
VSpanish
p69
sg6
I1521
sg7
I1527
sa(dp70
g3
I0
sg4
VEnglish
p71
sg6
I1595
sg7
I1601
sa(dp72
g3
I0
sg4
VSpanish
p73
sg6
I1662
sg7
I1668
sa(dp74
g3
I0
sg4
VGoogle
p75
sg6
I1932
sg7
I1937
sa(dp76
g3
I0
sg4
VTranslate
p77
sg6
I1939
sg7
I1947
sa(dp78
g3
I0
sg4
VSpanish
p79
sg6
I2018
sg7
I2024
sa(dp80
g3
I0
sg4
VAmerican
p81
sg6
I2040
sg7
I2047
sa(dp82
g3
I0
sg4
VEnglish
p83
sg6
I2058
sg7
I2064
sa(dp84
g3
I0
sg4
VCote
p85
sg6
I2138
sg7
I2141
sa(dp86
g3
I0
sg4
VBotero
p87
sg6
I2143
sg7
I2148
sa(dp88
g3
I0
sg4
VEnglish
p89
sg6
I2247
sg7
I2253
sa(dp90
g3
I0
sg4
VSpanish
p91
sg6
I2259
sg7
I2265
sa(dp92
g3
I0
sg4
VShakespeare
p93
sg6
I2310
sg7
I2320
sa(dp94
g3
I0
sg4
VEnglish
p95
sg6
I2339
sg7
I2345
sa(dp96
g3
I0
sg4
VEnglish
p97
sg6
I2402
sg7
I2408
sa(dp98
g3
I0
sg4
VShakespeare
p99
sg6
I2477
sg7
I2487
sa(dp100
g3
I0
sg4
VShall
p101
sg6
I2504
sg7
I2508
sa(dp102
g3
I0
sg4
VSpanish
p103
sg6
I2547
sg7
I2553
sa(dp104
g3
I0
sg4
VChac
p105
sg6
I2803
sg7
I2806
sa(dp106
g3
I0
sg4
VJames
p107
sg6
I2866
sg7
I2870
sa(dp108
g3
I0
sg4
VJoyce
p109
sg6
I2872
sg7
I2876
sa(dp110
g3
I0
sg4
VGaelic
p111
sg6
I2933
sg7
I2938
sa(dp112
g3
I0
sg4
VJapanese
p113
sg6
I3078
sg7
I3085
sa(dp114
g3
I0
sg4
VZen
p115
sg6
I3087
sg7
I3089
sa(dp116
g3
I0
sg4
VGreek
p117
sg6
I3113
sg7
I3117
sa(dp118
g3
I0
sg4
VAristotle.
p119
sg6
I3131
sg7
I3140
sa(dp120
g3
I0
sg4
VPaso
p121
sg6
I3227
sg7
I3230
sasI2
(lp122
(dp123
g3
I0
sg4
VPuerto Rican
p124
sg6
I481
sg7
I492
sa(dp125
g3
I0
sg4
VM. F.A.
p126
sg6
I501
sg7
I507
sa(dp127
g3
I0
sg4
VSarah Lawrence
p128
sg6
I521
sg7
I534
sa(dp129
g3
I0
sg4
VLawrence College
p130
sg6
I527
sg7
I542
sa(dp131
g3
I1
sg4
VEl Paso
p132
sg6
I868
sg7
I874
sa(dp133
g3
I0
sg4
VEnglish Spanish
p134
sg6
I955
sg7
I969
sa(dp135
g3
I0
sg4
VDaniel Chac
p136
sg6
I1141
sg7
I1151
sa(dp137
g3
I0
sg4
VGoogle Translate
p138
sg6
I1932
sg7
I1947
sa(dp139
g3
I0
sg4
VCote Botero
p140
sg6
I2138
sg7
I2148
sa(dp141
g3
I0
sg4
VJames Joyce
p142
sg6
I2866
sg7
I2876
sa(dp143
g3
I0
sg4
VJapanese Zen
p144
sg6
I3078
sg7
I3089
sa(dp145
g3
I1
sg4
VEl Paso
p146
sg6
I3224
sg7
I3230
sasI3
(lp147
(dp148
g3
I1
sg4
VSarah Lawrence College
p149
sg6
I521
sg7
I542
sa(dp150
g3
I0
sg4
VEnglish and Spanish
p151
sg6
I811
sg7
I829
sa(dp152
g3
I0
sg4
VEnglish and Spanish
p153
sg6
I2247
sg7
I2265
sasI4
(lp154
sI5
(lp155
sI6
(lp156
s.