(dp0
I1
(lp1
(dp2
S'label'
p3
I0
sS'string'
p4
VJames
p5
sS'start_index'
p6
I0
sS'end_index'
p7
I4
sa(dp8
g3
I0
sg4
VMilliken
p9
sg6
I9
sg7
I16
sa(dp10
g3
I0
sg4
VCity
p11
sg6
I40
sg7
I43
sa(dp12
g3
I0
sg4
VNew
p13
sg6
I59
sg7
I61
sa(dp14
g3
I0
sg4
VYork
p15
sg6
I63
sg7
I66
sa(dp16
g3
I0
sg4
VMilliken
p17
sg6
I205
sg7
I212
sa(dp18
g3
I1
sg4
VCUNY
p19
sg6
I418
sg7
I421
sa(dp20
g3
I0
sg4
VMilliken
p21
sg6
I469
sg7
I476
sa(dp22
g3
I1
sg4
VCUNY
p23
sg6
I1017
sg7
I1020
sa(dp24
g3
I0
sg4
VMilliken
p25
sg6
I1119
sg7
I1126
sa(dp26
g3
I1
sg4
VCUNY
p27
sg6
I1228
sg7
I1231
sa(dp28
g3
I0
sg4
VLaw
p29
sg6
I1245
sg7
I1247
sa(dp30
g3
I0
sg4
VNew
p31
sg6
I1270
sg7
I1272
sa(dp32
g3
I0
sg4
VYork
p33
sg6
I1274
sg7
I1277
sa(dp34
g3
I0
sg4
VCity.
p35
sg6
I1279
sg7
I1283
sasI2
(lp36
(dp37
g3
I0
sg4
VJames B.
p38
sg6
I0
sg7
I7
sa(dp39
g3
I0
sg4
VB. Milliken
p40
sg6
I6
sg7
I16
sa(dp41
g3
I0
sg4
VCity University
p42
sg6
I40
sg7
I54
sa(dp43
g3
I0
sg4
VNew York
p44
sg6
I59
sg7
I66
sa(dp45
g3
I0
sg4
VNew York
p46
sg6
I1270
sg7
I1277
sa(dp47
g3
I0
sg4
VYork City.
p48
sg6
I1274
sg7
I1283
sasI3
(lp49
(dp50
g3
I0
sg4
VJames B. Milliken
p51
sg6
I0
sg7
I16
sa(dp52
g3
I0
sg4
VUniversity of New
p53
sg6
I45
sg7
I61
sa(dp54
g3
I0
sg4
VSchool of Law
p55
sg6
I1235
sg7
I1247
sa(dp56
g3
I0
sg4
VNew York City.
p57
sg6
I1270
sg7
I1283
sasI4
(lp58
(dp59
g3
I0
sg4
VCity University of New
p60
sg6
I40
sg7
I61
sa(dp61
g3
I0
sg4
VUniversity of New York
p62
sg6
I45
sg7
I66
sasI5
(lp63
(dp64
g3
I1
sg4
VCity University of New York
p65
sg6
I40
sg7
I66
sasI6
(lp66
s.