(dp0
I1
(lp1
(dp2
S'label'
p3
I0
sS'string'
p4
VMilliken
p5
sS'start_index'
p6
I4
sS'end_index'
p7
I11
sa(dp8
g3
I1
sg4
VCUNY
p9
sg6
I20
sg7
I23
sa(dp10
g3
I0
sg4
VThamara
p11
sg6
I216
sg7
I222
sa(dp12
g3
I0
sg4
VJean
p13
sg6
I227
sg7
I230
sa(dp14
g3
I0
sg4
VHunter
p15
sg6
I234
sg7
I239
sa(dp16
g3
I0
sg4
VRhodes
p17
sg6
I271
sg7
I276
sa(dp18
g3
I0
sg4
VScholar
p19
sg6
I278
sg7
I284
sa(dp20
g3
I0
sg4
VVartan
p21
sg6
I447
sg7
I452
sa(dp22
g3
I0
sg4
VGregorian
p23
sg6
I454
sg7
I462
sa(dp24
g3
I0
sg4
VCarnegie
p25
sg6
I481
sg7
I488
sa(dp26
g3
I0
sg4
VCorporation
p27
sg6
I490
sg7
I500
sa(dp28
g3
I0
sg4
VNew
p29
sg6
I505
sg7
I507
sa(dp30
g3
I0
sg4
VYork
p31
sg6
I509
sg7
I512
sa(dp32
g3
I0
sg4
VBrown
p33
sg6
I540
sg7
I544
sa(dp34
g3
I0
sg4
VUniversity.
p35
sg6
I546
sg7
I556
sasI2
(lp36
(dp37
g3
I0
sg4
VThamara V.
p38
sg6
I216
sg7
I225
sa(dp39
g3
I0
sg4
VV. Jean
p40
sg6
I224
sg7
I230
sa(dp41
g3
I1
sg4
VHunter College
p42
sg6
I234
sg7
I247
sa(dp43
g3
I0
sg4
VRhodes Scholar
p44
sg6
I271
sg7
I284
sa(dp45
g3
I0
sg4
VJ. B.
p46
sg6
I308
sg7
I312
sa(dp47
g3
I0
sg4
VVartan Gregorian
p48
sg6
I447
sg7
I462
sa(dp49
g3
I0
sg4
VCarnegie Corporation
p50
sg6
I481
sg7
I500
sa(dp51
g3
I0
sg4
VNew York
p52
sg6
I505
sg7
I512
sa(dp53
g3
I1
sg4
VBrown University.
p54
sg6
I540
sg7
I556
sasI3
(lp55
(dp56
g3
I0
sg4
VThamara V. Jean
p57
sg6
I216
sg7
I230
sa(dp58
g3
I0
sg4
VCorporation of New
p59
sg6
I490
sg7
I507
sasI4
(lp60
(dp61
g3
I0
sg4
VCarnegie Corporation of New
p62
sg6
I481
sg7
I507
sa(dp63
g3
I0
sg4
VCorporation of New York
p64
sg6
I490
sg7
I512
sasI5
(lp65
(dp66
g3
I0
sg4
VCarnegie Corporation of New York
p67
sg6
I481
sg7
I512
sasI6
(lp68
s.