(dp0
I1
(lp1
(dp2
S'label'
p3
I0
sS'string'
p4
VNew
p5
sS'start_index'
p6
I76
sS'end_index'
p7
I78
sa(dp8
g3
I0
sg4
VYork
p9
sg6
I80
sg7
I83
sa(dp10
g3
I1
sg4
VCUNY
p11
sg6
I159
sg7
I162
sa(dp12
g3
I0
sg4
VNew
p13
sg6
I208
sg7
I210
sa(dp14
g3
I0
sg4
VYork
p15
sg6
I212
sg7
I215
sa(dp16
g3
I0
sg4
VState
p17
sg6
I217
sg7
I221
sa(dp18
g3
I0
sg4
VCity
p19
sg6
I338
sg7
I341
sa(dp20
g3
I0
sg4
VHarlem.
p21
sg6
I354
sg7
I360
sa(dp22
g3
I1
sg4
VCUNY
p23
sg6
I362
sg7
I365
sa(dp24
g3
I0
sg4
VMilliken
p25
sg6
I429
sg7
I436
sa(dp26
g3
I0
sg4
VFederal
p27
sg6
I471
sg7
I477
sa(dp28
g3
I0
sg4
VBrooklyn
p29
sg6
I494
sg7
I501
sa(dp30
g3
I1
sg4
VCUNY
p31
sg6
I528
sg7
I531
sa(dp32
g3
I0
sg4
VProsecutors
p33
sg6
I613
sg7
I623
sa(dp34
g3
I0
sg4
VCity
p35
sg6
I672
sg7
I675
sa(dp36
g3
I0
sg4
VLisa
p37
sg6
I685
sg7
I688
sa(dp38
g3
I0
sg4
VCoico
p39
sg6
I693
sg7
I697
sa(dp40
g3
I0
sg4
VNew
p41
sg6
I747
sg7
I749
sa(dp42
g3
I0
sg4
VYork
p43
sg6
I751
sg7
I754
sa(dp44
g3
I0
sg4
VTimes
p45
sg6
I756
sg7
I760
sa(dp46
g3
I0
sg4
VCoico
p47
sg6
I921
sg7
I925
sa(dp48
g3
I0
sg4
VWilliam
p49
sg6
I965
sg7
I971
sa(dp50
g3
I0
sg4
VThompson
p51
sg6
I976
sg7
I983
sa(dp52
g3
I1
sg4
VCUNY
p53
sg6
I1005
sg7
I1008
sa(dp54
g3
I0
sg4
VBoard
p55
sg6
I1012
sg7
I1016
sa(dp56
g3
I0
sg4
VTrustees
p57
sg6
I1021
sg7
I1028
sa(dp58
g3
I0
sg4
VNew
p59
sg6
I1043
sg7
I1045
sa(dp60
g3
I0
sg4
VYork
p61
sg6
I1047
sg7
I1050
sa(dp62
g3
I0
sg4
VCity
p63
sg6
I1052
sg7
I1055
sa(dp64
g3
I0
sg4
VCatherine
p65
sg6
I1069
sg7
I1077
sa(dp66
g3
I0
sg4
VLeahy
p67
sg6
I1079
sg7
I1083
sa(dp68
g3
I0
sg4
VScott
p69
sg6
I1085
sg7
I1089
sa(dp70
g3
I0
sg4
VNew
p71
sg6
I1095
sg7
I1097
sa(dp72
g3
I0
sg4
VYork
p73
sg6
I1099
sg7
I1102
sa(dp74
g3
I0
sg4
VState
p75
sg6
I1104
sg7
I1108
sa(dp76
g3
I1
sg4
VCUNY
p77
sg6
I1236
sg7
I1239
sa(dp78
g3
I0
sg4
VMilliken
p79
sg6
I1311
sg7
I1318
sa(dp80
g3
I0
sg4
VLeahy
p81
sg6
I1365
sg7
I1369
sa(dp82
g3
I0
sg4
VScott
p83
sg6
I1371
sg7
I1375
sa(dp84
g3
I0
sg4
VThompson
p85
sg6
I1477
sg7
I1484
sa(dp86
g3
I1
sg4
VCUNY
p87
sg6
I1517
sg7
I1520
sa(dp88
g3
I0
sg4
VGov.
p89
sg6
I1531
sg7
I1534
sa(dp90
g3
I0
sg4
VAndrew
p91
sg6
I1536
sg7
I1541
sa(dp92
g3
I0
sg4
VCuomo
p93
sg6
I1546
sg7
I1550
sa(dp94
g3
I0
sg4
VMilliken
p95
sg6
I1572
sg7
I1579
sa(dp96
g3
I0
sg4
VThompson.
p97
sg6
I1715
sg7
I1723
sasI2
(lp98
(dp99
g3
I0
sg4
VNew York
p100
sg6
I76
sg7
I83
sa(dp101
g3
I0
sg4
VNew York
p102
sg6
I208
sg7
I215
sa(dp103
g3
I0
sg4
VYork State
p104
sg6
I212
sg7
I221
sa(dp105
g3
I0
sg4
VCity College
p106
sg6
I338
sg7
I349
sa(dp107
g3
I0
sg4
VCity College
p108
sg6
I672
sg7
I683
sa(dp109
g3
I0
sg4
VCollege Lisa
p110
sg6
I677
sg7
I688
sa(dp111
g3
I0
sg4
VLisa S.
p112
sg6
I685
sg7
I691
sa(dp113
g3
I0
sg4
VS. Coico
p114
sg6
I690
sg7
I697
sa(dp115
g3
I0
sg4
VNew York
p116
sg6
I747
sg7
I754
sa(dp117
g3
I0
sg4
VYork Times
p118
sg6
I751
sg7
I760
sa(dp119
g3
I0
sg4
VWilliam C.
p120
sg6
I965
sg7
I974
sa(dp121
g3
I0
sg4
VC. Thompson
p122
sg6
I973
sg7
I983
sa(dp123
g3
I0
sg4
VNew York
p124
sg6
I1043
sg7
I1050
sa(dp125
g3
I0
sg4
VYork City
p126
sg6
I1047
sg7
I1055
sa(dp127
g3
I0
sg4
VCatherine Leahy
p128
sg6
I1069
sg7
I1083
sa(dp129
g3
I0
sg4
VLeahy Scott
p130
sg6
I1079
sg7
I1089
sa(dp131
g3
I0
sg4
VNew York
p132
sg6
I1095
sg7
I1102
sa(dp133
g3
I0
sg4
VYork State
p134
sg6
I1099
sg7
I1108
sa(dp135
g3
I0
sg4
VLeahy Scott
p136
sg6
I1365
sg7
I1375
sa(dp137
g3
I0
sg4
VAndrew M.
p138
sg6
I1536
sg7
I1544
sa(dp139
g3
I0
sg4
VM. Cuomo
p140
sg6
I1543
sg7
I1550
sasI3
(lp141
(dp142
g3
I0
sg4
VNew York State
p143
sg6
I208
sg7
I221
sa(dp144
g3
I0
sg4
VCity College Lisa
p145
sg6
I672
sg7
I688
sa(dp146
g3
I0
sg4
VCollege Lisa S.
p147
sg6
I677
sg7
I691
sa(dp148
g3
I0
sg4
VLisa S. Coico
p149
sg6
I685
sg7
I697
sa(dp150
g3
I0
sg4
VNew York Times
p151
sg6
I747
sg7
I760
sa(dp152
g3
I0
sg4
VWilliam C. Thompson
p153
sg6
I965
sg7
I983
sa(dp154
g3
I0
sg4
VBoard of Trustees
p155
sg6
I1012
sg7
I1028
sa(dp156
g3
I0
sg4
VNew York City
p157
sg6
I1043
sg7
I1055
sa(dp158
g3
I0
sg4
VCatherine Leahy Scott
p159
sg6
I1069
sg7
I1089
sa(dp160
g3
I0
sg4
VNew York State
p161
sg6
I1095
sg7
I1108
sa(dp162
g3
I0
sg4
VAndrew M. Cuomo
p163
sg6
I1536
sg7
I1550
sasI4
(lp164
(dp165
g3
I0
sg4
VCity College Lisa S.
p166
sg6
I672
sg7
I691
sa(dp167
g3
I0
sg4
VCollege Lisa S. Coico
p168
sg6
I677
sg7
I697
sasI5
(lp169
(dp170
g3
I1
sg4
VCity College Lisa S. Coico
p171
sg6
I672
sg7
I697
sasI6
(lp172
s.