(dp0
I1
(lp1
(dp2
S'label'
p3
I0
sS'string'
p4
VShira
p5
sS'start_index'
p6
I45
sS'end_index'
p7
I49
sa(dp8
g3
I0
sg4
VEisenberg
p9
sg6
I51
sg7
I59
sa(dp10
g3
I0
sg4
VChicago
p11
sg6
I183
sg7
I189
sa(dp12
g3
I0
sg4
VEisenberg
p13
sg6
I483
sg7
I491
sa(dp14
g3
I0
sg4
VInternships
p15
sg6
I564
sg7
I574
sa(dp16
g3
I0
sg4
VNational
p17
sg6
I758
sg7
I765
sa(dp18
g3
I0
sg4
VAssociation
p19
sg6
I767
sg7
I777
sa(dp20
g3
I0
sg4
VEmployers.
p21
sg6
I795
sg7
I804
sa(dp22
g3
I0
sg4
VEmployers
p23
sg6
I928
sg7
I936
sasI2
(lp24
(dp25
g3
I0
sg4
VShira Eisenberg
p26
sg6
I45
sg7
I59
sa(dp27
g3
I0
sg4
VNational Association
p28
sg6
I758
sg7
I777
sasI3
(lp29
(dp30
g3
I1
sg4
VUniversity of Chicago
p31
sg6
I169
sg7
I189
sasI4
(lp32
sI5
(lp33
sI6
(lp34
s.