(dp0
I1
(lp1
(dp2
S'label'
p3
I0
sS'string'
p4
VNatalie
p5
sS'start_index'
p6
I0
sS'end_index'
p7
I6
sa(dp8
g3
I0
sg4
VErwin
p9
sg6
I244
sg7
I248
sa(dp10
g3
I0
sg4
VSpeech
p11
sg6
I445
sg7
I450
sa(dp12
g3
I0
sg4
VEspecially
p13
sg6
I581
sg7
I590
sa(dp14
g3
I0
sg4
VNatalie
p15
sg6
I654
sg7
I660
sa(dp16
g3
I0
sg4
VErwin
p17
sg6
I744
sg7
I748
sa(dp18
g3
I0
sg4
VAmendment
p19
sg6
I774
sg7
I782
sa(dp20
g3
I0
sg4
VHate
p21
sg6
I793
sg7
I796
sa(dp22
g3
I0
sg4
VEvery
p23
sg6
I907
sg7
I911
sa(dp24
g3
I0
sg4
VMichigan
p25
sg6
I1062
sg7
I1069
sa(dp26
g3
I0
sg4
VMichigan
p27
sg6
I1591
sg7
I1598
sa(dp28
g3
I0
sg4
VMichigan
p29
sg6
I1852
sg7
I1859
sa(dp30
g3
I0
sg4
VMichigan
p31
sg6
I1954
sg7
I1961
sa(dp32
g3
I0
sg4
VNatalie
p33
sg6
I2081
sg7
I2087
sa(dp34
g3
I0
sg4
VAmendment
p35
sg6
I2169
sg7
I2177
sa(dp36
g3
I0
sg4
VCampuses
p37
sg6
I2279
sg7
I2286
sa(dp38
g3
I0
sg4
VErwin
p39
sg6
I2472
sg7
I2476
sa(dp40
g3
I0
sg4
VJim
p41
sg6
I2724
sg7
I2726
sa(dp42
g3
I0
sg4
VCrow
p43
sg6
I2728
sg7
I2731
sa(dp44
g3
I0
sg4
VSouth.
p45
sg6
I2774
sg7
I2779
sa(dp46
g3
I0
sg4
VVietnam
p47
sg6
I2790
sg7
I2796
sa(dp48
g3
I0
sg4
VWar
p49
sg6
I2798
sg7
I2800
sa(dp50
g3
I0
sg4
VAmerican
p51
sg6
I2879
sg7
I2886
sa(dp52
g3
I0
sg4
VAmendment
p53
sg6
I2906
sg7
I2914
sa(dp54
g3
I0
sg4
VErwin
p55
sg6
I2996
sg7
I3000
sa(dp56
g3
I0
sg4
VYik
p57
sg6
I3173
sg7
I3175
sa(dp58
g3
I0
sg4
VYak
p59
sg6
I3177
sg7
I3179
sa(dp60
g3
I0
sg4
VSoutherners
p61
sg6
I3404
sg7
I3414
sa(dp62
g3
I0
sg4
VNatalie
p63
sg6
I3563
sg7
I3569
sa(dp64
g3
I0
sg4
VIdentity
p65
sg6
I3571
sg7
I3578
sa(dp66
g3
I0
sg4
VCampuses
p67
sg6
I4412
sg7
I4419
sa(dp68
g3
I0
sg4
VErwin
p69
sg6
I4522
sg7
I4526
sa(dp70
g3
I0
sg4
VJust
p71
sg6
I4614
sg7
I4617
sa(dp72
g3
I0
sg4
VAmendment
p73
sg6
I4637
sg7
I4645
sa(dp74
g3
I0
sg4
VCampus
p75
sg6
I4718
sg7
I4723
sa(dp76
g3
I0
sg4
VSouthern
p77
sg6
I4896
sg7
I4903
sa(dp78
g3
I0
sg4
VCalifornia
p79
sg6
I4905
sg7
I4914
sa(dp80
g3
I0
sg4
VAlso
p81
sg6
I5216
sg7
I5219
sa(dp82
g3
I0
sg4
VDormitories
p83
sg6
I5915
sg7
I5925
sa(dp84
g3
I0
sg4
VSupreme
p85
sg6
I6005
sg7
I6011
sa(dp86
g3
I0
sg4
VCourt
p87
sg6
I6013
sg7
I6017
sasI2
(lp88
(dp89
g3
I0
sg4
VJim Crow
p90
sg6
I2724
sg7
I2731
sa(dp91
g3
I0
sg4
VVietnam War
p92
sg6
I2790
sg7
I2800
sa(dp93
g3
I0
sg4
VYik Yak
p94
sg6
I3173
sg7
I3179
sa(dp95
g3
I0
sg4
VNatalie Identity
p96
sg6
I3563
sg7
I3578
sa(dp97
g3
I0
sg4
VSouthern California
p98
sg6
I4896
sg7
I4914
sa(dp99
g3
I0
sg4
VSupreme Court
p100
sg6
I6005
sg7
I6017
sasI3
(lp101
(dp102
g3
I1
sg4
VUniversity of Michigan
p103
sg6
I1048
sg7
I1069
sa(dp104
g3
I0
sg4
VUniversity of Southern
p105
sg6
I4882
sg7
I4903
sasI4
(lp106
(dp107
g3
I1
sg4
VUniversity of Southern California
p108
sg6
I4882
sg7
I4914
sasI5
(lp109
sI6
(lp110
s.