(dp0
I1
(lp1
(dp2
S'label'
p3
I0
sS'string'
p4
VMeredith
p5
sS'start_index'
p6
I132
sS'end_index'
p7
I139
sa(dp8
g3
I0
sg4
VDaw
p9
sg6
I141
sg7
I143
sa(dp10
g3
I0
sg4
VChicago.
p11
sg6
I207
sg7
I214
sa(dp12
g3
I1
sg4
VChicago
p13
sg6
I261
sg7
I267
sa(dp14
g3
I0
sg4
VJeff
p15
sg6
I271
sg7
I274
sa(dp16
g3
I0
sg4
VMetcalf
p17
sg6
I276
sg7
I282
sa(dp18
g3
I0
sg4
VInternship
p19
sg6
I284
sg7
I293
sa(dp20
g3
I0
sg4
VProgram.
p21
sg6
I295
sg7
I302
sa(dp22
g3
I0
sg4
VEmployers
p23
sg6
I304
sg7
I312
sa(dp24
g3
I0
sg4
VStarting
p25
sg6
I525
sg7
I532
sa(dp26
g3
I0
sg4
VOdyssey
p27
sg6
I561
sg7
I567
sa(dp28
g3
I0
sg4
VScholars
p29
sg6
I569
sg7
I576
sa(dp30
g3
I0
sg4
VEisenberg
p31
sg6
I607
sg7
I615
sa(dp32
g3
I0
sg4
VDaw
p33
sg6
I689
sg7
I691
sa(dp34
g3
I0
sg4
VLast
p35
sg6
I867
sg7
I870
sa(dp36
g3
I0
sg4
VEisenberg
p37
sg6
I910
sg7
I918
sa(dp38
g3
I0
sg4
VCenters
p39
sg6
I936
sg7
I942
sa(dp40
g3
I0
sg4
VDisease
p41
sg6
I948
sg7
I954
sa(dp42
g3
I0
sg4
VControl
p43
sg6
I956
sg7
I962
sa(dp44
g3
I0
sg4
VPrevention
p45
sg6
I968
sg7
I977
sa(dp46
g3
I0
sg4
VAtlanta
p47
sg6
I982
sg7
I988
sa(dp48
g3
I0
sg4
VPace
p49
sg6
I1122
sg7
I1125
sa(dp50
g3
I0
sg4
VRebecca
p51
sg6
I1421
sg7
I1427
sa(dp52
g3
I0
sg4
VTekula
p53
sg6
I1429
sg7
I1434
sa(dp54
g3
I1
sg4
VPace
p55
sg6
I1458
sg7
I1461
sa(dp56
g3
I0
sg4
VWilson
p57
sg6
I1465
sg7
I1470
sa(dp58
g3
I0
sg4
VCenter
p59
sg6
I1472
sg7
I1477
sa(dp60
g3
I0
sg4
VSocial
p61
sg6
I1483
sg7
I1488
sa(dp62
g3
I0
sg4
VEntrepreneurship.
p63
sg6
I1490
sg7
I1506
sa(dp64
g3
I0
sg4
VNew
p65
sg6
I1564
sg7
I1566
sa(dp66
g3
I0
sg4
VYork
p67
sg6
I1568
sg7
I1571
sa(dp68
g3
I0
sg4
VCity
p69
sg6
I1573
sg7
I1576
sa(dp70
g3
I0
sg4
VGreyston
p71
sg6
I1583
sg7
I1590
sa(dp72
g3
I0
sg4
VBakery
p73
sg6
I1592
sg7
I1597
sa(dp74
g3
I0
sg4
VHousing
p75
sg6
I1599
sg7
I1605
sa(dp76
g3
I0
sg4
VWorks
p77
sg6
I1607
sg7
I1611
sa(dp78
g3
I0
sg4
VLegal
p79
sg6
I1621
sg7
I1625
sa(dp80
g3
I0
sg4
VAid
p81
sg6
I1627
sg7
I1629
sa(dp82
g3
I0
sg4
VSociety.
p83
sg6
I1631
sg7
I1638
sa(dp84
g3
I0
sg4
VElizabeth
p85
sg6
I1640
sg7
I1648
sa(dp86
g3
I0
sg4
VPooran
p87
sg6
I1650
sg7
I1655
sa(dp88
g3
I0
sg4
VSenior
p89
sg6
I1679
sg7
I1684
sa(dp90
g3
I0
sg4
VPlanet
p91
sg6
I1686
sg7
I1691
sa(dp92
g3
I0
sg4
VExploration
p93
sg6
I1693
sg7
I1703
sa(dp94
g3
I0
sg4
VCenter
p95
sg6
I1705
sg7
I1710
sa(dp96
g3
I0
sg4
VChelsea
p97
sg6
I1715
sg7
I1721
sa(dp98
g3
I0
sg4
VLatino
p99
sg6
I1892
sg7
I1897
sa(dp100
g3
I0
sg4
VAccess
p101
sg6
I1909
sg7
I1914
sa(dp102
g3
I0
sg4
VPace
p103
sg6
I1997
sg7
I2000
sa(dp104
g3
I0
sg4
VPace
p105
sg6
I2120
sg7
I2123
sa(dp106
g3
I0
sg4
VShirley
p107
sg6
I2149
sg7
I2155
sa(dp108
g3
I0
sg4
VAcevedo
p109
sg6
I2157
sg7
I2163
sa(dp110
g3
I0
sg4
VBuontempo
p111
sg6
I2165
sg7
I2173
sa(dp112
g3
I0
sg4
VWilson
p113
sg6
I2204
sg7
I2209
sasI2
(lp114
(dp115
g3
I0
sg4
VMeredith Daw
p116
sg6
I132
sg7
I143
sa(dp117
g3
I0
sg4
VJeff Metcalf
p118
sg6
I271
sg7
I282
sa(dp119
g3
I0
sg4
VMetcalf Internship
p120
sg6
I276
sg7
I293
sa(dp121
g3
I0
sg4
VInternship Program.
p122
sg6
I284
sg7
I302
sa(dp123
g3
I0
sg4
VOdyssey Scholars
p124
sg6
I561
sg7
I576
sa(dp125
g3
I0
sg4
VDisease Control
p126
sg6
I948
sg7
I962
sa(dp127
g3
I1
sg4
VPace University
p128
sg6
I1122
sg7
I1136
sa(dp129
g3
I0
sg4
VRebecca Tekula
p130
sg6
I1421
sg7
I1434
sa(dp131
g3
I0
sg4
VWilson Center
p132
sg6
I1465
sg7
I1477
sa(dp133
g3
I0
sg4
VSocial Entrepreneurship.
p134
sg6
I1483
sg7
I1506
sa(dp135
g3
I0
sg4
VNew York
p136
sg6
I1564
sg7
I1571
sa(dp137
g3
I0
sg4
VYork City
p138
sg6
I1568
sg7
I1576
sa(dp139
g3
I0
sg4
VGreyston Bakery
p140
sg6
I1583
sg7
I1597
sa(dp141
g3
I0
sg4
VBakery Housing
p142
sg6
I1592
sg7
I1605
sa(dp143
g3
I0
sg4
VHousing Works
p144
sg6
I1599
sg7
I1611
sa(dp145
g3
I0
sg4
VLegal Aid
p146
sg6
I1621
sg7
I1629
sa(dp147
g3
I0
sg4
VAid Society.
p148
sg6
I1627
sg7
I1638
sa(dp149
g3
I0
sg4
VElizabeth Pooran
p150
sg6
I1640
sg7
I1655
sa(dp151
g3
I0
sg4
VSenior Planet
p152
sg6
I1679
sg7
I1691
sa(dp153
g3
I0
sg4
VPlanet Exploration
p154
sg6
I1686
sg7
I1703
sa(dp155
g3
I0
sg4
VExploration Center
p156
sg6
I1693
sg7
I1710
sa(dp157
g3
I0
sg4
VLatino U
p158
sg6
I1892
sg7
I1899
sa(dp159
g3
I0
sg4
VU College
p160
sg6
I1899
sg7
I1907
sa(dp161
g3
I0
sg4
VCollege Access
p162
sg6
I1901
sg7
I1914
sa(dp163
g3
I1
sg4
VPace University
p164
sg6
I2120
sg7
I2134
sa(dp165
g3
I0
sg4
VShirley Acevedo
p166
sg6
I2149
sg7
I2163
sa(dp167
g3
I0
sg4
VAcevedo Buontempo
p168
sg6
I2157
sg7
I2173
sasI3
(lp169
(dp170
g3
I1
sg4
VUniversity of Chicago.
p171
sg6
I193
sg7
I214
sa(dp172
g3
I0
sg4
VJeff Metcalf Internship
p173
sg6
I271
sg7
I293
sa(dp174
g3
I0
sg4
VMetcalf Internship Program.
p175
sg6
I276
sg7
I302
sa(dp176
g3
I0
sg4
VControl and Prevention
p177
sg6
I956
sg7
I977
sa(dp178
g3
I0
sg4
VNew York City
p179
sg6
I1564
sg7
I1576
sa(dp180
g3
I0
sg4
VGreyston Bakery Housing
p181
sg6
I1583
sg7
I1605
sa(dp182
g3
I0
sg4
VBakery Housing Works
p183
sg6
I1592
sg7
I1611
sa(dp184
g3
I0
sg4
VLegal Aid Society.
p185
sg6
I1621
sg7
I1638
sa(dp186
g3
I0
sg4
VSenior Planet Exploration
p187
sg6
I1679
sg7
I1703
sa(dp188
g3
I0
sg4
VPlanet Exploration Center
p189
sg6
I1686
sg7
I1710
sa(dp190
g3
I0
sg4
VLatino U College
p191
sg6
I1892
sg7
I1907
sa(dp192
g3
I0
sg4
VU College Access
p193
sg6
I1899
sg7
I1914
sa(dp194
g3
I0
sg4
VShirley Acevedo Buontempo
p195
sg6
I2149
sg7
I2173
sasI4
(lp196
(dp197
g3
I0
sg4
VJeff Metcalf Internship Program.
p198
sg6
I271
sg7
I302
sa(dp199
g3
I0
sg4
VDisease Control and Prevention
p200
sg6
I948
sg7
I977
sa(dp201
g3
I0
sg4
VGreyston Bakery Housing Works
p202
sg6
I1583
sg7
I1611
sa(dp203
g3
I0
sg4
VSenior Planet Exploration Center
p204
sg6
I1679
sg7
I1710
sa(dp205
g3
I0
sg4
VLatino U College Access
p206
sg6
I1892
sg7
I1914
sasI5
(lp207
sI6
(lp208
s.