(dp0
I1
(lp1
(dp2
S'label'
p3
I0
sS'string'
p4
VMacalester
p5
sS'start_index'
p6
I0
sS'end_index'
p7
I9
sa(dp8
g3
I1
sg4
VGeorgia
p9
sg6
I122
sg7
I128
sa(dp10
g3
I0
sg4
VLast
p11
sg6
I187
sg7
I190
sa(dp12
g3
I0
sg4
VMindy
p13
sg6
I342
sg7
I346
sa(dp14
g3
I0
sg4
VDeardurff
p15
sg6
I348
sg7
I356
sa(dp16
g3
I0
sg4
VSt.
p17
sg6
I392
sg7
I394
sa(dp18
g3
I0
sg4
VPaul
p19
sg6
I396
sg7
I399
sa(dp20
g3
I0
sg4
VEspecially
p21
sg6
I409
sg7
I418
sa(dp22
g3
I0
sg4
VAmherst
p23
sg6
I635
sg7
I641
sa(dp24
g3
I0
sg4
VJack
p25
sg6
I882
sg7
I885
sa(dp26
g3
I0
sg4
VKent
p27
sg6
I887
sg7
I890
sa(dp28
g3
I0
sg4
VCooke
p29
sg6
I892
sg7
I896
sa(dp30
g3
I0
sg4
VFoundation
p31
sg6
I898
sg7
I907
sa(dp32
g3
I1
sg4
VAmherst
p33
sg6
I985
sg7
I991
sa(dp34
g3
I0
sg4
VEmily
p35
sg6
I1169
sg7
I1173
sa(dp36
g3
I0
sg4
VGriffen
p37
sg6
I1178
sg7
I1184
sa(dp38
g3
I1
sg4
VAmherst
p39
sg6
I1198
sg7
I1204
sa(dp40
g3
I0
sg4
VLoeb
p41
sg6
I1208
sg7
I1211
sa(dp42
g3
I0
sg4
VCenter
p43
sg6
I1213
sg7
I1218
sa(dp44
g3
I0
sg4
VCareer
p45
sg6
I1224
sg7
I1229
sa(dp46
g3
I0
sg4
VExploration
p47
sg6
I1231
sg7
I1241
sa(dp48
g3
I0
sg4
VPlanning.
p49
sg6
I1247
sg7
I1255
sa(dp50
g3
I0
sg4
VMichael
p51
sg6
I1257
sg7
I1263
sa(dp52
g3
I0
sg4
VLoeb
p53
sg6
I1265
sg7
I1268
sa(dp54
g3
I0
sg4
VLoeb
p55
sg6
I1303
sg7
I1306
sa(dp56
g3
I0
sg4
VEnterprises
p57
sg6
I1308
sg7
I1318
sa(dp58
g3
I0
sg4
VNew
p59
sg6
I1497
sg7
I1499
sa(dp60
g3
I0
sg4
VYork
p61
sg6
I1501
sg7
I1504
sa(dp62
g3
I0
sg4
VCity
p63
sg6
I1506
sg7
I1509
sa(dp64
g3
I1
sg4
VAmherst
p65
sg6
I1516
sg7
I1522
sa(dp66
g3
I0
sg4
VColgate
p67
sg6
I1698
sg7
I1704
sa(dp68
g3
I0
sg4
VLast
p69
sg6
I1879
sg7
I1882
sa(dp70
g3
I0
sg4
VMichael
p71
sg6
I1912
sg7
I1918
sa(dp72
g3
I0
sg4
VSciola
p73
sg6
I1920
sg7
I1925
sa(dp74
g3
I1
sg4
VColgate
p75
sg6
I2005
sg7
I2011
sa(dp76
g3
I0
sg4
VAlaska.
p77
sg6
I2317
sg7
I2323
sasI2
(lp78
(dp79
g3
I1
sg4
VMacalester College
p80
sg6
I0
sg7
I17
sa(dp81
g3
I0
sg4
VMindy Deardurff
p82
sg6
I342
sg7
I356
sa(dp83
g3
I0
sg4
VSt. Paul
p84
sg6
I392
sg7
I399
sa(dp85
g3
I1
sg4
VAmherst College
p86
sg6
I635
sg7
I649
sa(dp87
g3
I0
sg4
VJack Kent
p88
sg6
I882
sg7
I890
sa(dp89
g3
I0
sg4
VKent Cooke
p90
sg6
I887
sg7
I896
sa(dp91
g3
I0
sg4
VCooke Foundation
p92
sg6
I892
sg7
I907
sa(dp93
g3
I0
sg4
VEmily C.
p94
sg6
I1169
sg7
I1176
sa(dp95
g3
I0
sg4
VC. Griffen
p96
sg6
I1175
sg7
I1184
sa(dp97
g3
I0
sg4
VLoeb Center
p98
sg6
I1208
sg7
I1218
sa(dp99
g3
I0
sg4
VCareer Exploration
p100
sg6
I1224
sg7
I1241
sa(dp101
g3
I0
sg4
VMichael Loeb
p102
sg6
I1257
sg7
I1268
sa(dp103
g3
I0
sg4
VLoeb Enterprises
p104
sg6
I1303
sg7
I1318
sa(dp105
g3
I0
sg4
VNew York
p106
sg6
I1497
sg7
I1504
sa(dp107
g3
I0
sg4
VYork City
p108
sg6
I1501
sg7
I1509
sa(dp109
g3
I1
sg4
VColgate University
p110
sg6
I1698
sg7
I1715
sa(dp111
g3
I0
sg4
VMichael Sciola
p112
sg6
I1912
sg7
I1925
sasI3
(lp113
(dp114
g3
I0
sg4
VJack Kent Cooke
p115
sg6
I882
sg7
I896
sa(dp116
g3
I0
sg4
VKent Cooke Foundation
p117
sg6
I887
sg7
I907
sa(dp118
g3
I0
sg4
VEmily C. Griffen
p119
sg6
I1169
sg7
I1184
sa(dp120
g3
I0
sg4
VExploration and Planning.
p121
sg6
I1231
sg7
I1255
sa(dp122
g3
I0
sg4
VNew York City
p123
sg6
I1497
sg7
I1509
sasI4
(lp124
(dp125
g3
I0
sg4
VJack Kent Cooke Foundation
p126
sg6
I882
sg7
I907
sa(dp127
g3
I0
sg4
VCareer Exploration and Planning.
p128
sg6
I1224
sg7
I1255
sasI5
(lp129
sI6
(lp130
s.