(dp0
I1
(lp1
(dp2
S'label'
p3
I0
sS'string'
p4
VRebecca
p5
sS'start_index'
p6
I124
sS'end_index'
p7
I130
sa(dp8
g3
I0
sg4
VTekula
p9
sg6
I132
sg7
I137
sa(dp10
g3
I1
sg4
VPace
p11
sg6
I161
sg7
I164
sa(dp12
g3
I0
sg4
VWilson
p13
sg6
I168
sg7
I173
sa(dp14
g3
I0
sg4
VCenter
p15
sg6
I175
sg7
I180
sa(dp16
g3
I0
sg4
VSocial
p17
sg6
I186
sg7
I191
sa(dp18
g3
I0
sg4
VEntrepreneurship
p19
sg6
I193
sg7
I208
sa(dp20
g3
I0
sg4
VPhyllis
p21
sg6
I214
sg7
I220
sa(dp22
g3
I0
sg4
VMooney
p23
sg6
I222
sg7
I227
sasI2
(lp24
(dp25
g3
I0
sg4
VRebecca Tekula
p26
sg6
I124
sg7
I137
sa(dp27
g3
I0
sg4
VWilson Center
p28
sg6
I168
sg7
I180
sa(dp29
g3
I0
sg4
VSocial Entrepreneurship
p30
sg6
I186
sg7
I208
sa(dp31
g3
I0
sg4
VPhyllis Mooney
p32
sg6
I214
sg7
I227
sasI3
(lp33
sI4
(lp34
sI5
(lp35
sI6
(lp36
s.