(dp0
I1
(lp1
(dp2
S'label'
p3
I0
sS'string'
p4
VChicago
p5
sS'start_index'
p6
I32
sS'end_index'
p7
I38
sa(dp8
g3
I0
sg4
VKen
p9
sg6
I74
sg7
I76
sa(dp10
g3
I0
sg4
VGriffin
p11
sg6
I78
sg7
I84
sa(dp12
g3
I0
sg4
VCitadel.
p13
sg6
I116
sg7
I123
sa(dp14
g3
I0
sg4
VChicago
p15
sg6
I129
sg7
I135
sa(dp16
g3
I0
sg4
VEconomics
p17
sg6
I147
sg7
I155
sa(dp18
g3
I0
sg4
VGriffin
p19
sg6
I226
sg7
I232
sa(dp20
g3
I0
sg4
VMilton
p21
sg6
I391
sg7
I396
sa(dp22
g3
I0
sg4
VFriedman
p23
sg6
I398
sg7
I405
sa(dp24
g3
I0
sg4
VEugene
p25
sg6
I425
sg7
I430
sa(dp26
g3
I0
sg4
VFama
p27
sg6
I432
sg7
I435
sa(dp28
g3
I0
sg4
VChicago.
p29
sg6
I465
sg7
I472
sa(dp30
g3
I0
sg4
VLook
p31
sg6
I474
sg7
I477
sa(dp32
g3
I0
sg4
VNobel
p33
sg6
I507
sg7
I511
sa(dp34
g3
I0
sg4
VPrize
p35
sg6
I513
sg7
I517
sa(dp36
g3
I0
sg4
VRichard
p37
sg6
I569
sg7
I575
sa(dp38
g3
I0
sg4
VThaler.
p39
sg6
I577
sg7
I583
sa(dp40
g3
I0
sg4
VCitadel
p41
sg6
I693
sg7
I699
sa(dp42
g3
I0
sg4
VFama
p43
sg6
I1084
sg7
I1087
sa(dp44
g3
I0
sg4
VGriffin
p45
sg6
I1197
sg7
I1203
sa(dp46
g3
I0
sg4
VForbes
p47
sg6
I1266
sg7
I1271
sa(dp48
g3
I0
sg4
VAmericans
p49
sg6
I1300
sg7
I1308
sa(dp50
g3
I0
sg4
VDavid
p51
sg6
I1453
sg7
I1457
sa(dp52
g3
I0
sg4
VBooth
p53
sg6
I1459
sg7
I1463
sasI2
(lp54
(dp55
g3
I0
sg4
VKen Griffin
p56
sg6
I74
sg7
I84
sa(dp57
g3
I0
sg4
VChicago School
p58
sg6
I129
sg7
I142
sa(dp59
g3
I0
sg4
VMilton Friedman
p60
sg6
I391
sg7
I405
sa(dp61
g3
I0
sg4
VEugene Fama
p62
sg6
I425
sg7
I435
sa(dp63
g3
I0
sg4
VNobel Prize
p64
sg6
I507
sg7
I517
sa(dp65
g3
I0
sg4
VRichard Thaler.
p66
sg6
I569
sg7
I583
sa(dp67
g3
I0
sg4
VDavid Booth
p68
sg6
I1453
sg7
I1463
sasI3
(lp69
(dp70
g3
I1
sg4
VUniversity of Chicago
p71
sg6
I18
sg7
I38
sa(dp72
g3
I0
sg4
VSchool of Economics
p73
sg6
I137
sg7
I155
sasI4
(lp74
(dp75
g3
I1
sg4
VChicago School of Economics
p76
sg6
I129
sg7
I155
sasI5
(lp77
sI6
(lp78
s.