(dp0
I1
(lp1
(dp2
S'label'
p3
I0
sS'string'
p4
VHartford
p5
sS'start_index'
p6
I31
sS'end_index'
p7
I38
sa(dp8
g3
I0
sg4
VConnecticut
p9
sg6
I43
sg7
I53
sa(dp10
g3
I0
sg4
VBrianna
p11
sg6
I268
sg7
I274
sa(dp12
g3
I0
sg4
VBrochu
p13
sg6
I276
sg7
I281
sa(dp14
g3
I0
sg4
VInstagram
p15
sg6
I348
sg7
I356
sa(dp16
g3
I0
sg4
VChennel
p17
sg6
I494
sg7
I500
sa(dp18
g3
I0
sg4
VRowe
p19
sg6
I502
sg7
I505
sa(dp20
g3
I0
sg4
VJamaican
p21
sg6
I531
sg7
I538
sa(dp22
g3
I0
sg4
VBarbie.
p23
sg6
I540
sg7
I546
sa(dp24
g3
I0
sg4
VJamaican
p25
sg6
I783
sg7
I790
sa(dp26
g3
I0
sg4
VBarbie
p27
sg6
I792
sg7
I797
sa(dp28
g3
I0
sg4
VBrochu
p29
sg6
I847
sg7
I852
sa(dp30
g3
I0
sg4
VRowe
p31
sg6
I867
sg7
I870
sa(dp32
g3
I0
sg4
VLt.
p33
sg6
I882
sg7
I884
sa(dp34
g3
I0
sg4
VMichael
p35
sg6
I886
sg7
I892
sa(dp36
g3
I0
sg4
VPerruccio
p37
sg6
I894
sg7
I902
sa(dp38
g3
I0
sg4
VWest
p39
sg6
I911
sg7
I914
sa(dp40
g3
I0
sg4
VHartford
p41
sg6
I916
sg7
I923
sa(dp42
g3
I0
sg4
VPolice
p43
sg6
I925
sg7
I930
sa(dp44
g3
I0
sg4
VDepartment
p45
sg6
I932
sg7
I941
sa(dp46
g3
I0
sg4
VOct.
p47
sg6
I998
sg7
I1001
sa(dp48
g3
I0
sg4
VBrochu
p49
sg6
I1019
sg7
I1024
sa(dp50
g3
I0
sg4
VSaturday.
p51
sg6
I1047
sg7
I1055
sasI2
(lp52
(dp53
g3
I0
sg4
VBrianna Brochu
p54
sg6
I268
sg7
I281
sa(dp55
g3
I0
sg4
VChennel Rowe
p56
sg6
I494
sg7
I505
sa(dp57
g3
I0
sg4
VJamaican Barbie.
p58
sg6
I531
sg7
I546
sa(dp59
g3
I0
sg4
VJamaican Barbie
p60
sg6
I783
sg7
I797
sa(dp61
g3
I0
sg4
VLt. Michael
p62
sg6
I882
sg7
I892
sa(dp63
g3
I0
sg4
VMichael Perruccio
p64
sg6
I886
sg7
I902
sa(dp65
g3
I0
sg4
VWest Hartford
p66
sg6
I911
sg7
I923
sa(dp67
g3
I0
sg4
VHartford Police
p68
sg6
I916
sg7
I930
sa(dp69
g3
I0
sg4
VPolice Department
p70
sg6
I925
sg7
I941
sasI3
(lp71
(dp72
g3
I1
sg4
VUniversity of Hartford
p73
sg6
I17
sg7
I38
sa(dp74
g3
I0
sg4
VLt. Michael Perruccio
p75
sg6
I882
sg7
I902
sa(dp76
g3
I0
sg4
VWest Hartford Police
p77
sg6
I911
sg7
I930
sa(dp78
g3
I0
sg4
VHartford Police Department
p79
sg6
I916
sg7
I941
sasI4
(lp80
(dp81
g3
I0
sg4
VWest Hartford Police Department
p82
sg6
I911
sg7
I941
sasI5
(lp83
sI6
(lp84
s.