(dp0
I1
(lp1
(dp2
S'label'
p3
I0
sS'string'
p4
VBrianna
p5
sS'start_index'
p6
I19
sS'end_index'
p7
I25
sa(dp8
g3
I0
sg4
VBrochu
p9
sg6
I27
sg7
I32
sa(dp10
g3
I0
sg4
VHartford
p11
sg6
I78
sg7
I85
sa(dp12
g3
I0
sg4
VGregory
p13
sg6
I115
sg7
I121
sa(dp14
g3
I0
sg4
VWoodward.
p15
sg6
I126
sg7
I134
sasI2
(lp16
(dp17
g3
I0
sg4
VBrianna Brochu
p18
sg6
I19
sg7
I32
sa(dp19
g3
I0
sg4
VGregory S.
p20
sg6
I115
sg7
I124
sa(dp21
g3
I0
sg4
VS. Woodward.
p22
sg6
I123
sg7
I134
sasI3
(lp23
(dp24
g3
I1
sg4
VUniversity of Hartford
p25
sg6
I64
sg7
I85
sa(dp26
g3
I0
sg4
VGregory S. Woodward.
p27
sg6
I115
sg7
I134
sasI4
(lp28
sI5
(lp29
sI6
(lp30
s.