(dp0
I1
(lp1
(dp2
S'label'
p3
I0
sS'string'
p4
VTurning
p5
sS'start_index'
p6
I38
sS'end_index'
p7
I44
sa(dp8
g3
I0
sg4
VTide
p9
sg6
I50
sg7
I53
sa(dp10
g3
I0
sg4
VMassachusetts
p11
sg6
I164
sg7
I176
sa(dp12
g3
I0
sg4
VTechnology
p13
sg6
I191
sg7
I200
sa(dp14
g3
I0
sg4
VBelize
p15
sg6
I333
sg7
I338
sa(dp16
g3
I0
sg4
VShowing
p17
sg6
I417
sg7
I423
sa(dp18
g3
I0
sg4
VOpen
p19
sg6
I723
sg7
I726
sa(dp20
g3
I0
sg4
VConnect
p21
sg6
I742
sg7
I748
sa(dp22
g3
I0
sg4
VLet
p23
sg6
I776
sg7
I778
sasI2
(lp24
(dp25
g3
I0
sg4
VMassachusetts Institute
p26
sg6
I164
sg7
I186
sa(dp27
g3
I0
sg4
V. Showing
p28
sg6
I415
sg7
I423
sasI3
(lp29
(dp30
g3
I0
sg4
VInstitute of Technology
p31
sg6
I178
sg7
I200
sasI4
(lp32
(dp33
g3
I1
sg4
VMassachusetts Institute of Technology
p34
sg6
I164
sg7
I200
sasI5
(lp35
sI6
(lp36
s.