(dp0
I1
(lp1
(dp2
S'label'
p3
I0
sS'string'
p4
VWhatever
p5
sS'start_index'
p6
I0
sS'end_index'
p7
I7
sa(dp8
g3
I0
sg4
VMichael
p9
sg6
I167
sg7
I173
sa(dp10
g3
I0
sg4
VYoung
p11
sg6
I175
sg7
I179
sa(dp12
g3
I0
sg4
VBritish
p13
sg6
I183
sg7
I189
sa(dp14
g3
I0
sg4
VRebecca
p15
sg6
I360
sg7
I366
sa(dp16
g3
I0
sg4
VZwick
p17
sg6
I368
sg7
I372
sa(dp18
g3
I0
sg4
VGets
p19
sg6
I403
sg7
I406
sa(dp20
g3
I0
sg4
VZwick
p21
sg6
I610
sg7
I614
sa(dp22
g3
I0
sg4
VCalifornia
p23
sg6
I656
sg7
I665
sa(dp24
g3
I0
sg4
VSanta
p25
sg6
I670
sg7
I674
sa(dp26
g3
I0
sg4
VBarbara
p27
sg6
I676
sg7
I682
sa(dp28
g3
I0
sg4
VEducational
p29
sg6
I718
sg7
I728
sa(dp30
g3
I0
sg4
VTesting
p31
sg6
I730
sg7
I736
sa(dp32
g3
I0
sg4
VService
p33
sg6
I738
sg7
I744
sa(dp34
g3
I0
sg4
VSAT.
p35
sg6
I781
sg7
I784
sasI2
(lp36
(dp37
g3
I0
sg4
VMichael Young
p38
sg6
I167
sg7
I179
sa(dp39
g3
I0
sg4
VRebecca Zwick
p40
sg6
I360
sg7
I372
sa(dp41
g3
I0
sg4
VSanta Barbara
p42
sg6
I670
sg7
I682
sa(dp43
g3
I0
sg4
VEducational Testing
p44
sg6
I718
sg7
I736
sa(dp45
g3
I0
sg4
VTesting Service
p46
sg6
I730
sg7
I744
sasI3
(lp47
(dp48
g3
I1
sg4
VUniversity of California
p49
sg6
I642
sg7
I665
sa(dp50
g3
I0
sg4
VEducational Testing Service
p51
sg6
I718
sg7
I744
sasI4
(lp52
sI5
(lp53
sI6
(lp54
s.