(dp0
I1
(lp1
(dp2
S'label'
p3
I0
sS'string'
p4
VAdvanced
p5
sS'start_index'
p6
I203
sS'end_index'
p7
I210
sa(dp8
g3
I0
sg4
VPlacement
p9
sg6
I212
sg7
I220
sa(dp10
g3
I0
sg4
VJust
p11
sg6
I323
sg7
I326
sa(dp12
g3
I0
sg4
VAngel
p13
sg6
I545
sg7
I549
sa(dp14
g3
I0
sg4
VTrinity
p15
sg6
I613
sg7
I619
sa(dp16
g3
I0
sg4
VHartford.
p17
sg6
I632
sg7
I640
sa(dp18
g3
I0
sg4
VNational
p19
sg6
I787
sg7
I794
sa(dp20
g3
I0
sg4
VAssociation
p21
sg6
I796
sg7
I806
sa(dp22
g3
I0
sg4
VAdmission
p23
sg6
I820
sg7
I828
sa(dp24
g3
I0
sg4
VCounseling
p25
sg6
I830
sg7
I839
sa(dp26
g3
I0
sg4
VIndeed
p27
sg6
I1266
sg7
I1271
sa(dp28
g3
I0
sg4
VSuccess
p29
sg6
I1389
sg7
I1395
sa(dp30
g3
I0
sg4
VGenerally
p31
sg6
I1444
sg7
I1452
sa(dp32
g3
I0
sg4
VACT
p33
sg6
I1556
sg7
I1558
sa(dp34
g3
I0
sg4
VSAT
p35
sg6
I1560
sg7
I1562
sa(dp36
g3
I0
sg4
VGrade
p37
sg6
I1709
sg7
I1713
sa(dp38
g3
I0
sg4
VStandardized
p39
sg6
I1834
sg7
I1845
sa(dp40
g3
I0
sg4
VAsian
p41
sg6
I1898
sg7
I1902
sa(dp42
g3
I0
sg4
VAmerican
p43
sg6
I1904
sg7
I1911
sa(dp44
g3
I0
sg4
VHispanic
p45
sg6
I1949
sg7
I1956
sa(dp46
g3
I0
sg4
VAlso
p47
sg6
I1971
sg7
I1974
sa(dp48
g3
I0
sg4
VDid
p49
sg6
I2296
sg7
I2298
sa(dp50
g3
I0
sg4
VDid
p51
sg6
I2363
sg7
I2365
sasI2
(lp52
(dp53
g3
I0
sg4
VAdvanced Placement
p54
sg6
I203
sg7
I220
sa(dp55
g3
I0
sg4
VAngel B.
p56
sg6
I545
sg7
I552
sa(dp57
g3
I0
sg4
VB. P
p58
sg6
I551
sg7
I554
sa(dp59
g3
I1
sg4
VTrinity College
p60
sg6
I613
sg7
I627
sa(dp61
g3
I0
sg4
VNational Association
p62
sg6
I787
sg7
I806
sa(dp63
g3
I0
sg4
VCollege Admission
p64
sg6
I812
sg7
I828
sa(dp65
g3
I0
sg4
VAdmission Counseling
p66
sg6
I820
sg7
I839
sa(dp67
g3
I0
sg4
VACT SAT
p68
sg6
I1556
sg7
I1562
sa(dp69
g3
I0
sg4
VAsian American
p70
sg6
I1898
sg7
I1911
sasI3
(lp71
(dp72
g3
I0
sg4
VAngel B. P
p73
sg6
I545
sg7
I554
sa(dp74
g3
I0
sg4
VCollege Admission Counseling
p75
sg6
I812
sg7
I839
sasI4
(lp76
sI5
(lp77
sI6
(lp78
s.