(dp0
I1
(lp1
(dp2
S'label'
p3
I0
sS'string'
p4
VApplicants
p5
sS'start_index'
p6
I0
sS'end_index'
p7
I9
sa(dp8
g3
I0
sg4
VOlin
p9
sg6
I14
sg7
I17
sa(dp10
g3
I0
sg4
VEngineering
p11
sg6
I30
sg7
I40
sasI2
(lp12
(dp13
g3
I0
sg4
VOlin College
p14
sg6
I14
sg7
I25
sasI3
(lp15
(dp16
g3
I0
sg4
VCollege of Engineering
p17
sg6
I19
sg7
I40
sasI4
(lp18
(dp19
g3
I1
sg4
VOlin College of Engineering
p20
sg6
I14
sg7
I40
sasI5
(lp21
sI6
(lp22
s.