(dp0
I1
(lp1
(dp2
S'label'
p3
I0
sS'string'
p4
VLast
p5
sS'start_index'
p6
I0
sS'end_index'
p7
I3
sa(dp8
g3
I0
sg4
VBetsy
p9
sg6
I10
sg7
I14
sa(dp10
g3
I0
sg4
VDeVos
p11
sg6
I16
sg7
I20
sa(dp12
g3
I0
sg4
VTrump
p13
sg6
I68
sg7
I72
sa(dp14
g3
I0
sg4
VWhite
p15
sg6
I74
sg7
I78
sa(dp16
g3
I0
sg4
VHouse
p17
sg6
I80
sg7
I84
sa(dp18
g3
I0
sg4
VObama
p19
sg6
I108
sg7
I112
sa(dp20
g3
I0
sg4
VTwitter
p21
sg6
I284
sg7
I290
sa(dp22
g3
I0
sg4
VTrump
p23
sg6
I390
sg7
I394
sa(dp24
g3
I0
sg4
VDeVos
p25
sg6
I407
sg7
I411
sa(dp26
g3
I0
sg4
VPerhaps
p27
sg6
I421
sg7
I427
sa(dp28
g3
I0
sg4
VAtlantic
p29
sg6
I469
sg7
I476
sa(dp30
g3
I0
sg4
VEmily
p31
sg6
I530
sg7
I534
sa(dp32
g3
I0
sg4
VYoffe
p33
sg6
I536
sg7
I540
sa(dp34
g3
I0
sg4
VTitle
p35
sg6
I1315
sg7
I1319
sa(dp36
g3
I1
sg4
VHarvard
p37
sg6
I1348
sg7
I1354
sa(dp38
g3
I0
sg4
VYoffe
p39
sg6
I1356
sg7
I1360
sa(dp40
g3
I0
sg4
VRoosevelt
p41
sg6
I1498
sg7
I1506
sa(dp42
g3
I0
sg4
VIsland
p43
sg6
I1508
sg7
I1513
sa(dp44
g3
I0
sg4
VManhattan
p45
sg6
I1562
sg7
I1570
sa(dp46
g3
I0
sg4
VQueens
p47
sg6
I1576
sg7
I1581
sa(dp48
g3
I0
sg4
VEast
p49
sg6
I1590
sg7
I1593
sa(dp50
g3
I0
sg4
VRiver
p51
sg6
I1595
sg7
I1599
sa(dp52
g3
I0
sg4
VCornell
p53
sg6
I1759
sg7
I1765
sa(dp54
g3
I0
sg4
VTech
p55
sg6
I1767
sg7
I1770
sa(dp56
g3
I0
sg4
VNew
p57
sg6
I1931
sg7
I1933
sa(dp58
g3
I0
sg4
VYork
p59
sg6
I1935
sg7
I1938
sa(dp60
g3
I0
sg4
VCity
p61
sg6
I1940
sg7
I1943
sa(dp62
g3
I0
sg4
VBloomberg
p63
sg6
I2015
sg7
I2023
sa(dp64
g3
I0
sg4
VCornell
p65
sg6
I2133
sg7
I2139
sa(dp66
g3
I0
sg4
VTechnion
p67
sg6
I2172
sg7
I2179
sa(dp68
g3
I0
sg4
VIsrael
p69
sg6
I2181
sg7
I2186
sa(dp70
g3
I0
sg4
VTechnology
p71
sg6
I2201
sg7
I2210
sa(dp72
g3
I0
sg4
VRoosevelt
p73
sg6
I2304
sg7
I2312
sa(dp74
g3
I0
sg4
VIsland.
p75
sg6
I2314
sg7
I2320
sa(dp76
g3
I0
sg4
VMichael
p77
sg6
I2475
sg7
I2481
sa(dp78
g3
I0
sg4
VBloomberg
p79
sg6
I2486
sg7
I2494
sa(dp80
g3
I0
sg4
VSilicon
p81
sg6
I2534
sg7
I2540
sa(dp82
g3
I0
sg4
VValley.
p83
sg6
I2542
sg7
I2548
sa(dp84
g3
I0
sg4
VNew
p85
sg6
I2643
sg7
I2645
sa(dp86
g3
I0
sg4
VYork
p87
sg6
I2647
sg7
I2650
sa(dp88
g3
I0
sg4
VCity.
p89
sg6
I2652
sg7
I2656
sasI2
(lp90
(dp91
g3
I0
sg4
VBetsy DeVos
p92
sg6
I10
sg7
I20
sa(dp93
g3
I0
sg4
VTrump White
p94
sg6
I68
sg7
I78
sa(dp95
g3
I0
sg4
VWhite House
p96
sg6
I74
sg7
I84
sa(dp97
g3
I0
sg4
VEmily Yoffe
p98
sg6
I530
sg7
I540
sa(dp99
g3
I0
sg4
VTitle IX
p100
sg6
I1315
sg7
I1322
sa(dp101
g3
I0
sg4
VHarvard Yoffe
p102
sg6
I1348
sg7
I1360
sa(dp103
g3
I0
sg4
VRoosevelt Island
p104
sg6
I1498
sg7
I1513
sa(dp105
g3
I0
sg4
VEast River
p106
sg6
I1590
sg7
I1599
sa(dp107
g3
I1
sg4
VCornell Tech
p108
sg6
I1759
sg7
I1770
sa(dp109
g3
I0
sg4
VNew York
p110
sg6
I1931
sg7
I1938
sa(dp111
g3
I0
sg4
VYork City
p112
sg6
I1935
sg7
I1943
sa(dp113
g3
I1
sg4
VCornell University
p114
sg6
I2133
sg7
I2150
sa(dp115
g3
I0
sg4
VTechnion Israel
p116
sg6
I2172
sg7
I2186
sa(dp117
g3
I0
sg4
VIsrael Institute
p118
sg6
I2181
sg7
I2196
sa(dp119
g3
I0
sg4
VRoosevelt Island.
p120
sg6
I2304
sg7
I2320
sa(dp121
g3
I0
sg4
VMichael R.
p122
sg6
I2475
sg7
I2484
sa(dp123
g3
I0
sg4
VR. Bloomberg
p124
sg6
I2483
sg7
I2494
sa(dp125
g3
I0
sg4
VSilicon Valley.
p126
sg6
I2534
sg7
I2548
sa(dp127
g3
I0
sg4
VNew York
p128
sg6
I2643
sg7
I2650
sa(dp129
g3
I0
sg4
VYork City.
p130
sg6
I2647
sg7
I2656
sasI3
(lp131
(dp132
g3
I0
sg4
VTrump White House
p133
sg6
I68
sg7
I84
sa(dp134
g3
I0
sg4
VManhattan and Queens
p135
sg6
I1562
sg7
I1581
sa(dp136
g3
I0
sg4
VNew York City
p137
sg6
I1931
sg7
I1943
sa(dp138
g3
I0
sg4
VTechnion Israel Institute
p139
sg6
I2172
sg7
I2196
sa(dp140
g3
I0
sg4
VInstitute of Technology
p141
sg6
I2188
sg7
I2210
sa(dp142
g3
I0
sg4
VMichael R. Bloomberg
p143
sg6
I2475
sg7
I2494
sa(dp144
g3
I0
sg4
VNew York City.
p145
sg6
I2643
sg7
I2656
sasI4
(lp146
(dp147
g3
I0
sg4
VIsrael Institute of Technology
p148
sg6
I2181
sg7
I2210
sasI5
(lp149
(dp150
g3
I1
sg4
VTechnion Israel Institute of Technology
p151
sg6
I2172
sg7
I2210
sasI6
(lp152
s.