(dp0
I1
(lp1
(dp2
S'label'
p3
I0
sS'string'
p4
VHarris
p5
sS'start_index'
p6
I36
sS'end_index'
p7
I41
sa(dp8
g3
I0
sg4
VHarris
p9
sg6
I225
sg7
I230
sa(dp10
g3
I0
sg4
VHarris
p11
sg6
I432
sg7
I437
sa(dp12
g3
I0
sg4
VHarris
p13
sg6
I518
sg7
I523
sa(dp14
g3
I0
sg4
VHarris
p15
sg6
I750
sg7
I755
sa(dp16
g3
I0
sg4
VHarris
p17
sg6
I881
sg7
I886
sa(dp18
g3
I0
sg4
VUnsatisfied
p19
sg6
I939
sg7
I949
sa(dp20
g3
I1
sg4
VColumbia
p21
sg6
I1171
sg7
I1178
sa(dp22
g3
I1
sg4
VColumbia
p23
sg6
I1233
sg7
I1240
sa(dp24
g3
I1
sg4
VColumbia
p25
sg6
I1483
sg7
I1490
sa(dp26
g3
I0
sg4
VPaul
p27
sg6
I1523
sg7
I1526
sa(dp28
g3
I0
sg4
VNungesser
p29
sg6
I1528
sg7
I1536
sa(dp30
g3
I1
sg4
VColumbia
p31
sg6
I1587
sg7
I1594
sasI2
(lp32
(dp33
g3
I0
sg4
VPaul Nungesser
p34
sg6
I1523
sg7
I1536
sasI3
(lp35
sI4
(lp36
sI5
(lp37
sI6
(lp38
s.