(dp0
I1
(lp1
(dp2
S'label'
p3
I1
sS'string'
p4
VTrinity
p5
sS'start_index'
p6
I0
sS'end_index'
p7
I6
sa(dp8
g3
I0
sg4
VPredictors
p9
sg6
I86
sg7
I95
sa(dp10
g3
I0
sg4
VSuccess.
p11
sg6
I100
sg7
I107
sa(dp12
g3
I0
sg4
VImpressed
p13
sg6
I402
sg7
I410
sa(dp14
g3
I0
sg4
VComfort
p15
sg6
I442
sg7
I448
sa(dp16
g3
I0
sg4
VMinority
p17
sg6
I453
sg7
I460
sa(dp18
g3
I0
sg4
VAlso
p19
sg6
I537
sg7
I540
sa(dp20
g3
I0
sg4
VDelayed
p21
sg6
I559
sg7
I565
sa(dp22
g3
I0
sg4
VGratification
p23
sg6
I567
sg7
I579
sa(dp24
g3
I0
sg4
VRisk
p25
sg6
I585
sg7
I588
sa(dp26
g3
I0
sg4
VTaking.
p27
sg6
I590
sg7
I596
sa(dp28
g3
I1
sg4
VTrinity
p29
sg6
I604
sg7
I610
sa(dp30
g3
I0
sg4
VACT
p31
sg6
I914
sg7
I916
sa(dp32
g3
I0
sg4
VSAT
p33
sg6
I918
sg7
I920
sa(dp34
g3
I0
sg4
VLow
p35
sg6
I966
sg7
I968
sa(dp36
g3
I0
sg4
VOlin
p37
sg6
I1579
sg7
I1582
sa(dp38
g3
I0
sg4
VEngineering
p39
sg6
I1595
sg7
I1605
sa(dp40
g3
I0
sg4
VNeedham
p41
sg6
I1714
sg7
I1720
sa(dp42
g3
I0
sg4
VMass.
p43
sg6
I1722
sg7
I1726
sa(dp44
g3
I1
sg4
VOlin
p45
sg6
I2174
sg7
I2177
sa(dp46
g3
I0
sg4
VEmily
p47
sg6
I2391
sg7
I2395
sa(dp48
g3
I0
sg4
VRoper
p49
sg6
I2397
sg7
I2401
sa(dp50
g3
I0
sg4
VDoten
p51
sg6
I2403
sg7
I2407
sa(dp52
g3
I0
sg4
VMassachusetts
p53
sg6
I2638
sg7
I2650
sa(dp54
g3
I0
sg4
VTechnology
p55
sg6
I2665
sg7
I2674
sa(dp56
g3
I0
sg4
VMens
p57
sg6
I2682
sg7
I2685
sa(dp58
g3
I0
sg4
VLatin
p59
sg6
I2696
sg7
I2700
sa(dp60
g3
I0
sg4
VMind
p61
sg6
I2706
sg7
I2709
sa(dp62
g3
I0
sg4
VMaker
p63
sg6
I2768
sg7
I2772
sa(dp64
g3
I0
sg4
VPortfolio
p65
sg6
I2774
sg7
I2782
sasI2
(lp66
(dp67
g3
I0
sg4
VDelayed Gratification
p68
sg6
I559
sg7
I579
sa(dp69
g3
I0
sg4
VRisk Taking.
p70
sg6
I585
sg7
I596
sa(dp71
g3
I0
sg4
VACT SAT
p72
sg6
I914
sg7
I920
sa(dp73
g3
I0
sg4
VOlin College
p74
sg6
I1579
sg7
I1590
sa(dp75
g3
I0
sg4
VNeedham Mass.
p76
sg6
I1714
sg7
I1726
sa(dp77
g3
I0
sg4
VEmily Roper
p78
sg6
I2391
sg7
I2401
sa(dp79
g3
I0
sg4
VRoper Doten
p80
sg6
I2397
sg7
I2407
sa(dp81
g3
I0
sg4
VMassachusetts Institute
p82
sg6
I2638
sg7
I2660
sa(dp83
g3
I0
sg4
VMaker Portfolio
p84
sg6
I2768
sg7
I2782
sasI3
(lp85
(dp86
g3
I0
sg4
VPredictors of Success.
p87
sg6
I86
sg7
I107
sa(dp88
g3
I0
sg4
VGratification and Risk
p89
sg6
I567
sg7
I588
sa(dp90
g3
I0
sg4
VCollege of Engineering
p91
sg6
I1584
sg7
I1605
sa(dp92
g3
I0
sg4
VEmily Roper Doten
p93
sg6
I2391
sg7
I2407
sa(dp94
g3
I0
sg4
VInstitute of Technology
p95
sg6
I2652
sg7
I2674
sasI4
(lp96
(dp97
g3
I0
sg4
VDelayed Gratification and Risk
p98
sg6
I559
sg7
I588
sa(dp99
g3
I0
sg4
VGratification and Risk Taking.
p100
sg6
I567
sg7
I596
sa(dp101
g3
I1
sg4
VOlin College of Engineering
p102
sg6
I1579
sg7
I1605
sa(dp103
g3
I1
sg4
VMassachusetts Institute of Technology
p104
sg6
I2638
sg7
I2674
sasI5
(lp105
(dp106
g3
I0
sg4
VDelayed Gratification and Risk Taking.
p107
sg6
I559
sg7
I596
sasI6
(lp108
s.