(dp0
I1
(lp1
(dp2
S'label'
p3
I0
sS'string'
p4
VApplicants
p5
sS'start_index'
p6
I0
sS'end_index'
p7
I9
sa(dp8
g3
I0
sg4
VPDF
p9
sg6
I47
sg7
I49
sa(dp10
g3
I1
sg4
VMIT
p11
sg6
I213
sg7
I215
sa(dp12
g3
I0
sg4
VLast
p13
sg6
I375
sg7
I378
sa(dp14
g3
I0
sg4
VMakers
p15
sg6
I427
sg7
I432
sa(dp16
g3
I0
sg4
VPortfolio.
p17
sg6
I434
sg7
I443
sa(dp18
g3
I0
sg4
VStuart
p19
sg6
I494
sg7
I499
sa(dp20
g3
I0
sg4
VSchmill
p21
sg6
I501
sg7
I507
sa(dp22
g3
I1
sg4
VMIT
p23
sg6
I659
sg7
I661
sa(dp24
g3
I0
sg4
VMakers
p25
sg6
I858
sg7
I863
sa(dp26
g3
I0
sg4
VPortfolio
p27
sg6
I865
sg7
I873
sa(dp28
g3
I0
sg4
VReviewing
p29
sg6
I987
sg7
I995
sa(dp30
g3
I1
sg4
VOlin
p31
sg6
I1090
sg7
I1093
sa(dp32
g3
I0
sg4
VLarger
p33
sg6
I1201
sg7
I1206
sa(dp34
g3
I0
sg4
VThorough
p35
sg6
I1258
sg7
I1265
sa(dp36
g3
I0
sg4
VCalifornia
p37
sg6
I1430
sg7
I1439
sa(dp38
g3
I0
sg4
VLos
p39
sg6
I1444
sg7
I1446
sa(dp40
g3
I0
sg4
VAngeles
p41
sg6
I1448
sg7
I1454
sa(dp42
g3
I1
sg4
VStanford
p43
sg6
I1529
sg7
I1536
sa(dp44
g3
I1
sg4
VMIT
p45
sg6
I1579
sg7
I1581
sa(dp46
g3
I0
sg4
VCoalition
p47
sg6
I1705
sg7
I1713
sa(dp48
g3
I0
sg4
VAccess
p49
sg6
I1719
sg7
I1724
sa(dp50
g3
I0
sg4
VAffordability
p51
sg6
I1726
sg7
I1738
sa(dp52
g3
I0
sg4
VSuccess
p53
sg6
I1744
sg7
I1750
sa(dp54
g3
I0
sg4
VAnnie
p55
sg6
I2441
sg7
I2445
sa(dp56
g3
I0
sg4
VReznik
p57
sg6
I2447
sg7
I2452
sa(dp58
g3
I0
sg4
VAnother
p59
sg6
I2490
sg7
I2496
sa(dp60
g3
I0
sg4
VJeremiah
p61
sg6
I2598
sg7
I2605
sa(dp62
g3
I0
sg4
VQuinlan
p63
sg6
I2607
sg7
I2613
sa(dp64
g3
I1
sg4
VYale.
p65
sg6
I2669
sg7
I2673
sa(dp66
g3
I0
sg4
VQuinlan
p67
sg6
I2837
sg7
I2843
sa(dp68
g3
I0
sg4
VTechnology
p69
sg6
I3045
sg7
I3054
sasI2
(lp70
(dp71
g3
I0
sg4
VMakers Portfolio.
p72
sg6
I427
sg7
I443
sa(dp73
g3
I0
sg4
VStuart Schmill
p74
sg6
I494
sg7
I507
sa(dp75
g3
I0
sg4
VMakers Portfolio
p76
sg6
I858
sg7
I873
sa(dp77
g3
I0
sg4
VLos Angeles
p78
sg6
I1444
sg7
I1454
sa(dp79
g3
I0
sg4
VAccess Affordability
p80
sg6
I1719
sg7
I1738
sa(dp81
g3
I0
sg4
VE. Q.
p82
sg6
I2376
sg7
I2380
sa(dp83
g3
I0
sg4
VAnnie Reznik
p84
sg6
I2441
sg7
I2452
sa(dp85
g3
I0
sg4
VJeremiah Quinlan
p86
sg6
I2598
sg7
I2613
sasI3
(lp87
(dp88
g3
I1
sg4
VUniversity of California
p89
sg6
I1416
sg7
I1439
sa(dp90
g3
I0
sg4
VAffordability and Success
p91
sg6
I1726
sg7
I1750
sasI4
(lp92
(dp93
g3
I0
sg4
VAccess Affordability and Success
p94
sg6
I1719
sg7
I1750
sasI5
(lp95
sI6
(lp96
s.