(dp0
I1
(lp1
(dp2
S'label'
p3
I0
sS'string'
p4
VLast
p5
sS'start_index'
p6
I0
sS'end_index'
p7
I3
sa(dp8
g3
I1
sg4
VYale
p9
sg6
I10
sg7
I13
sa(dp10
g3
I0
sg4
VJustin
p11
sg6
I210
sg7
I215
sa(dp12
g3
I0
sg4
VAubin
p13
sg6
I217
sg7
I221
sa(dp14
g3
I0
sg4
VCool
p15
sg6
I268
sg7
I271
sasI2
(lp16
(dp17
g3
I0
sg4
VJustin Aubin
p18
sg6
I210
sg7
I221
sasI3
(lp19
sI4
(lp20
sI5
(lp21
sI6
(lp22
s.