(dp0
I1
(lp1
(dp2
S'label'
p3
I0
sS'string'
p4
VAubin
p5
sS'start_index'
p6
I4
sS'end_index'
p7
I8
sa(dp8
g3
I0
sg4
VOak
p9
sg6
I15
sg7
I17
sa(dp10
g3
I0
sg4
VLawn
p11
sg6
I19
sg7
I22
sa(dp12
g3
I0
sg4
VIll.
p13
sg6
I24
sg7
I27
sa(dp14
g3
I1
sg4
VYale.
p15
sg6
I76
sg7
I80
sa(dp16
g3
I0
sg4
VEagle
p17
sg6
I226
sg7
I230
sa(dp18
g3
I0
sg4
VScout
p19
sg6
I232
sg7
I236
sa(dp20
g3
I1
sg4
VYale
p21
sg6
I483
sg7
I486
sa(dp22
g3
I0
sg4
VPeople
p23
sg6
I512
sg7
I517
sa(dp24
g3
I0
sg4
VQuinlan
p25
sg6
I546
sg7
I552
sa(dp26
g3
I0
sg4
VAubin
p27
sg6
I707
sg7
I711
sa(dp28
g3
I1
sg4
VYale.
p29
sg6
I734
sg7
I738
sa(dp30
g3
I0
sg4
VDid
p31
sg6
I740
sg7
I742
sa(dp32
g3
I0
sg4
VQuinlan
p33
sg6
I801
sg7
I807
sa(dp34
g3
I0
sg4
VGiving
p35
sg6
I1019
sg7
I1024
sa(dp36
g3
I0
sg4
VLegacies
p37
sg6
I1205
sg7
I1212
sa(dp38
g3
I1
sg4
VHarvard
p39
sg6
I1240
sg7
I1246
sa(dp40
g3
I1
sg4
VHarvard
p41
sg6
I1277
sg7
I1283
sa(dp42
g3
I0
sg4
VCrimson
p43
sg6
I1285
sg7
I1291
sa(dp44
g3
I1
sg4
VPrinceton
p45
sg6
I1307
sg7
I1315
sa(dp46
g3
I0
sg4
VGeorgia
p47
sg6
I1463
sg7
I1469
sa(dp48
g3
I0
sg4
VTexas
p49
sg6
I1475
sg7
I1479
sa(dp50
g3
I0
sg4
VA&M
p51
sg6
I1481
sg7
I1483
sa(dp52
g3
I0
sg4
VRick
p53
sg6
I1781
sg7
I1784
sa(dp54
g3
I0
sg4
VClark
p55
sg6
I1786
sg7
I1790
sa(dp56
g3
I0
sg4
VGeorgia
p57
sg6
I1831
sg7
I1837
sa(dp58
g3
I0
sg4
VTech
p59
sg6
I1839
sg7
I1842
sa(dp60
g3
I0
sg4
VClark
p61
sg6
I2039
sg7
I2043
sa(dp62
g3
I0
sg4
VMultigenerational
p63
sg6
I2220
sg7
I2236
sasI2
(lp64
(dp65
g3
I0
sg4
VOak Lawn
p66
sg6
I15
sg7
I22
sa(dp67
g3
I0
sg4
VLawn Ill.
p68
sg6
I19
sg7
I27
sa(dp69
g3
I0
sg4
VEagle Scout
p70
sg6
I226
sg7
I236
sa(dp71
g3
I0
sg4
VHarvard Crimson
p72
sg6
I1277
sg7
I1291
sa(dp73
g3
I0
sg4
VTexas A&M
p74
sg6
I1475
sg7
I1483
sa(dp75
g3
I0
sg4
VA&M University
p76
sg6
I1481
sg7
I1494
sa(dp77
g3
I0
sg4
VRick Clark
p78
sg6
I1781
sg7
I1790
sa(dp79
g3
I1
sg4
VGeorgia Tech
p80
sg6
I1831
sg7
I1842
sasI3
(lp81
(dp82
g3
I0
sg4
VOak Lawn Ill.
p83
sg6
I15
sg7
I27
sa(dp84
g3
I1
sg4
VUniversity of Georgia
p85
sg6
I1449
sg7
I1469
sa(dp86
g3
I0
sg4
VGeorgia and Texas
p87
sg6
I1463
sg7
I1479
sa(dp88
g3
I1
sg4
VTexas A&M University
p89
sg6
I1475
sg7
I1494
sasI4
(lp90
(dp91
g3
I0
sg4
VGeorgia and Texas A&M
p92
sg6
I1463
sg7
I1483
sasI5
(lp93
(dp94
g3
I0
sg4
VUniversity of Georgia and Texas
p95
sg6
I1449
sg7
I1479
sa(dp96
g3
I0
sg4
VGeorgia and Texas A&M University
p97
sg6
I1463
sg7
I1494
sasI6
(lp98
(dp99
g3
I0
sg4
VUniversity of Georgia and Texas A&M
p100
sg6
I1449
sg7
I1483
sas.