(dp0
I1
(lp1
(dp2
S'label'
p3
I0
sS'string'
p4
VClark
p5
sS'start_index'
p6
I12
sS'end_index'
p7
I16
sa(dp8
g3
I0
sg4
VOther
p9
sg6
I230
sg7
I234
sa(dp10
g3
I0
sg4
VNational
p11
sg6
I576
sg7
I583
sa(dp12
g3
I0
sg4
VAssociation
p13
sg6
I585
sg7
I595
sa(dp14
g3
I0
sg4
VAdmission
p15
sg6
I609
sg7
I617
sa(dp16
g3
I0
sg4
VCounseling.
p17
sg6
I619
sg7
I629
sa(dp18
g3
I0
sg4
VNancy
p19
sg6
I1403
sg7
I1407
sa(dp20
g3
I0
sg4
VLeopold
p21
sg6
I1409
sg7
I1415
sa(dp22
g3
I0
sg4
VCollegeTracks
p23
sg6
I1439
sg7
I1451
sa(dp24
g3
I0
sg4
VMaryland
p25
sg6
I1455
sg7
I1462
sa(dp26
g3
I0
sg4
VDemonstrated
p27
sg6
I1549
sg7
I1560
sa(dp28
g3
I0
sg4
VNews
p29
sg6
I1782
sg7
I1785
sa(dp30
g3
I0
sg4
V&amp
p31
sg6
I1787
sg7
I1790
sa(dp32
g3
I0
sg4
VWorld
p33
sg6
I1792
sg7
I1796
sa(dp34
g3
I0
sg4
VReport
p35
sg6
I1798
sg7
I1803
sa(dp36
g3
I0
sg4
VACT
p37
sg6
I1919
sg7
I1921
sa(dp38
g3
I0
sg4
VSAT
p39
sg6
I1923
sg7
I1925
sa(dp40
g3
I0
sg4
VGenerally
p41
sg6
I2108
sg7
I2116
sa(dp42
g3
I0
sg4
VRocking
p43
sg6
I2144
sg7
I2150
sa(dp44
g3
I0
sg4
VRoper
p45
sg6
I2379
sg7
I2383
sa(dp46
g3
I0
sg4
VDoten
p47
sg6
I2385
sg7
I2389
sa(dp48
g3
I1
sg4
VOlin.
p49
sg6
I2394
sg7
I2398
sa(dp50
g3
I0
sg4
VAsking
p51
sg6
I2400
sg7
I2405
sa(dp52
g3
I0
sg4
VLloyd
p53
sg6
I2494
sg7
I2498
sa(dp54
g3
I0
sg4
VThacker
p55
sg6
I2500
sg7
I2506
sa(dp56
g3
I0
sg4
VEducation
p57
sg6
I2534
sg7
I2542
sa(dp58
g3
I0
sg4
VConservancy
p59
sg6
I2544
sg7
I2554
sasI2
(lp60
(dp61
g3
I0
sg4
VNational Association
p62
sg6
I576
sg7
I595
sa(dp63
g3
I0
sg4
VCollege Admission
p64
sg6
I601
sg7
I617
sa(dp65
g3
I0
sg4
VAdmission Counseling.
p66
sg6
I609
sg7
I629
sa(dp67
g3
I0
sg4
VNancy Leopold
p68
sg6
I1403
sg7
I1415
sa(dp69
g3
I0
sg4
VU. S.
p70
sg6
I1776
sg7
I1780
sa(dp71
g3
I0
sg4
VS. News
p72
sg6
I1779
sg7
I1785
sa(dp73
g3
I0
sg4
VNews &amp
p74
sg6
I1782
sg7
I1790
sa(dp75
g3
I0
sg4
V&amp World
p76
sg6
I1787
sg7
I1796
sa(dp77
g3
I0
sg4
VWorld Report
p78
sg6
I1792
sg7
I1803
sa(dp79
g3
I0
sg4
VACT SAT
p80
sg6
I1919
sg7
I1925
sa(dp81
g3
I0
sg4
VRoper Doten
p82
sg6
I2379
sg7
I2389
sa(dp83
g3
I0
sg4
VLloyd Thacker
p84
sg6
I2494
sg7
I2506
sa(dp85
g3
I0
sg4
VEducation Conservancy
p86
sg6
I2534
sg7
I2554
sasI3
(lp87
(dp88
g3
I0
sg4
VCollege Admission Counseling.
p89
sg6
I601
sg7
I629
sa(dp90
g3
I0
sg4
VU. S. News
p91
sg6
I1776
sg7
I1785
sa(dp92
g3
I0
sg4
VS. News &amp
p93
sg6
I1779
sg7
I1790
sa(dp94
g3
I0
sg4
VNews &amp World
p95
sg6
I1782
sg7
I1796
sa(dp96
g3
I0
sg4
V&amp World Report
p97
sg6
I1787
sg7
I1803
sa(dp98
g3
I0
sg4
VDoten of Olin.
p99
sg6
I2385
sg7
I2398
sasI4
(lp100
(dp101
g3
I0
sg4
VU. S. News &amp
p102
sg6
I1776
sg7
I1790
sa(dp103
g3
I0
sg4
VS. News &amp World
p104
sg6
I1779
sg7
I1796
sa(dp105
g3
I0
sg4
VNews &amp World Report
p106
sg6
I1782
sg7
I1803
sa(dp107
g3
I0
sg4
VRoper Doten of Olin.
p108
sg6
I2379
sg7
I2398
sasI5
(lp109
(dp110
g3
I0
sg4
VU. S. News &amp World
p111
sg6
I1776
sg7
I1796
sa(dp112
g3
I0
sg4
VS. News &amp World Report
p113
sg6
I1779
sg7
I1803
sasI6
(lp114
(dp115
g3
I0
sg4
VU. S. News &amp World Report
p116
sg6
I1776
sg7
I1803
sas.