(dp0
I1
(lp1
(dp2
S'label'
p3
I0
sS'string'
p4
VTurning
p5
sS'start_index'
p6
I25
sS'end_index'
p7
I31
sa(dp8
g3
I0
sg4
VTide
p9
sg6
I37
sg7
I40
sa(dp10
g3
I1
sg4
VHarvard
p11
sg6
I55
sg7
I61
sa(dp12
g3
I0
sg4
VNorth
p13
sg6
I499
sg7
I503
sa(dp14
g3
I0
sg4
VCarolina
p15
sg6
I505
sg7
I512
sa(dp16
g3
I1
sg4
VMIT
p17
sg6
I599
sg7
I601
sa(dp18
g3
I0
sg4
VRichard
p19
sg6
I682
sg7
I688
sa(dp20
g3
I0
sg4
VWeissbourd
p21
sg6
I690
sg7
I699
sa(dp22
g3
I1
sg4
VHarvard
p23
sg6
I722
sg7
I728
sa(dp24
g3
I0
sg4
VShaun
p25
sg6
I1199
sg7
I1203
sa(dp26
g3
I0
sg4
VHarper
p27
sg6
I1208
sg7
I1213
sa(dp28
g3
I0
sg4
VSouthern
p29
sg6
I1248
sg7
I1255
sa(dp30
g3
I0
sg4
VCalifornia
p31
sg6
I1257
sg7
I1266
sa(dp32
g3
I0
sg4
VRossier
p33
sg6
I1270
sg7
I1276
sa(dp34
g3
I0
sg4
VEducation
p35
sg6
I1288
sg7
I1296
sa(dp36
g3
I0
sg4
VHarper
p37
sg6
I1353
sg7
I1358
sa(dp38
g3
I0
sg4
VNational
p39
sg6
I1414
sg7
I1421
sa(dp40
g3
I0
sg4
VAssociation
p41
sg6
I1423
sg7
I1433
sa(dp42
g3
I0
sg4
VAdmission
p43
sg6
I1447
sg7
I1455
sa(dp44
g3
I0
sg4
VCounseling
p45
sg6
I1457
sg7
I1466
sa(dp46
g3
I0
sg4
VBoston.
p47
sg6
I1471
sg7
I1477
sa(dp48
g3
I0
sg4
VHarper
p49
sg6
I2041
sg7
I2046
sa(dp50
g3
I0
sg4
VHarper
p51
sg6
I2260
sg7
I2265
sasI2
(lp52
(dp53
g3
I0
sg4
VNorth Carolina
p54
sg6
I499
sg7
I512
sa(dp55
g3
I0
sg4
VRichard Weissbourd
p56
sg6
I682
sg7
I699
sa(dp57
g3
I0
sg4
VShaun R.
p58
sg6
I1199
sg7
I1206
sa(dp59
g3
I0
sg4
VR. Harper
p60
sg6
I1205
sg7
I1213
sa(dp61
g3
I0
sg4
VSouthern California
p62
sg6
I1248
sg7
I1266
sa(dp63
g3
I0
sg4
VRossier School
p64
sg6
I1270
sg7
I1283
sa(dp65
g3
I0
sg4
VNational Association
p66
sg6
I1414
sg7
I1433
sa(dp67
g3
I0
sg4
VCollege Admission
p68
sg6
I1439
sg7
I1455
sa(dp69
g3
I0
sg4
VAdmission Counseling
p70
sg6
I1447
sg7
I1466
sasI3
(lp71
(dp72
g3
I0
sg4
VUniversity of North
p73
sg6
I485
sg7
I503
sa(dp74
g3
I0
sg4
VShaun R. Harper
p75
sg6
I1199
sg7
I1213
sa(dp76
g3
I0
sg4
VUniversity of Southern
p77
sg6
I1234
sg7
I1255
sa(dp78
g3
I0
sg4
VSchool of Education
p79
sg6
I1278
sg7
I1296
sa(dp80
g3
I0
sg4
VCollege Admission Counseling
p81
sg6
I1439
sg7
I1466
sasI4
(lp82
(dp83
g3
I1
sg4
VUniversity of North Carolina
p84
sg6
I485
sg7
I512
sa(dp85
g3
I1
sg4
VUniversity of Southern California
p86
sg6
I1234
sg7
I1266
sa(dp87
g3
I1
sg4
VRossier School of Education
p88
sg6
I1270
sg7
I1296
sasI5
(lp89
sI6
(lp90
s.