(dp0
I1
(lp1
(dp2
S'label'
p3
I0
sS'string'
p4
VHarper
p5
sS'start_index'
p6
I13
sS'end_index'
p7
I18
sa(dp8
g3
I0
sg4
VACT
p9
sg6
I58
sg7
I60
sa(dp10
g3
I0
sg4
VSAT
p11
sg6
I62
sg7
I64
sa(dp12
g3
I1
sg4
VTrinity
p13
sg6
I273
sg7
I279
sa(dp14
g3
I0
sg4
VNo.
p15
sg6
I421
sg7
I423
sa(dp16
g3
I0
sg4
VHowever
p17
sg6
I636
sg7
I642
sa(dp18
g3
I0
sg4
VDeans
p19
sg6
I891
sg7
I895
sa(dp20
g3
I0
sg4
VMarie
p21
sg6
I1139
sg7
I1143
sa(dp22
g3
I0
sg4
VBigham
p23
sg6
I1145
sg7
I1150
sa(dp24
g3
I0
sg4
VIsidore
p25
sg6
I1186
sg7
I1192
sa(dp26
g3
I0
sg4
VNewman
p27
sg6
I1194
sg7
I1199
sa(dp28
g3
I0
sg4
VNew
p29
sg6
I1211
sg7
I1213
sa(dp30
g3
I0
sg4
VOrleans.
p31
sg6
I1215
sg7
I1222
sa(dp32
g3
I0
sg4
VFlaws
p33
sg6
I1685
sg7
I1689
sa(dp34
g3
I0
sg4
VHarper
p35
sg6
I1745
sg7
I1750
sasI2
(lp36
(dp37
g3
I0
sg4
VACT SAT
p38
sg6
I58
sg7
I64
sa(dp39
g3
I0
sg4
VMarie Bigham
p40
sg6
I1139
sg7
I1150
sa(dp41
g3
I0
sg4
VIsidore Newman
p42
sg6
I1186
sg7
I1199
sa(dp43
g3
I0
sg4
VNewman School
p44
sg6
I1194
sg7
I1206
sa(dp45
g3
I0
sg4
VNew Orleans.
p46
sg6
I1211
sg7
I1222
sasI3
(lp47
(dp48
g3
I1
sg4
VIsidore Newman School
p49
sg6
I1186
sg7
I1206
sasI4
(lp50
sI5
(lp51
sI6
(lp52
s.