(dp0
I1
(lp1
(dp2
S'label'
p3
I0
sS'string'
p4
VJon
p5
sS'start_index'
p6
I0
sS'end_index'
p7
I2
sa(dp8
g3
I0
sg4
VBoeckenstedt
p9
sg6
I4
sg7
I15
sa(dp10
g3
I0
sg4
VDePaul
p11
sg6
I85
sg7
I90
sa(dp12
g3
I0
sg4
VLeague.
p13
sg6
I381
sg7
I387
sasI2
(lp14
(dp15
g3
I0
sg4
VJon Boeckenstedt
p16
sg6
I0
sg7
I15
sa(dp17
g3
I1
sg4
VDePaul University
p18
sg6
I85
sg7
I101
sasI3
(lp19
sI4
(lp20
sI5
(lp21
sI6
(lp22
s.