(dp0
I1
(lp1
(dp2
S'label'
p3
I0
sS'string'
p4
VBloomberg
p5
sS'start_index'
p6
I4
sS'end_index'
p7
I12
sa(dp8
g3
I0
sg4
VCenter
p9
sg6
I14
sg7
I19
sa(dp10
g3
I0
sg4
VCornell
p11
sg6
I24
sg7
I30
sa(dp12
g3
I0
sg4
VTech.
p13
sg6
I32
sg7
I36
sa(dp14
g3
I0
sg4
VMichael
p15
sg6
I55
sg7
I61
sa(dp16
g3
I0
sg4
VBloomberg
p17
sg6
I66
sg7
I74
sa(dp18
g3
I0
sg4
VBridge
p19
sg6
I192
sg7
I197
sa(dp20
g3
I0
sg4
VCornell
p21
sg6
I240
sg7
I246
sa(dp22
g3
I0
sg4
VTech
p23
sg6
I248
sg7
I251
sa(dp24
g3
I0
sg4
VForest
p25
sg6
I356
sg7
I361
sa(dp26
g3
I0
sg4
VCity
p27
sg6
I363
sg7
I366
sa(dp28
g3
I0
sg4
VNew
p29
sg6
I368
sg7
I370
sa(dp30
g3
I0
sg4
VYork.
p31
sg6
I372
sg7
I376
sa(dp32
g3
I0
sg4
VBridge
p33
sg6
I394
sg7
I399
sa(dp34
g3
I0
sg4
VDaniel
p35
sg6
I451
sg7
I456
sa(dp36
g3
I0
sg4
VHuttenlocher
p37
sg6
I458
sg7
I469
sa(dp38
g3
I0
sg4
VCornell
p39
sg6
I500
sg7
I506
sa(dp40
g3
I0
sg4
VTech
p41
sg6
I508
sg7
I511
sa(dp42
g3
I0
sg4
VBridge
p43
sg6
I527
sg7
I532
sa(dp44
g3
I0
sg4
VAcademic
p45
sg6
I631
sg7
I638
sa(dp46
g3
I0
sg4
VHuttenlocher
p47
sg6
I692
sg7
I703
sasI2
(lp48
(dp49
g3
I0
sg4
VBloomberg Center
p50
sg6
I4
sg7
I19
sa(dp51
g3
I1
sg4
VCornell Tech.
p52
sg6
I24
sg7
I36
sa(dp53
g3
I0
sg4
VMichael R.
p54
sg6
I55
sg7
I64
sa(dp55
g3
I0
sg4
VR. Bloomberg
p56
sg6
I63
sg7
I74
sa(dp57
g3
I1
sg4
VCornell Tech
p58
sg6
I240
sg7
I251
sa(dp59
g3
I0
sg4
VForest City
p60
sg6
I356
sg7
I366
sa(dp61
g3
I0
sg4
VCity New
p62
sg6
I363
sg7
I370
sa(dp63
g3
I0
sg4
VNew York.
p64
sg6
I368
sg7
I376
sa(dp65
g3
I0
sg4
VDaniel Huttenlocher
p66
sg6
I451
sg7
I469
sa(dp67
g3
I1
sg4
VCornell Tech
p68
sg6
I500
sg7
I511
sasI3
(lp69
(dp70
g3
I0
sg4
VCenter of Cornell
p71
sg6
I14
sg7
I30
sa(dp72
g3
I0
sg4
VMichael R. Bloomberg
p73
sg6
I55
sg7
I74
sa(dp74
g3
I0
sg4
VForest City New
p75
sg6
I356
sg7
I370
sa(dp76
g3
I0
sg4
VCity New York.
p77
sg6
I363
sg7
I376
sasI4
(lp78
(dp79
g3
I0
sg4
VBloomberg Center of Cornell
p80
sg6
I4
sg7
I30
sa(dp81
g3
I0
sg4
VCenter of Cornell Tech.
p82
sg6
I14
sg7
I36
sa(dp83
g3
I0
sg4
VForest City New York.
p84
sg6
I356
sg7
I376
sasI5
(lp85
(dp86
g3
I0
sg4
VBloomberg Center of Cornell Tech.
p87
sg6
I4
sg7
I36
sasI6
(lp88
s.