(dp0
I1
(lp1
(dp2
S'label'
p3
I0
sS'string'
p4
VAfrican
p5
sS'start_index'
p6
I76
sS'end_index'
p7
I82
sa(dp8
g3
I0
sg4
VAmerican
p9
sg6
I84
sg7
I91
sa(dp10
g3
I0
sg4
VMajor
p11
sg6
I302
sg7
I306
sa(dp12
g3
I1
sg4
VHarvard
p13
sg6
I589
sg7
I595
sa(dp14
g3
I0
sg4
VMaryland
p15
sg6
I617
sg7
I624
sa(dp16
g3
I1
sg4
VPennsylvania
p17
sg6
I626
sg7
I637
sa(dp18
g3
I1
sg4
VVirginia
p19
sg6
I643
sg7
I650
sasI2
(lp20
(dp21
g3
I0
sg4
VAfrican American
p22
sg6
I76
sg7
I91
sa(dp23
g3
I0
sg4
VMaryland Pennsylvania
p24
sg6
I617
sg7
I637
sasI3
(lp25
(dp26
g3
I0
sg4
VPennsylvania and Virginia
p27
sg6
I626
sg7
I650
sasI4
(lp28
(dp29
g3
I0
sg4
VMaryland Pennsylvania and Virginia
p30
sg6
I617
sg7
I650
sasI5
(lp31
sI6
(lp32
s.