(dp0
I1
(lp1
(dp2
S'label'
p3
I0
sS'string'
p4
VFueled
p5
sS'start_index'
p6
I94
sS'end_index'
p7
I99
sa(dp8
g3
I0
sg4
VTypically
p9
sg6
I198
sg7
I206
sa(dp10
g3
I0
sg4
VBody
p11
sg6
I523
sg7
I526
sa(dp12
g3
I0
sg4
VGrandison
p13
sg6
I543
sg7
I551
sa(dp14
g3
I0
sg4
VHarris
p15
sg6
I553
sg7
I558
sa(dp16
g3
I1
sg4
VGeorgia
p17
sg6
I563
sg7
I569
sa(dp18
g3
I0
sg4
VChris
p19
sg6
I575
sg7
I579
sa(dp20
g3
I0
sg4
VBaker
p21
sg6
I581
sg7
I585
sa(dp22
g3
I1
sg4
VVirginia
p23
sg6
I590
sg7
I597
sa(dp24
g3
I0
sg4
VAfrican
p25
sg6
I773
sg7
I779
sa(dp26
g3
I0
sg4
VAmerican
p27
sg6
I781
sg7
I788
sasI2
(lp28
(dp29
g3
I0
sg4
VGrandison Harris
p30
sg6
I543
sg7
I558
sa(dp31
g3
I0
sg4
VChris Baker
p32
sg6
I575
sg7
I585
sa(dp33
g3
I0
sg4
VAfrican American
p34
sg6
I773
sg7
I788
sasI3
(lp35
(dp36
g3
I0
sg4
VHarris of Georgia
p37
sg6
I553
sg7
I569
sa(dp38
g3
I0
sg4
VGeorgia and Chris
p39
sg6
I563
sg7
I579
sa(dp40
g3
I0
sg4
VBaker of Virginia
p41
sg6
I581
sg7
I597
sasI4
(lp42
(dp43
g3
I0
sg4
VGrandison Harris of Georgia
p44
sg6
I543
sg7
I569
sa(dp45
g3
I0
sg4
VGeorgia and Chris Baker
p46
sg6
I563
sg7
I585
sa(dp47
g3
I0
sg4
VChris Baker of Virginia
p48
sg6
I575
sg7
I597
sasI5
(lp49
(dp50
g3
I0
sg4
VHarris of Georgia and Chris
p51
sg6
I553
sg7
I579
sasI6
(lp52
(dp53
g3
I0
sg4
VGrandison Harris of Georgia and Chris
p54
sg6
I543
sg7
I579
sa(dp55
g3
I0
sg4
VHarris of Georgia and Chris Baker
p56
sg6
I553
sg7
I585
sa(dp57
g3
I0
sg4
VGeorgia and Chris Baker of Virginia
p58
sg6
I563
sg7
I597
sas.