(dp0
I1
(lp1
(dp2
S'label'
p3
I0
sS'string'
p4
VAccording
p5
sS'start_index'
p6
I0
sS'end_index'
p7
I8
sa(dp8
g3
I0
sg4
VMedical
p9
sg6
I36
sg7
I42
sa(dp10
g3
I0
sg4
VGeorgia
p11
sg6
I55
sg7
I61
sa(dp12
g3
I0
sg4
VHarris
p13
sg6
I118
sg7
I123
sa(dp14
g3
I0
sg4
VCharleston
p15
sg6
I130
sg7
I139
sa(dp16
g3
I0
sg4
VBaker
p17
sg6
I195
sg7
I199
sa(dp18
g3
I0
sg4
VMedical
p19
sg6
I217
sg7
I223
sa(dp20
g3
I0
sg4
VVirginia
p21
sg6
I236
sg7
I243
sa(dp22
g3
I0
sg4
VVirginia
p23
sg6
I245
sg7
I252
sa(dp24
g3
I0
sg4
VCommonwealth
p25
sg6
I254
sg7
I265
sa(dp26
g3
I0
sg4
VThus
p27
sg6
I331
sg7
I334
sa(dp28
g3
I0
sg4
VHaving
p29
sg6
I500
sg7
I505
sa(dp30
g3
I0
sg4
VEnslaved
p31
sg6
I785
sg7
I792
sa(dp32
g3
I0
sg4
VHarris
p33
sg6
I806
sg7
I811
sa(dp34
g3
I0
sg4
VBaker
p35
sg6
I817
sg7
I821
sa(dp36
g3
I0
sg4
VUnited
p37
sg6
I987
sg7
I992
sa(dp38
g3
I0
sg4
VStates.
p39
sg6
I994
sg7
I1000
sasI2
(lp40
(dp41
g3
I0
sg4
VMedical College
p42
sg6
I36
sg7
I50
sa(dp43
g3
I0
sg4
VCharleston S.
p44
sg6
I130
sg7
I142
sa(dp45
g3
I0
sg4
VS. C.
p46
sg6
I141
sg7
I145
sa(dp47
g3
I0
sg4
VMedical College
p48
sg6
I217
sg7
I231
sa(dp49
g3
I0
sg4
VVirginia Commonwealth
p50
sg6
I245
sg7
I265
sa(dp51
g3
I0
sg4
VCommonwealth University
p52
sg6
I254
sg7
I276
sa(dp53
g3
I0
sg4
VUnited States.
p54
sg6
I987
sg7
I1000
sasI3
(lp55
(dp56
g3
I0
sg4
VCollege of Georgia
p57
sg6
I44
sg7
I61
sa(dp58
g3
I0
sg4
VCharleston S. C.
p59
sg6
I130
sg7
I145
sa(dp60
g3
I0
sg4
VCollege of Virginia
p61
sg6
I225
sg7
I243
sa(dp62
g3
I1
sg4
VVirginia Commonwealth University
p63
sg6
I245
sg7
I276
sa(dp64
g3
I0
sg4
VHarris and Baker
p65
sg6
I806
sg7
I821
sasI4
(lp66
(dp67
g3
I1
sg4
VMedical College of Georgia
p68
sg6
I36
sg7
I61
sa(dp69
g3
I1
sg4
VMedical College of Virginia
p70
sg6
I217
sg7
I243
sa(dp71
g3
I0
sg4
VCollege of Virginia Virginia
p72
sg6
I225
sg7
I252
sasI5
(lp73
(dp74
g3
I0
sg4
VMedical College of Virginia Virginia
p75
sg6
I217
sg7
I252
sasI6
(lp76
s.