(dp0
I1
(lp1
(dp2
S'label'
p3
I0
sS'string'
p4
VAmerican
p5
sS'start_index'
p6
I0
sS'end_index'
p7
I7
sa(dp8
g3
I0
sg4
VGeorgetown
p9
sg6
I91
sg7
I100
sa(dp10
g3
I1
sg4
VBrown
p11
sg6
I133
sg7
I137
sa(dp12
g3
I1
sg4
VYale
p13
sg6
I139
sg7
I142
sa(dp14
g3
I1
sg4
VHarvard
p15
sg6
I144
sg7
I150
sa(dp16
g3
I0
sg4
VVirginia
p17
sg6
I170
sg7
I177
sa(dp18
g3
I0
sg4
VWilliam
p19
sg6
I198
sg7
I204
sa(dp20
g3
I0
sg4
VMary
p21
sg6
I210
sg7
I213
sasI2
(lp22
(dp23
g3
I1
sg4
VGeorgetown University
p24
sg6
I91
sg7
I111
sa(dp25
g3
I0
sg4
VBrown Yale
p26
sg6
I133
sg7
I142
sa(dp27
g3
I0
sg4
VYale Harvard
p28
sg6
I139
sg7
I150
sasI3
(lp29
(dp30
g3
I0
sg4
VBrown Yale Harvard
p31
sg6
I133
sg7
I150
sa(dp32
g3
I1
sg4
VUniversity of Virginia
p33
sg6
I156
sg7
I177
sa(dp34
g3
I0
sg4
VCollege of William
p35
sg6
I187
sg7
I204
sa(dp36
g3
I0
sg4
VWilliam and Mary
p37
sg6
I198
sg7
I213
sasI4
(lp38
sI5
(lp39
(dp40
g3
I1
sg4
VCollege of William and Mary
p41
sg6
I187
sg7
I213
sasI6
(lp42
s.