(dp0
I1
(lp1
(dp2
S'label'
p3
I0
sS'string'
p4
VUsually
p5
sS'start_index'
p6
I0
sS'end_index'
p7
I6
sa(dp8
g3
I0
sg4
VUnited
p9
sg6
I274
sg7
I279
sa(dp10
g3
I0
sg4
VStates
p11
sg6
I281
sg7
I286
sa(dp12
g3
I0
sg4
VDepartment
p13
sg6
I288
sg7
I297
sa(dp14
g3
I0
sg4
VEducation
p15
sg6
I302
sg7
I310
sa(dp16
g3
I1
sg4
VStanford
p17
sg6
I345
sg7
I352
sa(dp18
g3
I1
sg4
VYale
p19
sg6
I416
sg7
I419
sa(dp20
g3
I1
sg4
VPrinceton
p21
sg6
I437
sg7
I445
sa(dp22
g3
I0
sg4
VChicago
p23
sg6
I481
sg7
I487
sa(dp24
g3
I0
sg4
VMeanwhile
p25
sg6
I1030
sg7
I1038
sa(dp26
g3
I0
sg4
VWashington
p27
sg6
I1400
sg7
I1409
sa(dp28
g3
I0
sg4
VMonthly
p29
sg6
I1411
sg7
I1417
sasI2
(lp30
(dp31
g3
I0
sg4
VUnited States
p32
sg6
I274
sg7
I286
sa(dp33
g3
I0
sg4
VStates Department
p34
sg6
I281
sg7
I297
sa(dp35
g3
I0
sg4
VWashington Monthly
p36
sg6
I1400
sg7
I1417
sasI3
(lp37
(dp38
g3
I0
sg4
VUnited States Department
p39
sg6
I274
sg7
I297
sa(dp40
g3
I0
sg4
VDepartment of Education
p41
sg6
I288
sg7
I310
sa(dp42
g3
I1
sg4
VUniversity of Chicago
p43
sg6
I467
sg7
I487
sasI4
(lp44
(dp45
g3
I0
sg4
VStates Department of Education
p46
sg6
I281
sg7
I310
sasI5
(lp47
(dp48
g3
I0
sg4
VUnited States Department of Education
p49
sg6
I274
sg7
I310
sasI6
(lp50
s.