(dp0
I1
(lp1
(dp2
S'label'
p3
I0
sS'string'
p4
VNo.
p5
sS'start_index'
p6
I126
sS'end_index'
p7
I128
sa(dp8
g3
I0
sg4
VGolden
p9
sg6
I157
sg7
I162
sa(dp10
g3
I0
sg4
VGate
p11
sg6
I164
sg7
I167
sa(dp12
g3
I0
sg4
VSan
p13
sg6
I183
sg7
I185
sa(dp14
g3
I0
sg4
VFrancisco
p15
sg6
I187
sg7
I195
sa(dp16
g3
I0
sg4
VGolden
p17
sg6
I325
sg7
I330
sa(dp18
g3
I0
sg4
VGate
p19
sg6
I332
sg7
I335
sasI2
(lp20
(dp21
g3
I0
sg4
VGolden Gate
p22
sg6
I157
sg7
I167
sa(dp23
g3
I0
sg4
VGate University
p24
sg6
I164
sg7
I178
sa(dp25
g3
I0
sg4
VSan Francisco
p26
sg6
I183
sg7
I195
sa(dp27
g3
I1
sg4
VGolden Gate
p28
sg6
I325
sg7
I335
sasI3
(lp29
(dp30
g3
I1
sg4
VGolden Gate University
p31
sg6
I157
sg7
I178
sasI4
(lp32
sI5
(lp33
sI6
(lp34
s.