(dp0
I1
(lp1
(dp2
S'label'
p3
I0
sS'string'
p4
VGolden
p5
sS'start_index'
p6
I14
sS'end_index'
p7
I19
sa(dp8
g3
I0
sg4
VGate
p9
sg6
I21
sg7
I24
sa(dp10
g3
I0
sg4
VAmerican
p11
sg6
I108
sg7
I115
sa(dp12
g3
I1
sg4
VStanford
p13
sg6
I310
sg7
I317
sa(dp14
g3
I1
sg4
VYale
p15
sg6
I323
sg7
I326
sa(dp16
g3
I0
sg4
V.Compounding
p17
sg6
I445
sg7
I456
sa(dp18
g3
I0
sg4
VNews
p19
sg6
I529
sg7
I532
sa(dp20
g3
I0
sg4
V&amp
p21
sg6
I534
sg7
I537
sa(dp22
g3
I0
sg4
VWorld
p23
sg6
I539
sg7
I543
sa(dp24
g3
I0
sg4
VReport
p25
sg6
I545
sg7
I550
sa(dp26
g3
I0
sg4
VAmerica
p27
sg6
I688
sg7
I694
sa(dp28
g3
I0
sg4
VElite
p29
sg6
I734
sg7
I738
sa(dp30
g3
I1
sg4
VPrinceton
p31
sg6
I956
sg7
I964
sa(dp32
g3
I0
sg4
VChicago
p33
sg6
I988
sg7
I994
sa(dp34
g3
I0
sg4
VShouldn
p35
sg6
I1073
sg7
I1079
sa(dp36
g3
I0
sg4
VICU.
p37
sg6
I1150
sg7
I1153
sa(dp38
g3
I0
sg4
VAmerica
p39
sg6
I1288
sg7
I1294
sa(dp40
g3
I0
sg4
VBroward
p41
sg6
I1973
sg7
I1979
sa(dp42
g3
I0
sg4
VFlorida
p43
sg6
I1992
sg7
I1998
sa(dp44
g3
I0
sg4
VSouthern
p45
sg6
I2147
sg7
I2154
sa(dp46
g3
I0
sg4
VNew
p47
sg6
I2156
sg7
I2158
sa(dp48
g3
I0
sg4
VHampshire
p49
sg6
I2160
sg7
I2168
sasI2
(lp50
(dp51
g3
I1
sg4
VGolden Gate
p52
sg6
I14
sg7
I24
sa(dp53
g3
I0
sg4
VNews &amp
p54
sg6
I529
sg7
I537
sa(dp55
g3
I0
sg4
V&amp World
p56
sg6
I534
sg7
I543
sa(dp57
g3
I0
sg4
VWorld Report
p58
sg6
I539
sg7
I550
sa(dp59
g3
I1
sg4
VBroward College
p60
sg6
I1973
sg7
I1987
sa(dp61
g3
I0
sg4
VSouthern New
p62
sg6
I2147
sg7
I2158
sa(dp63
g3
I0
sg4
VNew Hampshire
p64
sg6
I2156
sg7
I2168
sa(dp65
g3
I0
sg4
VHampshire University
p66
sg6
I2160
sg7
I2179
sasI3
(lp67
(dp68
g3
I0
sg4
VStanford and Yale
p69
sg6
I310
sg7
I326
sa(dp70
g3
I0
sg4
VNews &amp World
p71
sg6
I529
sg7
I543
sa(dp72
g3
I0
sg4
V&amp World Report
p73
sg6
I534
sg7
I550
sa(dp74
g3
I1
sg4
VUniversity of Chicago
p75
sg6
I974
sg7
I994
sa(dp76
g3
I0
sg4
VSouthern New Hampshire
p77
sg6
I2147
sg7
I2168
sa(dp78
g3
I0
sg4
VNew Hampshire University
p79
sg6
I2156
sg7
I2179
sasI4
(lp80
(dp81
g3
I0
sg4
VNews &amp World Report
p82
sg6
I529
sg7
I550
sa(dp83
g3
I1
sg4
VSouthern New Hampshire University
p84
sg6
I2147
sg7
I2179
sasI5
(lp85
sI6
(lp86
s.