(dp0
I1
(lp1
(dp2
S'label'
p3
I0
sS'string'
p4
VColumbia
p5
sS'start_index'
p6
I29
sS'end_index'
p7
I36
sa(dp8
g3
I0
sg4
VMonday.
p9
sg6
I253
sg7
I259
sa(dp10
g3
I0
sg4
VOct.
p11
sg6
I280
sg7
I283
sa(dp12
g3
I0
sg4
VManhattan
p13
sg6
I290
sg7
I298
sa(dp14
g3
I0
sg4
VWilliam
p15
sg6
I355
sg7
I361
sa(dp16
g3
I0
sg4
VHarris
p17
sg6
I366
sg7
I371
sa(dp18
g3
I0
sg4
VGreco
p19
sg6
I389
sg7
I393
sa(dp20
g3
I0
sg4
VRoman
p21
sg6
I395
sg7
I399
sa(dp22
g3
I0
sg4
VHarris
p23
sg6
I418
sg7
I423
sa(dp24
g3
I0
sg4
VJane
p25
sg6
I616
sg7
I619
sa(dp26
g3
I0
sg4
VDoe
p27
sg6
I621
sg7
I623
sa(dp28
g3
I0
sg4
VHarris
p29
sg6
I638
sg7
I643
sa(dp30
g3
I0
sg4
VHarris
p31
sg6
I766
sg7
I771
sa(dp32
g3
I0
sg4
VHarris
p33
sg6
I929
sg7
I934
sa(dp34
g3
I0
sg4
VDavid
p35
sg6
I1006
sg7
I1010
sa(dp36
g3
I0
sg4
VMadigan
p37
sg6
I1015
sg7
I1021
sa(dp38
g3
I0
sg4
VArts
p39
sg6
I1046
sg7
I1049
sa(dp40
g3
I0
sg4
VSciences
p41
sg6
I1055
sg7
I1062
sa(dp42
g3
I0
sg4
VCarlos
p43
sg6
I1068
sg7
I1073
sa(dp44
g3
I0
sg4
VAlonso
p45
sg6
I1078
sg7
I1083
sa(dp46
g3
I0
sg4
VGraduate
p47
sg6
I1097
sg7
I1104
sa(dp48
g3
I0
sg4
VArts
p49
sg6
I1116
sg7
I1119
sa(dp50
g3
I0
sg4
VSciences.
p51
sg6
I1125
sg7
I1133
sasI2
(lp52
(dp53
g3
I1
sg4
VColumbia University
p54
sg6
I29
sg7
I47
sa(dp55
g3
I0
sg4
VWilliam V.
p56
sg6
I355
sg7
I364
sa(dp57
g3
I0
sg4
VV. Harris
p58
sg6
I363
sg7
I371
sa(dp59
g3
I0
sg4
VGreco Roman
p60
sg6
I389
sg7
I399
sa(dp61
g3
I0
sg4
VJane Doe
p62
sg6
I616
sg7
I623
sa(dp63
g3
I0
sg4
VDavid B.
p64
sg6
I1006
sg7
I1013
sa(dp65
g3
I0
sg4
VB. Madigan
p66
sg6
I1012
sg7
I1021
sa(dp67
g3
I0
sg4
VCarlos J.
p68
sg6
I1068
sg7
I1076
sa(dp69
g3
I0
sg4
VJ. Alonso
p70
sg6
I1075
sg7
I1083
sa(dp71
g3
I0
sg4
VGraduate School
p72
sg6
I1097
sg7
I1111
sasI3
(lp73
(dp74
g3
I0
sg4
VWilliam V. Harris
p75
sg6
I355
sg7
I371
sa(dp76
g3
I0
sg4
VDavid B. Madigan
p77
sg6
I1006
sg7
I1021
sa(dp78
g3
I0
sg4
VArts and Sciences
p79
sg6
I1046
sg7
I1062
sa(dp80
g3
I0
sg4
VSciences and Carlos
p81
sg6
I1055
sg7
I1073
sa(dp82
g3
I0
sg4
VCarlos J. Alonso
p83
sg6
I1068
sg7
I1083
sa(dp84
g3
I0
sg4
VSchool of Arts
p85
sg6
I1106
sg7
I1119
sa(dp86
g3
I0
sg4
VArts and Sciences.
p87
sg6
I1116
sg7
I1133
sasI4
(lp88
(dp89
g3
I0
sg4
VSciences and Carlos J.
p90
sg6
I1055
sg7
I1076
sa(dp91
g3
I0
sg4
VGraduate School of Arts
p92
sg6
I1097
sg7
I1119
sasI5
(lp93
(dp94
g3
I0
sg4
VSciences and Carlos J. Alonso
p95
sg6
I1055
sg7
I1083
sa(dp96
g3
I0
sg4
VSchool of Arts and Sciences.
p97
sg6
I1106
sg7
I1133
sasI6
(lp98
(dp99
g3
I1
sg4
VGraduate School of Arts and Sciences.
p100
sg6
I1097
sg7
I1133
sas.