(dp0
I1
(lp1
(dp2
S'label'
p3
I0
sS'string'
p4
VAccording
p5
sS'start_index'
p6
I0
sS'end_index'
p7
I8
sa(dp8
g3
I0
sg4
VHarris
p9
sg6
I31
sg7
I36
sa(dp10
g3
I1
sg4
VColumbia
p11
sg6
I61
sg7
I68
sa(dp12
g3
I0
sg4
VHarris
p13
sg6
I149
sg7
I154
sa(dp14
g3
I0
sg4
VHarris
p15
sg6
I379
sg7
I384
sa(dp16
g3
I0
sg4
VHarris
p17
sg6
I645
sg7
I650
sa(dp18
g3
I0
sg4
VHarris
p19
sg6
I821
sg7
I826
sasI2
(lp20
sI3
(lp21
sI4
(lp22
sI5
(lp23
sI6
(lp24
s.