(dp0
I1
(lp1
(dp2
S'label'
p3
I0
sS'string'
p4
VHarris
p5
sS'start_index'
p6
I41
sS'end_index'
p7
I46
sa(dp8
g3
I0
sg4
VUnsatisfied
p9
sg6
I130
sg7
I140
sa(dp10
g3
I0
sg4
VMay.
p11
sg6
I215
sg7
I218
sa(dp12
g3
I1
sg4
VColumbia
p13
sg6
I220
sg7
I227
sa(dp14
g3
I1
sg4
VColumbia
p15
sg6
I470
sg7
I477
sa(dp16
g3
I0
sg4
VPaul
p17
sg6
I510
sg7
I513
sa(dp18
g3
I0
sg4
VNungesser
p19
sg6
I515
sg7
I523
sasI2
(lp20
(dp21
g3
I0
sg4
VPaul Nungesser
p22
sg6
I510
sg7
I523
sasI3
(lp23
sI4
(lp24
sI5
(lp25
sI6
(lp26
s.