(dp0
I1
(lp1
(dp2
S'label'
p3
I0
sS'string'
p4
VBlackwell
p5
sS'start_index'
p6
I14
sS'end_index'
p7
I22
sa(dp8
g3
I0
sg4
VIsland
p9
sg6
I26
sg7
I31
sa(dp10
g3
I0
sg4
VWelfare
p11
sg6
I47
sg7
I53
sa(dp12
g3
I0
sg4
VIsland
p13
sg6
I55
sg7
I60
sa(dp14
g3
I0
sg4
VRoosevelt
p15
sg6
I103
sg7
I111
sa(dp16
g3
I0
sg4
VIsland.
p17
sg6
I113
sg7
I119
sa(dp18
g3
I0
sg4
VMae
p19
sg6
I121
sg7
I123
sa(dp20
g3
I0
sg4
VWest
p21
sg6
I125
sg7
I128
sa(dp22
g3
I0
sg4
VSex
p23
sg6
I161
sg7
I163
sa(dp24
g3
I0
sg4
VJudith
p25
sg6
I246
sg7
I251
sa(dp26
g3
I0
sg4
VBerdy
p27
sg6
I253
sg7
I257
sa(dp28
g3
I0
sg4
VRoosevelt
p29
sg6
I276
sg7
I284
sa(dp30
g3
I0
sg4
VIsland
p31
sg6
I286
sg7
I291
sa(dp32
g3
I0
sg4
VHistorical
p33
sg6
I293
sg7
I302
sa(dp34
g3
I0
sg4
VSociety
p35
sg6
I304
sg7
I310
sa(dp36
g3
I0
sg4
VCornell
p37
sg6
I349
sg7
I355
sa(dp38
g3
I0
sg4
VTech
p39
sg6
I357
sg7
I360
sa(dp40
g3
I0
sg4
VBlackwell
p41
sg6
I384
sg7
I392
sa(dp42
g3
I0
sg4
VIsland
p43
sg6
I396
sg7
I401
sa(dp44
g3
I0
sg4
VPenitentiary
p45
sg6
I403
sg7
I414
sa(dp46
g3
I0
sg4
VBerdy
p47
sg6
I548
sg7
I552
sa(dp48
g3
I0
sg4
VRikers
p49
sg6
I685
sg7
I690
sa(dp50
g3
I0
sg4
VIsland.
p51
sg6
I692
sg7
I698
sa(dp52
g3
I0
sg4
VCornell
p53
sg6
I704
sg7
I710
sa(dp54
g3
I0
sg4
VTech
p55
sg6
I712
sg7
I715
sa(dp56
g3
I0
sg4
VGoldwater
p57
sg6
I759
sg7
I767
sa(dp58
g3
I0
sg4
VColer
p59
sg6
I783
sg7
I787
sa(dp60
g3
I0
sg4
VGoldwater
p61
sg6
I789
sg7
I797
sa(dp62
g3
I0
sg4
VMemorial
p63
sg6
I799
sg7
I806
sa(dp64
g3
I0
sg4
VHospital
p65
sg6
I808
sg7
I815
sa(dp66
g3
I0
sg4
VColer
p67
sg6
I858
sg7
I862
sa(dp68
g3
I0
sg4
VRoosevelt
p69
sg6
I901
sg7
I909
sa(dp70
g3
I0
sg4
VIsland
p71
sg6
I911
sg7
I916
sa(dp72
g3
I0
sg4
VGoldwater
p73
sg6
I926
sg7
I934
sa(dp74
g3
I0
sg4
VEast
p75
sg6
I993
sg7
I996
sa(dp76
g3
I0
sg4
VHarlem.
p77
sg6
I998
sg7
I1004
sa(dp78
g3
I0
sg4
VCornell
p79
sg6
I1037
sg7
I1043
sa(dp80
g3
I0
sg4
VTech
p81
sg6
I1045
sg7
I1048
sa(dp82
g3
I0
sg4
VProtesters
p83
sg6
I1373
sg7
I1382
sa(dp84
g3
I0
sg4
VDevos
p85
sg6
I1417
sg7
I1421
sa(dp86
g3
I0
sg4
VGeorge
p87
sg6
I1436
sg7
I1441
sa(dp88
g3
I0
sg4
VMason
p89
sg6
I1443
sg7
I1447
sa(dp90
g3
I0
sg4
VArlington
p91
sg6
I1463
sg7
I1471
sa(dp92
g3
I0
sg4
VVa.
p93
sg6
I1473
sg7
I1475
sasI2
(lp94
(dp95
g3
I0
sg4
VWelfare Island
p96
sg6
I47
sg7
I60
sa(dp97
g3
I0
sg4
VRoosevelt Island.
p98
sg6
I103
sg7
I119
sa(dp99
g3
I0
sg4
VMae West
p100
sg6
I121
sg7
I128
sa(dp101
g3
I0
sg4
VJudith Berdy
p102
sg6
I246
sg7
I257
sa(dp103
g3
I0
sg4
VRoosevelt Island
p104
sg6
I276
sg7
I291
sa(dp105
g3
I0
sg4
VIsland Historical
p106
sg6
I286
sg7
I302
sa(dp107
g3
I0
sg4
VHistorical Society
p108
sg6
I293
sg7
I310
sa(dp109
g3
I1
sg4
VCornell Tech
p110
sg6
I349
sg7
I360
sa(dp111
g3
I0
sg4
VIsland Penitentiary
p112
sg6
I396
sg7
I414
sa(dp113
g3
I0
sg4
VRikers Island.
p114
sg6
I685
sg7
I698
sa(dp115
g3
I1
sg4
VCornell Tech
p116
sg6
I704
sg7
I715
sa(dp117
g3
I0
sg4
VColer Goldwater
p118
sg6
I783
sg7
I797
sa(dp119
g3
I0
sg4
VGoldwater Memorial
p120
sg6
I789
sg7
I806
sa(dp121
g3
I0
sg4
VMemorial Hospital
p122
sg6
I799
sg7
I815
sa(dp123
g3
I0
sg4
VRoosevelt Island
p124
sg6
I901
sg7
I916
sa(dp125
g3
I0
sg4
VEast Harlem.
p126
sg6
I993
sg7
I1004
sa(dp127
g3
I1
sg4
VCornell Tech
p128
sg6
I1037
sg7
I1048
sa(dp129
g3
I0
sg4
VGeorge Mason
p130
sg6
I1436
sg7
I1447
sa(dp131
g3
I0
sg4
VMason University
p132
sg6
I1443
sg7
I1458
sa(dp133
g3
I0
sg4
VArlington Va.
p134
sg6
I1463
sg7
I1475
sasI3
(lp135
(dp136
g3
I0
sg4
VRoosevelt Island Historical
p137
sg6
I276
sg7
I302
sa(dp138
g3
I0
sg4
VIsland Historical Society
p139
sg6
I286
sg7
I310
sa(dp140
g3
I0
sg4
VColer Goldwater Memorial
p141
sg6
I783
sg7
I806
sa(dp142
g3
I0
sg4
VGoldwater Memorial Hospital
p143
sg6
I789
sg7
I815
sa(dp144
g3
I1
sg4
VGeorge Mason University
p145
sg6
I1436
sg7
I1458
sasI4
(lp146
(dp147
g3
I0
sg4
VRoosevelt Island Historical Society
p148
sg6
I276
sg7
I310
sa(dp149
g3
I0
sg4
VColer Goldwater Memorial Hospital
p150
sg6
I783
sg7
I815
sasI5
(lp151
sI6
(lp152
s.