(dp0
I1
(lp1
(dp2
S'label'
p3
I0
sS'string'
p4
VJust
p5
sS'start_index'
p6
I96
sS'end_index'
p7
I99
sa(dp8
g3
I0
sg4
VCommon
p9
sg6
I307
sg7
I312
sa(dp10
g3
I0
sg4
VApplication
p11
sg6
I314
sg7
I324
sa(dp12
g3
I0
sg4
VTwitter
p13
sg6
I388
sg7
I394
sa(dp14
g3
I0
sg4
VRussian
p15
sg6
I707
sg7
I713
sa(dp16
g3
I0
sg4
VJim
p17
sg6
I795
sg7
I797
sa(dp18
g3
I0
sg4
VRawlins
p19
sg6
I799
sg7
I805
sa(dp20
g3
I0
sg4
VOregon.
p21
sg6
I851
sg7
I857
sa(dp22
g3
I0
sg4
VRussians
p23
sg6
I870
sg7
I877
sa(dp24
g3
I0
sg4
VRawlins
p25
sg6
I939
sg7
I945
sa(dp26
g3
I0
sg4
VTuesday.
p27
sg6
I955
sg7
I962
sasI2
(lp28
(dp29
g3
I0
sg4
VCommon Application
p30
sg6
I307
sg7
I324
sa(dp31
g3
I0
sg4
VJim Rawlins
p32
sg6
I795
sg7
I805
sasI3
(lp33
(dp34
g3
I1
sg4
VUniversity of Oregon.
p35
sg6
I837
sg7
I857
sasI4
(lp36
sI5
(lp37
sI6
(lp38
s.