(dp0
I1
(lp1
(dp2
S'label'
p3
I0
sS'string'
p4
VKent
p5
sS'start_index'
p6
I0
sS'end_index'
p7
I3
sa(dp8
g3
I0
sg4
VRinehart
p9
sg6
I5
sg7
I12
sa(dp10
g3
I0
sg4
VMarist
p11
sg6
I36
sg7
I41
sa(dp12
g3
I0
sg4
VCommon
p13
sg6
I76
sg7
I81
sa(dp14
g3
I0
sg4
VApp
p15
sg6
I83
sg7
I85
sa(dp16
g3
I0
sg4
VNaviance
p17
sg6
I164
sg7
I171
sa(dp18
g3
I0
sg4
VNaviance
p19
sg6
I266
sg7
I273
sa(dp20
g3
I0
sg4
VRinehart
p21
sg6
I396
sg7
I403
sa(dp22
g3
I0
sg4
VTuesday.
p23
sg6
I413
sg7
I420
sa(dp24
g3
I0
sg4
VCommon
p25
sg6
I461
sg7
I466
sa(dp26
g3
I0
sg4
VApp
p27
sg6
I468
sg7
I470
sa(dp28
g3
I0
sg4
VCommon
p29
sg6
I688
sg7
I693
sa(dp30
g3
I0
sg4
VApp
p31
sg6
I695
sg7
I697
sa(dp32
g3
I0
sg4
VAnimated
p33
sg6
I770
sg7
I777
sa(dp34
g3
I0
sg4
VGIFs
p35
sg6
I779
sg7
I782
sa(dp36
g3
I0
sg4
VKenna
p37
sg6
I1048
sg7
I1052
sa(dp38
g3
I0
sg4
VCommon
p39
sg6
I1111
sg7
I1116
sa(dp40
g3
I0
sg4
VApp.
p41
sg6
I1118
sg7
I1121
sa(dp42
g3
I0
sg4
VRawlins
p43
sg6
I1209
sg7
I1215
sa(dp44
g3
I0
sg4
VOregon
p45
sg6
I1238
sg7
I1243
sasI2
(lp46
(dp47
g3
I0
sg4
VKent Rinehart
p48
sg6
I0
sg7
I12
sa(dp49
g3
I1
sg4
VMarist College
p50
sg6
I36
sg7
I49
sa(dp51
g3
I0
sg4
VCommon App
p52
sg6
I76
sg7
I85
sa(dp53
g3
I0
sg4
VCommon App
p54
sg6
I461
sg7
I470
sa(dp55
g3
I0
sg4
VCommon App
p56
sg6
I688
sg7
I697
sa(dp57
g3
I0
sg4
VAnimated GIFs
p58
sg6
I770
sg7
I782
sa(dp59
g3
I0
sg4
VCommon App.
p60
sg6
I1111
sg7
I1121
sa(dp61
g3
I0
sg4
VO. K.
p62
sg6
I1128
sg7
I1132
sasI3
(lp63
(dp64
g3
I1
sg4
VUniversity of Oregon
p65
sg6
I1224
sg7
I1243
sasI4
(lp66
sI5
(lp67
sI6
(lp68
s.