(dp0
I1
(lp1
(dp2
S'label'
p3
I0
sS'string'
p4
VHarvard
p5
sS'start_index'
p6
I70
sS'end_index'
p7
I76
sa(dp8
g3
I0
sg4
VAsian
p9
sg6
I180
sg7
I184
sa(dp10
g3
I0
sg4
VAmerican
p11
sg6
I186
sg7
I193
sa(dp12
g3
I1
sg4
VHarvard
p13
sg6
I287
sg7
I293
sa(dp14
g3
I0
sg4
VJustice
p15
sg6
I455
sg7
I461
sa(dp16
g3
I0
sg4
VDepartment
p17
sg6
I463
sg7
I472
sa(dp18
g3
I0
sg4
VBlum
p19
sg6
I521
sg7
I524
sa(dp20
g3
I0
sg4
VAmericans
p21
sg6
I633
sg7
I641
sa(dp22
g3
I0
sg4
VRepublican
p23
sg6
I1328
sg7
I1337
sa(dp24
g3
I0
sg4
VBlum
p25
sg6
I1407
sg7
I1410
sa(dp26
g3
I0
sg4
VBlum
p27
sg6
I1705
sg7
I1708
sa(dp28
g3
I0
sg4
VFair
p29
sg6
I1907
sg7
I1910
sa(dp30
g3
I0
sg4
VAdmissions
p31
sg6
I1912
sg7
I1921
sa(dp32
g3
I1
sg4
VHarvard
p33
sg6
I1957
sg7
I1963
sa(dp34
g3
I1
sg4
VHarvard
p35
sg6
I1984
sg7
I1990
sa(dp36
g3
I0
sg4
VRachel
p37
sg6
I2082
sg7
I2087
sa(dp38
g3
I0
sg4
VKleinman
p39
sg6
I2089
sg7
I2096
sa(dp40
g3
I0
sg4
VBlum
p41
sg6
I2148
sg7
I2151
sasI2
(lp42
(dp43
g3
I1
sg4
VHarvard University
p44
sg6
I70
sg7
I87
sa(dp45
g3
I0
sg4
VAsian American
p46
sg6
I180
sg7
I193
sa(dp47
g3
I0
sg4
VJustice Department
p48
sg6
I455
sg7
I472
sa(dp49
g3
I0
sg4
VFair Admissions
p50
sg6
I1907
sg7
I1921
sa(dp51
g3
I0
sg4
VRachel Kleinman
p52
sg6
I2082
sg7
I2096
sasI3
(lp53
sI4
(lp54
sI5
(lp55
sI6
(lp56
s.