(dp0
I1
(lp1
(dp2
S'label'
p3
I0
sS'string'
p4
VBlum
p5
sS'start_index'
p6
I4
sS'end_index'
p7
I7
sa(dp8
g3
I0
sg4
VAbigail
p9
sg6
I22
sg7
I28
sa(dp10
g3
I0
sg4
VFisher
p11
sg6
I30
sg7
I35
sa(dp12
g3
I0
sg4
VTexas.
p13
sg6
I113
sg7
I118
sa(dp14
g3
I0
sg4
VSupreme
p15
sg6
I124
sg7
I130
sa(dp16
g3
I0
sg4
VCourt
p17
sg6
I132
sg7
I136
sasI2
(lp18
(dp19
g3
I0
sg4
VAbigail Fisher
p20
sg6
I22
sg7
I35
sa(dp21
g3
I0
sg4
VSupreme Court
p22
sg6
I124
sg7
I136
sasI3
(lp23
(dp24
g3
I1
sg4
VUniversity of Texas.
p25
sg6
I99
sg7
I118
sasI4
(lp26
sI5
(lp27
sI6
(lp28
s.