(dp0
I1
(lp1
(dp2
S'label'
p3
I0
sS'string'
p4
VTexas
p5
sS'start_index'
p6
I7
sS'end_index'
p7
I11
sa(dp8
g3
I0
sg4
VTexas
p9
sg6
I117
sg7
I121
sa(dp10
g3
I0
sg4
VAustin
p11
sg6
I126
sg7
I131
sa(dp12
g3
I0
sg4
VAbigail
p13
sg6
I233
sg7
I239
sa(dp14
g3
I0
sg4
VFisher.
p15
sg6
I241
sg7
I247
sa(dp16
g3
I0
sg4
VFisher
p17
sg6
I300
sg7
I305
sa(dp18
g3
I0
sg4
VEdward
p19
sg6
I357
sg7
I362
sa(dp20
g3
I0
sg4
VSupreme
p21
sg6
I415
sg7
I421
sa(dp22
g3
I0
sg4
VCourt
p23
sg6
I423
sg7
I427
sa(dp24
g3
I0
sg4
VFisher
p25
sg6
I450
sg7
I455
sa(dp26
g3
I0
sg4
VBlum.
p27
sg6
I596
sg7
I600
sa(dp28
g3
I0
sg4
VEdward
p29
sg6
I646
sg7
I651
sa(dp30
g3
I0
sg4
VBig
p31
sg6
I708
sg7
I710
sa(dp32
g3
I0
sg4
VDonors
p33
sg6
I712
sg7
I717
sa(dp34
g3
I0
sg4
VElite
p35
sg6
I719
sg7
I723
sa(dp36
g3
I0
sg4
VLawyersFor
p37
sg6
I725
sg7
I734
sa(dp38
g3
I0
sg4
VBlum
p39
sg6
I757
sg7
I760
sa(dp40
g3
I0
sg4
VSouth
p41
sg6
I799
sg7
I803
sa(dp42
g3
I0
sg4
VThomaston
p43
sg6
I805
sg7
I813
sa(dp44
g3
I0
sg4
VMe.
p45
sg6
I815
sg7
I817
sa(dp46
g3
I0
sg4
VPenobscot
p47
sg6
I831
sg7
I839
sa(dp48
g3
I0
sg4
VBay
p49
sg6
I841
sg7
I843
sa(dp50
g3
I0
sg4
VAndrew
p51
sg6
I886
sg7
I891
sa(dp52
g3
I0
sg4
VWyeth.
p53
sg6
I893
sg7
I898
sa(dp54
g3
I0
sg4
VBlum
p55
sg6
I1074
sg7
I1077
sa(dp56
g3
I0
sg4
VDonorsTrust
p57
sg6
I1097
sg7
I1107
sa(dp58
g3
I0
sg4
VDonorsTrust
p59
sg6
I1224
sg7
I1234
sa(dp60
g3
I0
sg4
VBlum
p61
sg6
I1274
sg7
I1277
sa(dp62
g3
I0
sg4
VLawson
p63
sg6
I1309
sg7
I1314
sa(dp64
g3
I0
sg4
VBader
p65
sg6
I1319
sg7
I1323
sa(dp66
g3
I0
sg4
VSearle
p67
sg6
I1431
sg7
I1436
sa(dp68
g3
I0
sg4
VFreedom
p69
sg6
I1438
sg7
I1444
sa(dp70
g3
I0
sg4
VTrust
p71
sg6
I1446
sg7
I1450
sa(dp72
g3
I0
sg4
VKimberly
p73
sg6
I1481
sg7
I1488
sa(dp74
g3
I0
sg4
VDennis
p75
sg6
I1493
sg7
I1498
sa(dp76
g3
I0
sg4
VDaniel
p77
sg6
I1568
sg7
I1573
sa(dp78
g3
I0
sg4
VSearle
p79
sg6
I1578
sg7
I1583
sa(dp80
g3
I0
sg4
VSearle
p81
sg6
I1592
sg7
I1597
sa(dp82
g3
I0
sg4
VSearle
p83
sg6
I1640
sg7
I1645
sa(dp84
g3
I0
sg4
VAmerican
p85
sg6
I1837
sg7
I1844
sa(dp86
g3
I0
sg4
VLynde
p87
sg6
I1858
sg7
I1862
sa(dp88
g3
I0
sg4
VHarry
p89
sg6
I1868
sg7
I1872
sa(dp90
g3
I0
sg4
VBradley
p91
sg6
I1874
sg7
I1880
sa(dp92
g3
I0
sg4
VFoundation
p93
sg6
I1882
sg7
I1891
sa(dp94
g3
I0
sg4
VDonorsTrust
p95
sg6
I1943
sg7
I1953
sa(dp96
g3
I0
sg4
VBlum
p97
sg6
I1963
sg7
I1966
sasI2
(lp98
(dp99
g3
I0
sg4
VAbigail Fisher.
p100
sg6
I233
sg7
I247
sa(dp101
g3
I0
sg4
VSupreme Court
p102
sg6
I415
sg7
I427
sa(dp103
g3
I0
sg4
VBig Donors
p104
sg6
I708
sg7
I717
sa(dp105
g3
I0
sg4
VDonors Elite
p106
sg6
I712
sg7
I723
sa(dp107
g3
I0
sg4
VElite LawyersFor
p108
sg6
I719
sg7
I734
sa(dp109
g3
I0
sg4
VSouth Thomaston
p110
sg6
I799
sg7
I813
sa(dp111
g3
I0
sg4
VThomaston Me.
p112
sg6
I805
sg7
I817
sa(dp113
g3
I0
sg4
VPenobscot Bay
p114
sg6
I831
sg7
I843
sa(dp115
g3
I0
sg4
VAndrew Wyeth.
p116
sg6
I886
sg7
I898
sa(dp117
g3
I0
sg4
VLawson R.
p118
sg6
I1309
sg7
I1317
sa(dp119
g3
I0
sg4
VR. Bader
p120
sg6
I1316
sg7
I1323
sa(dp121
g3
I0
sg4
VSearle Freedom
p122
sg6
I1431
sg7
I1444
sa(dp123
g3
I0
sg4
VFreedom Trust
p124
sg6
I1438
sg7
I1450
sa(dp125
g3
I0
sg4
VKimberly O.
p126
sg6
I1481
sg7
I1491
sa(dp127
g3
I0
sg4
VO. Dennis
p128
sg6
I1490
sg7
I1498
sa(dp129
g3
I0
sg4
VDaniel C.
p130
sg6
I1568
sg7
I1576
sa(dp131
g3
I0
sg4
VC. Searle
p132
sg6
I1575
sg7
I1583
sa(dp133
g3
I0
sg4
VHarry Bradley
p134
sg6
I1868
sg7
I1880
sa(dp135
g3
I0
sg4
VBradley Foundation
p136
sg6
I1874
sg7
I1891
sasI3
(lp137
(dp138
g3
I1
sg4
VUniversity of Texas
p139
sg6
I103
sg7
I121
sa(dp140
g3
I0
sg4
VBig Donors Elite
p141
sg6
I708
sg7
I723
sa(dp142
g3
I0
sg4
VDonors Elite LawyersFor
p143
sg6
I712
sg7
I734
sa(dp144
g3
I0
sg4
VSouth Thomaston Me.
p145
sg6
I799
sg7
I817
sa(dp146
g3
I0
sg4
VLawson R. Bader
p147
sg6
I1309
sg7
I1323
sa(dp148
g3
I0
sg4
VSearle Freedom Trust
p149
sg6
I1431
sg7
I1450
sa(dp150
g3
I0
sg4
VKimberly O. Dennis
p151
sg6
I1481
sg7
I1498
sa(dp152
g3
I0
sg4
VDaniel C. Searle
p153
sg6
I1568
sg7
I1583
sa(dp154
g3
I0
sg4
VLynde and Harry
p155
sg6
I1858
sg7
I1872
sa(dp156
g3
I0
sg4
VHarry Bradley Foundation
p157
sg6
I1868
sg7
I1891
sasI4
(lp158
(dp159
g3
I0
sg4
VBig Donors Elite LawyersFor
p160
sg6
I708
sg7
I734
sa(dp161
g3
I0
sg4
VLynde and Harry Bradley
p162
sg6
I1858
sg7
I1880
sasI5
(lp163
(dp164
g3
I0
sg4
VLynde and Harry Bradley Foundation
p165
sg6
I1858
sg7
I1891
sasI6
(lp166
s.