(dp0
I1
(lp1
(dp2
S'label'
p3
I0
sS'string'
p4
VBlum
p5
sS'start_index'
p6
I8
sS'end_index'
p7
I11
sa(dp8
g3
I0
sg4
VBlum
p9
sg6
I150
sg7
I153
sa(dp10
g3
I0
sg4
VSupreme
p11
sg6
I195
sg7
I201
sa(dp12
g3
I0
sg4
VCourt
p13
sg6
I203
sg7
I207
sa(dp14
g3
I0
sg4
VWashington
p15
sg6
I229
sg7
I238
sa(dp16
g3
I0
sg4
VWiley
p17
sg6
I329
sg7
I333
sa(dp18
g3
I0
sg4
VRein
p19
sg6
I335
sg7
I338
sa(dp20
g3
I0
sg4
VWiley
p21
sg6
I361
sg7
I365
sa(dp22
g3
I0
sg4
VRein
p23
sg6
I367
sg7
I370
sa(dp24
g3
I0
sg4
VFisher
p25
sg6
I412
sg7
I417
sa(dp26
g3
I0
sg4
VShelby
p27
sg6
I423
sg7
I428
sa(dp28
g3
I0
sg4
VBert
p29
sg6
I445
sg7
I448
sa(dp30
g3
I0
sg4
VRein
p31
sg6
I450
sg7
I453
sa(dp32
g3
I0
sg4
VState
p33
sg6
I503
sg7
I507
sa(dp34
g3
I0
sg4
VDepartment
p35
sg6
I509
sg7
I518
sa(dp36
g3
I0
sg4
VNixon
p37
sg6
I537
sg7
I541
sa(dp38
g3
I0
sg4
VRein
p39
sg6
I563
sg7
I566
sa(dp40
g3
I0
sg4
VBlum
p41
sg6
I582
sg7
I585
sa(dp42
g3
I0
sg4
VRein
p43
sg6
I766
sg7
I769
sa(dp44
g3
I0
sg4
VBlum
p45
sg6
I795
sg7
I798
sa(dp46
g3
I1
sg4
VHarvard
p47
sg6
I878
sg7
I884
sa(dp48
g3
I0
sg4
VWilliam
p49
sg6
I910
sg7
I916
sa(dp50
g3
I0
sg4
VConsovoy
p51
sg6
I918
sg7
I925
sa(dp52
g3
I0
sg4
VJustice
p53
sg6
I985
sg7
I991
sa(dp54
g3
I0
sg4
VClarence
p55
sg6
I993
sg7
I1000
sa(dp56
g3
I0
sg4
VThomas
p57
sg6
I1002
sg7
I1007
sa(dp58
g3
I1
sg4
VHarvard
p59
sg6
I1085
sg7
I1091
sa(dp60
g3
I0
sg4
VBlum
p61
sg6
I1097
sg7
I1100
sa(dp62
g3
I0
sg4
VArmand
p63
sg6
I1130
sg7
I1135
sa(dp64
g3
I0
sg4
VDerfner
p65
sg6
I1137
sg7
I1143
sa(dp66
g3
I0
sg4
VCharleston
p67
sg6
I1218
sg7
I1227
sa(dp68
g3
I0
sg4
VLaw
p69
sg6
I1239
sg7
I1241
sa(dp70
g3
I0
sg4
VSouth
p71
sg6
I1246
sg7
I1250
sa(dp72
g3
I0
sg4
VCarolina
p73
sg6
I1252
sg7
I1259
sa(dp74
g3
I0
sg4
VDerfner
p75
sg6
I1362
sg7
I1368
sa(dp76
g3
I0
sg4
VJew
p77
sg6
I1421
sg7
I1423
sa(dp78
g3
I0
sg4
VWall
p79
sg6
I1453
sg7
I1456
sa(dp80
g3
I0
sg4
VStreet
p81
sg6
I1458
sg7
I1463
sa(dp82
g3
I0
sg4
VAsians
p83
sg6
I1551
sg7
I1556
sa(dp84
g3
I0
sg4
VBlum.
p85
sg6
I1639
sg7
I1643
sa(dp86
g3
I1
sg4
VHarvard
p87
sg6
I1824
sg7
I1830
sa(dp88
g3
I0
sg4
VRobert
p89
sg6
I1857
sg7
I1862
sa(dp90
g3
I0
sg4
VIuliano
p91
sg6
I1864
sg7
I1870
sasI2
(lp92
(dp93
g3
I0
sg4
VSupreme Court
p94
sg6
I195
sg7
I207
sa(dp95
g3
I0
sg4
VWiley Rein
p96
sg6
I329
sg7
I338
sa(dp97
g3
I0
sg4
VWiley Rein
p98
sg6
I361
sg7
I370
sa(dp99
g3
I0
sg4
VBert Rein
p100
sg6
I445
sg7
I453
sa(dp101
g3
I0
sg4
VState Department
p102
sg6
I503
sg7
I518
sa(dp103
g3
I0
sg4
VWilliam Consovoy
p104
sg6
I910
sg7
I925
sa(dp105
g3
I0
sg4
VJustice Clarence
p106
sg6
I985
sg7
I1000
sa(dp107
g3
I0
sg4
VClarence Thomas
p108
sg6
I993
sg7
I1007
sa(dp109
g3
I0
sg4
VArmand Derfner
p110
sg6
I1130
sg7
I1143
sa(dp111
g3
I0
sg4
VCharleston School
p112
sg6
I1218
sg7
I1234
sa(dp113
g3
I0
sg4
VSouth Carolina
p114
sg6
I1246
sg7
I1259
sa(dp115
g3
I0
sg4
VWall Street
p116
sg6
I1453
sg7
I1463
sa(dp117
g3
I0
sg4
VRobert Iuliano
p118
sg6
I1857
sg7
I1870
sasI3
(lp119
(dp120
g3
I0
sg4
VFisher and Shelby
p121
sg6
I412
sg7
I428
sa(dp122
g3
I0
sg4
VJustice Clarence Thomas
p123
sg6
I985
sg7
I1007
sa(dp124
g3
I0
sg4
VSchool of Law
p125
sg6
I1229
sg7
I1241
sasI4
(lp126
(dp127
g3
I1
sg4
VCharleston School of Law
p128
sg6
I1218
sg7
I1241
sasI5
(lp129
sI6
(lp130
s.