(dp0
I1
(lp1
(dp2
S'label'
p3
I0
sS'string'
p4
VBlum
p5
sS'start_index'
p6
I4
sS'end_index'
p7
I7
sa(dp8
g3
I1
sg4
VHarvard
p9
sg6
I68
sg7
I74
sa(dp10
g3
I0
sg4
VPrinceton
p11
sg6
I235
sg7
I243
sa(dp12
g3
I0
sg4
VUltimately
p13
sg6
I266
sg7
I275
sa(dp14
g3
I1
sg4
VHarvard
p15
sg6
I310
sg7
I316
sa(dp16
g3
I0
sg4
VBlum
p17
sg6
I436
sg7
I439
sasI2
(lp18
(dp19
g3
I1
sg4
VPrinceton University
p20
sg6
I235
sg7
I254
sasI3
(lp21
sI4
(lp22
sI5
(lp23
sI6
(lp24
s.