(dp0
I1
(lp1
(dp2
S'label'
p3
I0
sS'string'
p4
VHANOVER
p5
sS'start_index'
p6
I0
sS'end_index'
p7
I6
sa(dp8
g3
I1
sg4
VDartmouth
p9
sg6
I20
sg7
I28
sa(dp10
g3
I0
sg4
VTuesday.
p11
sg6
I233
sg7
I240
sa(dp12
g3
I0
sg4
VAttorney
p13
sg6
I242
sg7
I249
sa(dp14
g3
I0
sg4
VGeneral
p15
sg6
I251
sg7
I257
sa(dp16
g3
I0
sg4
VGordon
p17
sg6
I259
sg7
I264
sa(dp18
g3
I0
sg4
VMacDonald
p19
sg6
I269
sg7
I277
sa(dp20
g3
I0
sg4
VNew
p21
sg6
I282
sg7
I284
sa(dp22
g3
I0
sg4
VHampshire
p23
sg6
I286
sg7
I294
sa(dp24
g3
I0
sg4
VDepartment
p25
sg6
I485
sg7
I494
sa(dp26
g3
I0
sg4
VPsychological
p27
sg6
I499
sg7
I511
sa(dp28
g3
I0
sg4
VBrain
p29
sg6
I517
sg7
I521
sa(dp30
g3
I0
sg4
VSciences.
p31
sg6
I523
sg7
I531
sa(dp32
g3
I1
sg4
VDartmouth
p33
sg6
I562
sg7
I570
sa(dp34
g3
I0
sg4
VDetails
p35
sg6
I600
sg7
I606
sa(dp36
g3
I0
sg4
VMacDonald
p37
sg6
I653
sg7
I661
sa(dp38
g3
I1
sg4
VDartmouth
p39
sg6
I780
sg7
I788
sasI2
(lp40
(dp41
g3
I0
sg4
VHANOVER N.
p42
sg6
I0
sg7
I9
sa(dp43
g3
I0
sg4
VN. H.
p44
sg6
I8
sg7
I12
sa(dp45
g3
I0
sg4
VAttorney General
p46
sg6
I242
sg7
I257
sa(dp47
g3
I0
sg4
VGeneral Gordon
p48
sg6
I251
sg7
I264
sa(dp49
g3
I0
sg4
VGordon J.
p50
sg6
I259
sg7
I267
sa(dp51
g3
I0
sg4
VJ. MacDonald
p52
sg6
I266
sg7
I277
sa(dp53
g3
I0
sg4
VNew Hampshire
p54
sg6
I282
sg7
I294
sa(dp55
g3
I0
sg4
VBrain Sciences.
p56
sg6
I517
sg7
I531
sasI3
(lp57
(dp58
g3
I0
sg4
VHANOVER N. H.
p59
sg6
I0
sg7
I12
sa(dp60
g3
I0
sg4
VAttorney General Gordon
p61
sg6
I242
sg7
I264
sa(dp62
g3
I0
sg4
VGeneral Gordon J.
p63
sg6
I251
sg7
I267
sa(dp64
g3
I0
sg4
VGordon J. MacDonald
p65
sg6
I259
sg7
I277
sa(dp66
g3
I0
sg4
VMacDonald of New
p67
sg6
I269
sg7
I284
sa(dp68
g3
I0
sg4
VDepartment of Psychological
p69
sg6
I485
sg7
I511
sa(dp70
g3
I0
sg4
VPsychological and Brain
p71
sg6
I499
sg7
I521
sasI4
(lp72
(dp73
g3
I0
sg4
VAttorney General Gordon J.
p74
sg6
I242
sg7
I267
sa(dp75
g3
I0
sg4
VGeneral Gordon J. MacDonald
p76
sg6
I251
sg7
I277
sa(dp77
g3
I0
sg4
VJ. MacDonald of New
p78
sg6
I266
sg7
I284
sa(dp79
g3
I0
sg4
VMacDonald of New Hampshire
p80
sg6
I269
sg7
I294
sa(dp81
g3
I0
sg4
VPsychological and Brain Sciences.
p82
sg6
I499
sg7
I531
sasI5
(lp83
(dp84
g3
I0
sg4
VAttorney General Gordon J. MacDonald
p85
sg6
I242
sg7
I277
sa(dp86
g3
I0
sg4
VGordon J. MacDonald of New
p87
sg6
I259
sg7
I284
sa(dp88
g3
I0
sg4
VJ. MacDonald of New Hampshire
p89
sg6
I266
sg7
I294
sa(dp90
g3
I0
sg4
VDepartment of Psychological and Brain
p91
sg6
I485
sg7
I521
sasI6
(lp92
(dp93
g3
I0
sg4
VGeneral Gordon J. MacDonald of New
p94
sg6
I251
sg7
I284
sa(dp95
g3
I0
sg4
VGordon J. MacDonald of New Hampshire
p96
sg6
I259
sg7
I294
sa(dp97
g3
I0
sg4
VDepartment of Psychological and Brain Sciences.
p98
sg6
I485
sg7
I531
sas.