(dp0
I1
(lp1
(dp2
S'label'
p3
I0
sS'string'
p4
VElizabeth
p5
sS'start_index'
p6
I176
sS'end_index'
p7
I184
sa(dp8
g3
I0
sg4
VSouthwell
p9
sg6
I186
sg7
I194
sa(dp10
g3
I1
sg4
VDartmouth
p11
sg6
I201
sg7
I209
sa(dp12
g3
I1
sg4
VDartmouth.
p13
sg6
I297
sg7
I306
sa(dp14
g3
I0
sg4
VNews
p15
sg6
I308
sg7
I311
sa(dp16
g3
I0
sg4
VFacebook
p17
sg6
I376
sg7
I383
sa(dp18
g3
I0
sg4
VSouthwell
p19
sg6
I433
sg7
I441
sasI2
(lp20
(dp21
g3
I0
sg4
VElizabeth Southwell
p22
sg6
I176
sg7
I194
sasI3
(lp23
sI4
(lp24
sI5
(lp25
sI6
(lp26
s.