(dp0
I1
(lp1
(dp2
S'label'
p3
I1
sS'string'
p4
VDartmouth
p5
sS'start_index'
p6
I52
sS'end_index'
p7
I60
sa(dp8
g3
I0
sg4
VPhilip
p9
sg6
I62
sg7
I67
sa(dp10
g3
I0
sg4
VHanlon
p11
sg6
I72
sg7
I77
sa(dp12
g3
I0
sg4
VTodd
p13
sg6
I185
sg7
I188
sa(dp14
g3
I0
sg4
VHeatherton
p15
sg6
I193
sg7
I202
sa(dp16
g3
I0
sg4
VWilliam
p17
sg6
I207
sg7
I213
sa(dp18
g3
I0
sg4
VKelley
p19
sg6
I218
sg7
I223
sa(dp20
g3
I0
sg4
VPaul
p21
sg6
I232
sg7
I235
sa(dp22
g3
I0
sg4
VWhalen
p23
sg6
I240
sg7
I245
sasI2
(lp24
(dp25
g3
I0
sg4
VDartmouth Philip
p26
sg6
I52
sg7
I67
sa(dp27
g3
I0
sg4
VPhilip J.
p28
sg6
I62
sg7
I70
sa(dp29
g3
I0
sg4
VJ. Hanlon
p30
sg6
I69
sg7
I77
sa(dp31
g3
I0
sg4
VTodd F.
p32
sg6
I185
sg7
I191
sa(dp33
g3
I0
sg4
VF. Heatherton
p34
sg6
I190
sg7
I202
sa(dp35
g3
I0
sg4
VWilliam M.
p36
sg6
I207
sg7
I216
sa(dp37
g3
I0
sg4
VM. Kelley
p38
sg6
I215
sg7
I223
sa(dp39
g3
I0
sg4
VPaul J.
p40
sg6
I232
sg7
I238
sa(dp41
g3
I0
sg4
VJ. Whalen
p42
sg6
I237
sg7
I245
sasI3
(lp43
(dp44
g3
I0
sg4
VDartmouth Philip J.
p45
sg6
I52
sg7
I70
sa(dp46
g3
I0
sg4
VPhilip J. Hanlon
p47
sg6
I62
sg7
I77
sa(dp48
g3
I0
sg4
VTodd F. Heatherton
p49
sg6
I185
sg7
I202
sa(dp50
g3
I0
sg4
VWilliam M. Kelley
p51
sg6
I207
sg7
I223
sa(dp52
g3
I0
sg4
VPaul J. Whalen
p53
sg6
I232
sg7
I245
sasI4
(lp54
(dp55
g3
I0
sg4
VDartmouth Philip J. Hanlon
p56
sg6
I52
sg7
I77
sasI5
(lp57
sI6
(lp58
s.