(dp0
I1
(lp1
(dp2
S'label'
p3
I0
sS'string'
p4
V_____The
p5
sS'start_index'
p6
I0
sS'end_index'
p7
I7
sa(dp8
g3
I0
sg4
VDallas
p9
sg6
I32
sg7
I37
sa(dp10
g3
I0
sg4
VMorning
p11
sg6
I39
sg7
I45
sa(dp12
g3
I0
sg4
VNews
p13
sg6
I47
sg7
I50
sa(dp14
g3
I0
sg4
VEducation
p15
sg6
I104
sg7
I112
sa(dp16
g3
I0
sg4
VSecretary
p17
sg6
I114
sg7
I122
sa(dp18
g3
I0
sg4
VBetsy
p19
sg6
I124
sg7
I128
sa(dp20
g3
I0
sg4
VDeVos
p21
sg6
I130
sg7
I134
sa(dp22
g3
I0
sg4
VObama
p23
sg6
I303
sg7
I307
sa(dp24
g3
I0
sg4
VTitle
p25
sg6
I313
sg7
I317
sa(dp26
g3
I0
sg4
VDallas
p27
sg6
I353
sg7
I358
sa(dp28
g3
I0
sg4
VMorning
p29
sg6
I360
sg7
I366
sa(dp30
g3
I0
sg4
VNews
p31
sg6
I368
sg7
I371
sa(dp32
g3
I0
sg4
VRead
p33
sg6
I656
sg7
I659
sa(dp34
g3
I0
sg4
VEditor
p35
sg6
I673
sg7
I678
sa(dp36
g3
I0
sg4
VReal
p37
sg6
I687
sg7
I690
sa(dp38
g3
I0
sg4
VCampus
p39
sg6
I692
sg7
I697
sa(dp40
g3
I0
sg4
VScourge
p41
sg6
I699
sg7
I705
sa(dp42
g3
I0
sg4
VFrank
p43
sg6
I710
sg7
I714
sa(dp44
g3
I0
sg4
VBruni
p45
sg6
I716
sg7
I720
sa(dp46
g3
I0
sg4
VSept.
p47
sg6
I729
sg7
I733
sa(dp48
g3
I0
sg4
VSeptembers
p49
sg6
I777
sg7
I786
sa(dp50
g3
I1
sg4
VUCLA
p51
sg6
I869
sg7
I872
sa(dp52
g3
I0
sg4
VLater
p53
sg6
I1089
sg7
I1093
sa(dp54
g3
I0
sg4
VUWE
p55
sg6
I1539
sg7
I1541
sa(dp56
g3
I0
sg4
VREINHARDTPRINCETON
p57
sg6
I1543
sg7
I1560
sa(dp58
g3
I0
sg4
VJ.The
p59
sg6
I1565
sg7
I1569
sa(dp60
g3
I1
sg4
VPrinceton.
p61
sg6
I1617
sg7
I1626
sa(dp62
g3
I0
sg4
VEditor
p63
sg6
I1635
sg7
I1640
sa(dp64
g3
I0
sg4
VFrank
p65
sg6
I1654
sg7
I1658
sa(dp66
g3
I0
sg4
VBruni
p67
sg6
I1660
sg7
I1664
sa(dp68
g3
I0
sg4
VFacebook
p69
sg6
I1859
sg7
I1866
sa(dp70
g3
I0
sg4
VGoing
p71
sg6
I2003
sg7
I2007
sa(dp72
g3
I0
sg4
VEqually
p73
sg6
I2273
sg7
I2279
sasI2
(lp74
(dp75
g3
I0
sg4
VDallas Morning
p76
sg6
I32
sg7
I45
sa(dp77
g3
I0
sg4
VMorning News
p78
sg6
I39
sg7
I50
sa(dp79
g3
I0
sg4
VEducation Secretary
p80
sg6
I104
sg7
I122
sa(dp81
g3
I0
sg4
VSecretary Betsy
p82
sg6
I114
sg7
I128
sa(dp83
g3
I0
sg4
VBetsy DeVos
p84
sg6
I124
sg7
I134
sa(dp85
g3
I0
sg4
VTitle IX
p86
sg6
I313
sg7
I320
sa(dp87
g3
I0
sg4
VDallas Morning
p88
sg6
I353
sg7
I366
sa(dp89
g3
I0
sg4
VMorning News
p90
sg6
I360
sg7
I371
sa(dp91
g3
I0
sg4
VEditor Re
p92
sg6
I673
sg7
I681
sa(dp93
g3
I0
sg4
VReal Campus
p94
sg6
I687
sg7
I697
sa(dp95
g3
I0
sg4
VCampus Scourge
p96
sg6
I692
sg7
I705
sa(dp97
g3
I0
sg4
VFrank Bruni
p98
sg6
I710
sg7
I720
sa(dp99
g3
I0
sg4
VUWE REINHARDTPRINCETON
p100
sg6
I1539
sg7
I1560
sa(dp101
g3
I0
sg4
VREINHARDTPRINCETON N.
p102
sg6
I1543
sg7
I1563
sa(dp103
g3
I0
sg4
VN. J.The
p104
sg6
I1562
sg7
I1569
sa(dp105
g3
I0
sg4
VFrank Bruni
p106
sg6
I1654
sg7
I1664
sasI3
(lp107
(dp108
g3
I0
sg4
VDallas Morning News
p109
sg6
I32
sg7
I50
sa(dp110
g3
I0
sg4
VEducation Secretary Betsy
p111
sg6
I104
sg7
I128
sa(dp112
g3
I0
sg4
VSecretary Betsy DeVos
p113
sg6
I114
sg7
I134
sa(dp114
g3
I0
sg4
VDallas Morning News
p115
sg6
I353
sg7
I371
sa(dp116
g3
I0
sg4
VReal Campus Scourge
p117
sg6
I687
sg7
I705
sa(dp118
g3
I0
sg4
VUWE REINHARDTPRINCETON N.
p119
sg6
I1539
sg7
I1563
sa(dp120
g3
I0
sg4
VREINHARDTPRINCETON N. J.The
p121
sg6
I1543
sg7
I1569
sasI4
(lp122
(dp123
g3
I0
sg4
VEducation Secretary Betsy DeVos
p124
sg6
I104
sg7
I134
sa(dp125
g3
I0
sg4
VUWE REINHARDTPRINCETON N. J.The
p126
sg6
I1539
sg7
I1569
sasI5
(lp127
sI6
(lp128
s.