(dp0
I1
(lp1
(dp2
S'label'
p3
I0
sS'string'
p4
VHeatherton
p5
sS'start_index'
p6
I4
sS'end_index'
p7
I13
sa(dp8
g3
I0
sg4
VNew
p9
sg6
I247
sg7
I249
sa(dp10
g3
I0
sg4
VYork
p11
sg6
I251
sg7
I254
sa(dp12
g3
I0
sg4
VJohn
p13
sg6
I375
sg7
I378
sa(dp14
g3
I0
sg4
VBeckman
p15
sg6
I383
sg7
I389
sa(dp16
g3
I1
sg4
VNYU
p17
sg6
I394
sg7
I396
sa(dp18
g3
I1
sg4
VNYU
p19
sg6
I409
sg7
I411
sa(dp20
g3
I1
sg4
VDartmouth
p21
sg6
I432
sg7
I440
sa(dp22
g3
I0
sg4
VBeckman
p23
sg6
I481
sg7
I487
sa(dp24
g3
I0
sg4
VKelley
p25
sg6
I567
sg7
I572
sa(dp26
g3
I0
sg4
VHeatherton
p27
sg6
I649
sg7
I658
sa(dp28
g3
I0
sg4
VKelley
p29
sg6
I668
sg7
I673
sa(dp30
g3
I0
sg4
VJournal
p31
sg6
I1138
sg7
I1144
sa(dp32
g3
I0
sg4
VNeuroscience
p33
sg6
I1149
sg7
I1160
sa(dp34
g3
I0
sg4
VNational
p35
sg6
I1349
sg7
I1356
sa(dp36
g3
I0
sg4
VDrug
p37
sg6
I1371
sg7
I1374
sa(dp38
g3
I0
sg4
VAbuse.
p39
sg6
I1376
sg7
I1381
sa(dp40
g3
I0
sg4
VWhalen
p41
sg6
I1387
sg7
I1392
sa(dp42
g3
I0
sg4
VWhalen
p43
sg6
I1443
sg7
I1448
sa(dp44
g3
I0
sg4
VTedXDartmouth
p45
sg6
I1486
sg7
I1498
sa(dp46
g3
I0
sg4
VWhalen
p47
sg6
I1514
sg7
I1519
sa(dp48
g3
I0
sg4
VLab
p49
sg6
I1521
sg7
I1523
sa(dp50
g3
I0
sg4
VDrs.
p51
sg6
I1654
sg7
I1657
sa(dp52
g3
I0
sg4
VKelley
p53
sg6
I1659
sg7
I1664
sa(dp54
g3
I0
sg4
VHeatherton
p55
sg6
I1670
sg7
I1679
sa(dp56
g3
I0
sg4
VJournal
p57
sg6
I1867
sg7
I1873
sa(dp58
g3
I0
sg4
VCognitive
p59
sg6
I1878
sg7
I1886
sa(dp60
g3
I0
sg4
VNeuroscience.
p61
sg6
I1888
sg7
I1900
sasI2
(lp62
(dp63
g3
I0
sg4
VNew York
p64
sg6
I247
sg7
I254
sa(dp65
g3
I0
sg4
VYork University
p66
sg6
I251
sg7
I265
sa(dp67
g3
I0
sg4
VJohn H.
p68
sg6
I375
sg7
I381
sa(dp69
g3
I0
sg4
VH. Beckman
p70
sg6
I380
sg7
I389
sa(dp71
g3
I0
sg4
VNational Institute
p72
sg6
I1349
sg7
I1366
sa(dp73
g3
I0
sg4
VDrug Abuse.
p74
sg6
I1371
sg7
I1381
sa(dp75
g3
I0
sg4
VWhalen Lab
p76
sg6
I1514
sg7
I1523
sa(dp77
g3
I0
sg4
VCognitive Neuroscience.
p78
sg6
I1878
sg7
I1900
sasI3
(lp79
(dp80
g3
I1
sg4
VNew York University
p81
sg6
I247
sg7
I265
sa(dp82
g3
I0
sg4
VJohn H. Beckman
p83
sg6
I375
sg7
I389
sa(dp84
g3
I0
sg4
VJournal of Neuroscience
p85
sg6
I1138
sg7
I1160
sa(dp86
g3
I0
sg4
VInstitute of Drug
p87
sg6
I1358
sg7
I1374
sa(dp88
g3
I0
sg4
VKelley and Heatherton
p89
sg6
I1659
sg7
I1679
sa(dp90
g3
I0
sg4
VJournal of Cognitive
p91
sg6
I1867
sg7
I1886
sasI4
(lp92
(dp93
g3
I0
sg4
VNational Institute of Drug
p94
sg6
I1349
sg7
I1374
sa(dp95
g3
I0
sg4
VInstitute of Drug Abuse.
p96
sg6
I1358
sg7
I1381
sa(dp97
g3
I0
sg4
VJournal of Cognitive Neuroscience.
p98
sg6
I1867
sg7
I1900
sasI5
(lp99
(dp100
g3
I1
sg4
VNational Institute of Drug Abuse.
p101
sg6
I1349
sg7
I1381
sasI6
(lp102
s.