(dp0
I1
(lp1
(dp2
S'label'
p3
I1
sS'string'
p4
VDartmouth
p5
sS'start_index'
p6
I177
sS'end_index'
p7
I185
sa(dp8
g3
I0
sg4
VHanlon
p9
sg6
I191
sg7
I196
sa(dp10
g3
I0
sg4
VSuch
p11
sg6
I204
sg7
I207
sa(dp12
g3
I0
sg4
VHanlon
p13
sg6
I274
sg7
I279
sa(dp14
g3
I1
sg4
VDartmouth
p15
sg6
I326
sg7
I334
sasI2
(lp16
sI3
(lp17
sI4
(lp18
sI5
(lp19
sI6
(lp20
s.