(dp0
I1
(lp1
(dp2
S'label'
p3
I0
sS'string'
p4
VUnited
p5
sS'start_index'
p6
I145
sS'end_index'
p7
I150
sa(dp8
g3
I0
sg4
VStates
p9
sg6
I152
sg7
I157
sa(dp10
g3
I0
sg4
VDepartment
p11
sg6
I332
sg7
I341
sa(dp12
g3
I0
sg4
VEducation
p13
sg6
I346
sg7
I354
sa(dp14
g3
I0
sg4
VBack
p15
sg6
I590
sg7
I593
sa(dp16
g3
I0
sg4
VCongress
p17
sg6
I603
sg7
I610
sa(dp18
g3
I0
sg4
VCommittee
p19
sg6
I724
sg7
I732
sa(dp20
g3
I0
sg4
VMeasures
p21
sg6
I737
sg7
I744
sa(dp22
g3
I0
sg4
VSuccess
p23
sg6
I757
sg7
I763
sa(dp24
g3
I0
sg4
VWayne
p25
sg6
I798
sg7
I802
sa(dp26
g3
I0
sg4
VBurton
p27
sg6
I804
sg7
I809
sa(dp28
g3
I0
sg4
VNorth
p29
sg6
I828
sg7
I832
sa(dp30
g3
I0
sg4
VShore
p31
sg6
I834
sg7
I838
sa(dp32
g3
I0
sg4
VCommunity
p33
sg6
I840
sg7
I848
sa(dp34
g3
I0
sg4
VDanvers
p35
sg6
I861
sg7
I867
sa(dp36
g3
I0
sg4
VMass.
p37
sg6
I869
sg7
I873
sa(dp38
g3
I0
sg4
VBurton
p39
sg6
I899
sg7
I904
sa(dp40
g3
I0
sg4
VEducation
p41
sg6
I1069
sg7
I1077
sa(dp42
g3
I0
sg4
VDepartment
p43
sg6
I1079
sg7
I1088
sa(dp44
g3
I0
sg4
VEducation
p45
sg6
I1201
sg7
I1209
sa(dp46
g3
I0
sg4
VDepartment
p47
sg6
I1211
sg7
I1220
sa(dp48
g3
I0
sg4
VBurton
p49
sg6
I1290
sg7
I1295
sa(dp50
g3
I0
sg4
VNew
p51
sg6
I1344
sg7
I1346
sa(dp52
g3
I0
sg4
VHampshire
p53
sg6
I1348
sg7
I1356
sasI2
(lp54
(dp55
g3
I0
sg4
VUnited States
p56
sg6
I145
sg7
I157
sa(dp57
g3
I0
sg4
VWayne Burton
p58
sg6
I798
sg7
I809
sa(dp59
g3
I0
sg4
VNorth Shore
p60
sg6
I828
sg7
I838
sa(dp61
g3
I0
sg4
VShore Community
p62
sg6
I834
sg7
I848
sa(dp63
g3
I0
sg4
VCommunity College
p64
sg6
I840
sg7
I856
sa(dp65
g3
I0
sg4
VDanvers Mass.
p66
sg6
I861
sg7
I873
sa(dp67
g3
I0
sg4
VEducation Department
p68
sg6
I1069
sg7
I1088
sa(dp69
g3
I0
sg4
VEducation Department
p70
sg6
I1201
sg7
I1220
sa(dp71
g3
I0
sg4
VNew Hampshire
p72
sg6
I1344
sg7
I1356
sasI3
(lp73
(dp74
g3
I0
sg4
VDepartment of Education
p75
sg6
I332
sg7
I354
sa(dp76
g3
I0
sg4
VNorth Shore Community
p77
sg6
I828
sg7
I848
sa(dp78
g3
I0
sg4
VShore Community College
p79
sg6
I834
sg7
I856
sasI4
(lp80
(dp81
g3
I1
sg4
VNorth Shore Community College
p82
sg6
I828
sg7
I856
sasI5
(lp83
sI6
(lp84
s.