(dp0
I1
(lp1
(dp2
S'label'
p3
I0
sS'string'
p4
VSenator
p5
sS'start_index'
p6
I56
sS'end_index'
p7
I62
sa(dp8
g3
I0
sg4
VBill
p9
sg6
I64
sg7
I67
sa(dp10
g3
I0
sg4
VBradley
p11
sg6
I69
sg7
I75
sa(dp12
g3
I0
sg4
VBradley
p13
sg6
I407
sg7
I413
sa(dp14
g3
I1
sg4
VPrinceton
p15
sg6
I428
sg7
I436
sa(dp16
g3
I0
sg4
VEducation
p17
sg6
I1279
sg7
I1287
sa(dp18
g3
I0
sg4
VDepartment
p19
sg6
I1289
sg7
I1298
sa(dp20
g3
I0
sg4
VNorth
p21
sg6
I2108
sg7
I2112
sa(dp22
g3
I0
sg4
VShore
p23
sg6
I2114
sg7
I2118
sa(dp24
g3
I0
sg4
VCommunity
p25
sg6
I2120
sg7
I2128
sasI2
(lp26
(dp27
g3
I0
sg4
VSenator Bill
p28
sg6
I56
sg7
I67
sa(dp29
g3
I0
sg4
VBill Bradley
p30
sg6
I64
sg7
I75
sa(dp31
g3
I0
sg4
VEducation Department
p32
sg6
I1279
sg7
I1298
sa(dp33
g3
I0
sg4
VNorth Shore
p34
sg6
I2108
sg7
I2118
sa(dp35
g3
I0
sg4
VShore Community
p36
sg6
I2114
sg7
I2128
sa(dp37
g3
I0
sg4
VCommunity College
p38
sg6
I2120
sg7
I2136
sasI3
(lp39
(dp40
g3
I0
sg4
VSenator Bill Bradley
p41
sg6
I56
sg7
I75
sa(dp42
g3
I0
sg4
VNorth Shore Community
p43
sg6
I2108
sg7
I2128
sa(dp44
g3
I0
sg4
VShore Community College
p45
sg6
I2114
sg7
I2136
sasI4
(lp46
(dp47
g3
I1
sg4
VNorth Shore Community College
p48
sg6
I2108
sg7
I2136
sasI5
(lp49
sI6
(lp50
s.