(dp0
I1
(lp1
(dp2
S'label'
p3
I0
sS'string'
p4
VNorth
p5
sS'start_index'
p6
I566
sS'end_index'
p7
I570
sa(dp8
g3
I0
sg4
VShore
p9
sg6
I572
sg7
I576
sa(dp10
g3
I0
sg4
VAnother
p11
sg6
I611
sg7
I617
sa(dp12
g3
I0
sg4
VOthers
p13
sg6
I661
sg7
I666
sa(dp14
g3
I0
sg4
VBurton
p15
sg6
I735
sg7
I740
sa(dp16
g3
I0
sg4
VGunderson
p17
sg6
I898
sg7
I906
sa(dp18
g3
I0
sg4
VCombined
p19
sg6
I1100
sg7
I1107
sa(dp20
g3
I0
sg4
VGunderson
p21
sg6
I1528
sg7
I1536
sa(dp22
g3
I0
sg4
VSouth
p23
sg6
I1788
sg7
I1792
sa(dp24
g3
I0
sg4
VSavannah
p25
sg6
I1807
sg7
I1814
sa(dp26
g3
I0
sg4
VGa.
p27
sg6
I1816
sg7
I1818
sa(dp28
g3
I0
sg4
VGeorgia
p29
sg6
I1944
sg7
I1950
sa(dp30
g3
I0
sg4
VGeorgia
p31
sg6
I1956
sg7
I1962
sa(dp32
g3
I0
sg4
VState
p33
sg6
I1964
sg7
I1968
sa(dp34
g3
I0
sg4
VSouth
p35
sg6
I2013
sg7
I2017
sa(dp36
g3
I0
sg4
VSouth
p37
sg6
I2117
sg7
I2121
sa(dp38
g3
I0
sg4
VAnswer
p39
sg6
I2234
sg7
I2239
sa(dp40
g3
I0
sg4
VAdd
p41
sg6
I2293
sg7
I2295
sa(dp42
g3
I0
sg4
VInclude
p43
sg6
I2324
sg7
I2330
sa(dp44
g3
I0
sg4
VSouth
p45
sg6
I2420
sg7
I2424
sasI2
(lp46
(dp47
g3
I1
sg4
VNorth Shore
p48
sg6
I566
sg7
I576
sa(dp49
g3
I1
sg4
VSouth University
p50
sg6
I1788
sg7
I1803
sa(dp51
g3
I0
sg4
VSavannah Ga.
p52
sg6
I1807
sg7
I1818
sa(dp53
g3
I0
sg4
VGeorgia State
p54
sg6
I1956
sg7
I1968
sa(dp55
g3
I0
sg4
VState University
p56
sg6
I1964
sg7
I1979
sa(dp57
g3
I1
sg4
VSouth University
p58
sg6
I2013
sg7
I2028
sa(dp59
g3
I1
sg4
VSouth University
p60
sg6
I2117
sg7
I2132
sa(dp61
g3
I1
sg4
VSouth University
p62
sg6
I2420
sg7
I2435
sasI3
(lp63
(dp64
g3
I1
sg4
VUniversity of Georgia
p65
sg6
I1930
sg7
I1950
sa(dp66
g3
I1
sg4
VGeorgia State University
p67
sg6
I1956
sg7
I1979
sasI4
(lp68
sI5
(lp69
(dp70
g3
I0
sg4
VUniversity of Georgia and Georgia
p71
sg6
I1930
sg7
I1962
sasI6
(lp72
s.