(dp0
I1
(lp1
(dp2
S'label'
p3
I0
sS'string'
p4
VSouth
p5
sS'start_index'
p6
I22
sS'end_index'
p7
I26
sa(dp8
g3
I0
sg4
VSouthern
p9
sg6
I72
sg7
I79
sa(dp10
g3
I0
sg4
VAssociation
p11
sg6
I81
sg7
I91
sa(dp12
g3
I0
sg4
VNorth
p13
sg6
I210
sg7
I214
sa(dp14
g3
I0
sg4
VCarolina
p15
sg6
I216
sg7
I223
sa(dp16
g3
I0
sg4
VGeorgia
p17
sg6
I316
sg7
I322
sa(dp18
g3
I0
sg4
VNorthwestern
p19
sg6
I324
sg7
I335
sa(dp20
g3
I0
sg4
VTechnical
p21
sg6
I337
sg7
I345
sa(dp22
g3
I0
sg4
VPreparing
p23
sg6
I435
sg7
I443
sa(dp24
g3
I0
sg4
VGeorgia
p25
sg6
I507
sg7
I513
sa(dp26
g3
I0
sg4
VSavannah
p27
sg6
I546
sg7
I553
sa(dp28
g3
I0
sg4
VState
p29
sg6
I555
sg7
I559
sasI2
(lp30
(dp31
g3
I1
sg4
VSouth University
p32
sg6
I22
sg7
I37
sa(dp33
g3
I0
sg4
VSouthern Association
p34
sg6
I72
sg7
I91
sa(dp35
g3
I0
sg4
VNorth Carolina
p36
sg6
I210
sg7
I223
sa(dp37
g3
I0
sg4
VGeorgia Northwestern
p38
sg6
I316
sg7
I335
sa(dp39
g3
I0
sg4
VNorthwestern Technical
p40
sg6
I324
sg7
I345
sa(dp41
g3
I0
sg4
VTechnical College
p42
sg6
I337
sg7
I353
sa(dp43
g3
I0
sg4
VSavannah State
p44
sg6
I546
sg7
I559
sa(dp45
g3
I0
sg4
VState University
p46
sg6
I555
sg7
I570
sasI3
(lp47
(dp48
g3
I0
sg4
VUniversity of North
p49
sg6
I196
sg7
I214
sa(dp50
g3
I0
sg4
VGeorgia Northwestern Technical
p51
sg6
I316
sg7
I345
sa(dp52
g3
I0
sg4
VNorthwestern Technical College
p53
sg6
I324
sg7
I353
sa(dp54
g3
I1
sg4
VSavannah State University
p55
sg6
I546
sg7
I570
sasI4
(lp56
(dp57
g3
I1
sg4
VUniversity of North Carolina
p58
sg6
I196
sg7
I223
sa(dp59
g3
I1
sg4
VGeorgia Northwestern Technical College
p60
sg6
I316
sg7
I353
sasI5
(lp61
sI6
(lp62
s.