(dp0
I1
(lp1
(dp2
S'label'
p3
I0
sS'string'
p4
VSan
p5
sS'start_index'
p6
I40
sS'end_index'
p7
I42
sa(dp8
g3
I0
sg4
VJose
p9
sg6
I44
sg7
I47
sa(dp10
g3
I0
sg4
VCity
p11
sg6
I49
sg7
I52
sa(dp12
g3
I0
sg4
VCalifornia
p13
sg6
I65
sg7
I74
sa(dp14
g3
I0
sg4
VTransfers
p15
sg6
I294
sg7
I302
sa(dp16
g3
I0
sg4
VSan
p17
sg6
I366
sg7
I368
sa(dp18
g3
I0
sg4
VJose
p19
sg6
I370
sg7
I373
sa(dp20
g3
I0
sg4
VCity
p21
sg6
I375
sg7
I378
sasI2
(lp22
(dp23
g3
I0
sg4
VSan Jose
p24
sg6
I40
sg7
I47
sa(dp25
g3
I0
sg4
VJose City
p26
sg6
I44
sg7
I52
sa(dp27
g3
I0
sg4
VCity College
p28
sg6
I49
sg7
I60
sa(dp29
g3
I0
sg4
VSan Jose
p30
sg6
I366
sg7
I373
sa(dp31
g3
I0
sg4
VJose City
p32
sg6
I370
sg7
I378
sa(dp33
g3
I0
sg4
VCity College
p34
sg6
I375
sg7
I386
sasI3
(lp35
(dp36
g3
I0
sg4
VSan Jose City
p37
sg6
I40
sg7
I52
sa(dp38
g3
I0
sg4
VJose City College
p39
sg6
I44
sg7
I60
sa(dp40
g3
I0
sg4
VSan Jose City
p41
sg6
I366
sg7
I378
sa(dp42
g3
I0
sg4
VJose City College
p43
sg6
I370
sg7
I386
sasI4
(lp44
(dp45
g3
I1
sg4
VSan Jose City College
p46
sg6
I40
sg7
I60
sa(dp47
g3
I1
sg4
VSan Jose City College
p48
sg6
I366
sg7
I386
sasI5
(lp49
sI6
(lp50
s.