(dp0
I1
(lp1
(dp2
S'label'
p3
I0
sS'string'
p4
VTwelve
p5
sS'start_index'
p6
I0
sS'end_index'
p7
I5
sa(dp8
g3
I0
sg4
VSteps
p9
sg6
I7
sg7
I11
sa(dp10
g3
I0
sg4
VCompassionate
p11
sg6
I18
sg7
I30
sa(dp12
g3
I0
sg4
VLife
p13
sg6
I32
sg7
I35
sa(dp14
g3
I0
sg4
VShannon
p15
sg6
I122
sg7
I128
sa(dp16
g3
I0
sg4
VMariotti
p17
sg6
I130
sg7
I137
sa(dp18
g3
I0
sg4
VTea
p19
sg6
I247
sg7
I249
sa(dp20
g3
I0
sg4
VParty
p21
sg6
I251
sg7
I255
sa(dp22
g3
I0
sg4
VSouthwestern
p23
sg6
I341
sg7
I352
sa(dp24
g3
I0
sg4
VGeorgetown
p25
sg6
I401
sg7
I410
sa(dp26
g3
I0
sg4
VTex.
p27
sg6
I412
sg7
I415
sa(dp28
g3
I0
sg4
VMariotti
p29
sg6
I421
sg7
I428
sa(dp30
g3
I0
sg4
VLearn
p31
sg6
I556
sg7
I560
sa(dp32
g3
I0
sg4
VLove
p33
sg6
I585
sg7
I588
sa(dp34
g3
I0
sg4
VZen
p35
sg6
I715
sg7
I717
sa(dp36
g3
I0
sg4
VMariotti
p37
sg6
I774
sg7
I781
sa(dp38
g3
I0
sg4
VClasses
p39
sg6
I813
sg7
I819
sa(dp40
g3
I0
sg4
VEvery
p41
sg6
I928
sg7
I932
sa(dp42
g3
I0
sg4
VMariotti
p43
sg6
I991
sg7
I998
sa(dp44
g3
I1
sg4
VSouthwestern
p45
sg6
I1071
sg7
I1082
sasI2
(lp46
(dp47
g3
I0
sg4
VTwelve Steps
p48
sg6
I0
sg7
I11
sa(dp49
g3
I0
sg4
VCompassionate Life
p50
sg6
I18
sg7
I35
sa(dp51
g3
I0
sg4
VShannon Mariotti
p52
sg6
I122
sg7
I137
sa(dp53
g3
I0
sg4
VTea Party
p54
sg6
I247
sg7
I255
sa(dp55
g3
I1
sg4
VSouthwestern University
p56
sg6
I341
sg7
I363
sa(dp57
g3
I0
sg4
VGeorgetown Tex.
p58
sg6
I401
sg7
I415
sasI3
(lp59
sI4
(lp60
sI5
(lp61
sI6
(lp62
s.