(dp0
I1
(lp1
(dp2
S'label'
p3
I0
sS'string'
p4
VReed
p5
sS'start_index'
p6
I3
sS'end_index'
p7
I6
sa(dp8
g3
I0
sg4
VHumanities
p9
sg6
I90
sg7
I99
sa(dp10
g3
I0
sg4
VGreek
p11
sg6
I141
sg7
I145
sa(dp12
g3
I0
sg4
VMediterranean
p13
sg6
I151
sg7
I163
sa(dp14
g3
I0
sg4
VProf.
p15
sg6
I250
sg7
I254
sa(dp16
g3
I0
sg4
VElizabeth
p17
sg6
I256
sg7
I264
sa(dp18
g3
I0
sg4
VDrumm
p19
sg6
I266
sg7
I270
sa(dp20
g3
I0
sg4
VOthers
p21
sg6
I337
sg7
I342
sa(dp22
g3
I0
sg4
VDon
p23
sg6
I386
sg7
I388
sa(dp24
g3
I0
sg4
VGeorge
p25
sg6
I421
sg7
I426
sa(dp26
g3
I0
sg4
VMason
p27
sg6
I428
sg7
I432
sa(dp28
g3
I0
sg4
VTrump
p29
sg6
I455
sg7
I459
sa(dp30
g3
I0
sg4
VJeremy
p31
sg6
I486
sg7
I491
sa(dp32
g3
I0
sg4
VMayer
p33
sg6
I496
sg7
I500
sa(dp34
g3
I0
sg4
VMayer
p35
sg6
I605
sg7
I609
sa(dp36
g3
I0
sg4
VWashington
p37
sg6
I643
sg7
I652
sa(dp38
g3
I0
sg4
VPost
p39
sg6
I654
sg7
I657
sa(dp40
g3
I0
sg4
VTrump
p41
sg6
I665
sg7
I669
sa(dp42
g3
I0
sg4
VMayer
p43
sg6
I699
sg7
I703
sa(dp44
g3
I0
sg4
VScott
p45
sg6
I975
sg7
I979
sa(dp46
g3
I0
sg4
VMcLean
p47
sg6
I981
sg7
I986
sa(dp48
g3
I1
sg4
VSouthwestern
p49
sg6
I1013
sg7
I1024
sa(dp50
g3
I0
sg4
VMcFarland
p51
sg6
I1162
sg7
I1170
sa(dp52
g3
I0
sg4
VUSA
p53
sg6
I1172
sg7
I1174
sa(dp54
g3
I0
sg4
VDACA.
p55
sg6
I1417
sg7
I1421
sa(dp56
g3
I0
sg4
VHigher
p57
sg6
I1842
sg7
I1847
sasI2
(lp58
(dp59
g3
I1
sg4
VReed College
p60
sg6
I3
sg7
I14
sa(dp61
g3
I0
sg4
VElizabeth Drumm
p62
sg6
I256
sg7
I270
sa(dp63
g3
I0
sg4
VGeorge Mason
p64
sg6
I421
sg7
I432
sa(dp65
g3
I0
sg4
VMason University
p66
sg6
I428
sg7
I443
sa(dp67
g3
I0
sg4
VJeremy D.
p68
sg6
I486
sg7
I494
sa(dp69
g3
I0
sg4
VD. Mayer
p70
sg6
I493
sg7
I500
sa(dp71
g3
I0
sg4
VWashington Post
p72
sg6
I643
sg7
I657
sa(dp73
g3
I0
sg4
VScott McLean
p74
sg6
I975
sg7
I986
sa(dp75
g3
I0
sg4
VMcFarland USA
p76
sg6
I1162
sg7
I1174
sasI3
(lp77
(dp78
g3
I0
sg4
VGreek and Mediterranean
p79
sg6
I141
sg7
I163
sa(dp80
g3
I1
sg4
VGeorge Mason University
p81
sg6
I421
sg7
I443
sa(dp82
g3
I0
sg4
VJeremy D. Mayer
p83
sg6
I486
sg7
I500
sasI4
(lp84
sI5
(lp85
sI6
(lp86
s.