(dp0
I1
(lp1
(dp2
S'label'
p3
I0
sS'string'
p4
VReed
p5
sS'start_index'
p6
I12
sS'end_index'
p7
I15
sa(dp8
g3
I0
sg4
VHumanities
p9
sg6
I33
sg7
I42
sa(dp10
g3
I0
sg4
VVideo
p11
sg6
I114
sg7
I118
sa(dp12
g3
I0
sg4
VThinkery_at_Reed
p13
sg6
I123
sg7
I138
sasI2
(lp14
(dp15
g3
I1
sg4
VReed College
p16
sg6
I12
sg7
I23
sasI3
(lp17
sI4
(lp18
sI5
(lp19
sI6
(lp20
s.