(dp0
I1
(lp1
(dp2
S'label'
p3
I0
sS'string'
p4
VDANIEL
p5
sS'start_index'
p6
I519
sS'end_index'
p7
I524
sa(dp8
g3
I0
sg4
VCHAMBLISSCLINTON
p9
sg6
I529
sg7
I544
sa(dp10
g3
I0
sg4
VY.The
p11
sg6
I549
sg7
I553
sa(dp12
g3
I0
sg4
VHamilton
p13
sg6
I593
sg7
I600
sa(dp14
g3
I0
sg4
VCollege.
p15
sg6
I602
sg7
I609
sa(dp16
g3
I0
sg4
VEditor
p17
sg6
I618
sg7
I623
sa(dp18
g3
I0
sg4
VPurdue
p19
sg6
I668
sg7
I673
sa(dp20
g3
I0
sg4
VUniversity.
p21
sg6
I675
sg7
I685
sa(dp22
g3
I0
sg4
VMARY
p23
sg6
I1103
sg7
I1106
sa(dp24
g3
I0
sg4
VCAPRON
p25
sg6
I1108
sg7
I1113
sa(dp26
g3
I0
sg4
VTITUSVILLE
p27
sg6
I1115
sg7
I1124
sa(dp28
g3
I0
sg4
VJ.To
p29
sg6
I1129
sg7
I1132
sa(dp30
g3
I0
sg4
VEditor
p31
sg6
I1138
sg7
I1143
sa(dp32
g3
I0
sg4
VHaving
p33
sg6
I1145
sg7
I1150
sa(dp34
g3
I0
sg4
VFaceTime
p35
sg6
I1379
sg7
I1386
sa(dp36
g3
I0
sg4
VWROE
p37
sg6
I1713
sg7
I1716
sa(dp38
g3
I0
sg4
VCLARK
p39
sg6
I1721
sg7
I1725
sa(dp40
g3
I0
sg4
VDENVER
p41
sg6
I1727
sg7
I1732
sa(dp42
g3
I0
sg4
VLawrence
p43
sg6
I1770
sg7
I1777
sa(dp44
g3
I0
sg4
VNassar
p45
sg6
I1782
sg7
I1787
sa(dp46
g3
I0
sg4
VMichigan
p47
sg6
I1833
sg7
I1840
sa(dp48
g3
I0
sg4
VState
p49
sg6
I1842
sg7
I1846
sa(dp50
g3
I0
sg4
VOverseeing
p51
sg6
I1906
sg7
I1915
sa(dp52
g3
I0
sg4
VPatrick
p53
sg6
I1929
sg7
I1935
sa(dp54
g3
I0
sg4
VFitzgerald
p55
sg6
I1940
sg7
I1949
sa(dp56
g3
I0
sg4
VEliot
p57
sg6
I2102
sg7
I2106
sa(dp58
g3
I0
sg4
VNess.
p59
sg6
I2108
sg7
I2112
sa(dp60
g3
I0
sg4
VLast
p61
sg6
I2114
sg7
I2117
sa(dp62
g3
I0
sg4
VFitzgerald
p63
sg6
I2129
sg7
I2138
sa(dp64
g3
I0
sg4
VNassar
p65
sg6
I2196
sg7
I2201
sa(dp66
g3
I0
sg4
VNassar
p67
sg6
I2370
sg7
I2375
sa(dp68
g3
I0
sg4
VMSU
p69
sg6
I2458
sg7
I2460
sa(dp70
g3
I0
sg4
VNassar
p71
sg6
I2472
sg7
I2477
sa(dp72
g3
I0
sg4
VMichigan
p73
sg6
I2566
sg7
I2573
sa(dp74
g3
I0
sg4
VState
p75
sg6
I2575
sg7
I2579
sa(dp76
g3
I0
sg4
VNassar
p77
sg6
I2615
sg7
I2620
sa(dp78
g3
I0
sg4
VNassar
p79
sg6
I2731
sg7
I2736
sa(dp80
g3
I0
sg4
VTitle
p81
sg6
I2782
sg7
I2786
sa(dp82
g3
I0
sg4
VNassar
p83
sg6
I3013
sg7
I3018
sasI2
(lp84
(dp85
g3
I0
sg4
VDANIEL F.
p86
sg6
I519
sg7
I527
sa(dp87
g3
I0
sg4
VF. CHAMBLISSCLINTON
p88
sg6
I526
sg7
I544
sa(dp89
g3
I0
sg4
VCHAMBLISSCLINTON N.
p90
sg6
I529
sg7
I547
sa(dp91
g3
I0
sg4
VN. Y.The
p92
sg6
I546
sg7
I553
sa(dp93
g3
I1
sg4
VHamilton College.
p94
sg6
I593
sg7
I609
sa(dp95
g3
I1
sg4
VPurdue University.
p96
sg6
I668
sg7
I685
sa(dp97
g3
I0
sg4
VMARY CAPRON
p98
sg6
I1103
sg7
I1113
sa(dp99
g3
I0
sg4
VCAPRON TITUSVILLE
p100
sg6
I1108
sg7
I1124
sa(dp101
g3
I0
sg4
VTITUSVILLE N.
p102
sg6
I1115
sg7
I1127
sa(dp103
g3
I0
sg4
VN. J.To
p104
sg6
I1126
sg7
I1132
sa(dp105
g3
I0
sg4
VEditor Having
p106
sg6
I1138
sg7
I1150
sa(dp107
g3
I0
sg4
VWROE A.
p108
sg6
I1713
sg7
I1719
sa(dp109
g3
I0
sg4
VA. CLARK
p110
sg6
I1718
sg7
I1725
sa(dp111
g3
I0
sg4
VCLARK DENVER
p112
sg6
I1721
sg7
I1732
sa(dp113
g3
I0
sg4
VLawrence G.
p114
sg6
I1770
sg7
I1780
sa(dp115
g3
I0
sg4
VG. Nassar
p116
sg6
I1779
sg7
I1787
sa(dp117
g3
I0
sg4
VMichigan State
p118
sg6
I1833
sg7
I1846
sa(dp119
g3
I0
sg4
VState University
p120
sg6
I1842
sg7
I1857
sa(dp121
g3
I0
sg4
VPatrick J.
p122
sg6
I1929
sg7
I1938
sa(dp123
g3
I0
sg4
VJ. Fitzgerald
p124
sg6
I1937
sg7
I1949
sa(dp125
g3
I0
sg4
VEliot Ness.
p126
sg6
I2102
sg7
I2112
sa(dp127
g3
I1
sg4
VMichigan State
p128
sg6
I2566
sg7
I2579
sa(dp129
g3
I0
sg4
VTitle IX
p130
sg6
I2782
sg7
I2789
sasI3
(lp131
(dp132
g3
I0
sg4
VDANIEL F. CHAMBLISSCLINTON
p133
sg6
I519
sg7
I544
sa(dp134
g3
I0
sg4
VF. CHAMBLISSCLINTON N.
p135
sg6
I526
sg7
I547
sa(dp136
g3
I0
sg4
VCHAMBLISSCLINTON N. Y.The
p137
sg6
I529
sg7
I553
sa(dp138
g3
I0
sg4
VMARY CAPRON TITUSVILLE
p139
sg6
I1103
sg7
I1124
sa(dp140
g3
I0
sg4
VCAPRON TITUSVILLE N.
p141
sg6
I1108
sg7
I1127
sa(dp142
g3
I0
sg4
VTITUSVILLE N. J.To
p143
sg6
I1115
sg7
I1132
sa(dp144
g3
I0
sg4
VWROE A. CLARK
p145
sg6
I1713
sg7
I1725
sa(dp146
g3
I0
sg4
VA. CLARK DENVER
p147
sg6
I1718
sg7
I1732
sa(dp148
g3
I0
sg4
VLawrence G. Nassar
p149
sg6
I1770
sg7
I1787
sa(dp150
g3
I1
sg4
VMichigan State University
p151
sg6
I1833
sg7
I1857
sa(dp152
g3
I0
sg4
VPatrick J. Fitzgerald
p153
sg6
I1929
sg7
I1949
sasI4
(lp154
(dp155
g3
I0
sg4
VDANIEL F. CHAMBLISSCLINTON N.
p156
sg6
I519
sg7
I547
sa(dp157
g3
I0
sg4
VF. CHAMBLISSCLINTON N. Y.The
p158
sg6
I526
sg7
I553
sa(dp159
g3
I0
sg4
VMARY CAPRON TITUSVILLE N.
p160
sg6
I1103
sg7
I1127
sa(dp161
g3
I0
sg4
VCAPRON TITUSVILLE N. J.To
p162
sg6
I1108
sg7
I1132
sa(dp163
g3
I0
sg4
VWROE A. CLARK DENVER
p164
sg6
I1713
sg7
I1732
sasI5
(lp165
(dp166
g3
I0
sg4
VDANIEL F. CHAMBLISSCLINTON N. Y.The
p167
sg6
I519
sg7
I553
sa(dp168
g3
I0
sg4
VMARY CAPRON TITUSVILLE N. J.To
p169
sg6
I1103
sg7
I1132
sasI6
(lp170
s.