(dp0
I1
(lp1
(dp2
S'label'
p3
I1
sS'string'
p4
VUCLA
p5
sS'start_index'
p6
I85
sS'end_index'
p7
I88
sa(dp8
g3
I0
sg4
VPew
p9
sg6
I171
sg7
I173
sa(dp10
g3
I0
sg4
VResearch
p11
sg6
I175
sg7
I182
sa(dp12
g3
I0
sg4
VCenter
p13
sg6
I184
sg7
I189
sa(dp14
g3
I0
sg4
VDemocrats
p15
sg6
I297
sg7
I305
sa(dp16
g3
I0
sg4
VRepublicans
p17
sg6
I336
sg7
I346
sa(dp18
g3
I0
sg4
VNorthern
p19
sg6
I540
sg7
I547
sa(dp20
g3
I0
sg4
VArizona
p21
sg6
I549
sg7
I555
sa(dp22
g3
I0
sg4
VFacebook
p23
sg6
I768
sg7
I775
sa(dp24
g3
I0
sg4
VTwitter.
p25
sg6
I781
sg7
I788
sa(dp26
g3
I0
sg4
VFox
p27
sg6
I864
sg7
I866
sa(dp28
g3
I0
sg4
VNews
p29
sg6
I868
sg7
I871
sa(dp30
g3
I0
sg4
VLuis
p31
sg6
I878
sg7
I881
sa(dp32
g3
I0
sg4
VFernandez.
p33
sg6
I883
sg7
I892
sa(dp34
g3
I0
sg4
VNorthern
p35
sg6
I913
sg7
I920
sa(dp36
g3
I0
sg4
VArizona
p37
sg6
I922
sg7
I928
sa(dp38
g3
I0
sg4
VPolitical
p39
sg6
I930
sg7
I938
sa(dp40
g3
I0
sg4
VCrime
p41
sg6
I940
sg7
I944
sa(dp42
g3
I0
sg4
VRussia
p43
sg6
I956
sg7
I961
sa(dp44
g3
I0
sg4
VFernandez
p45
sg6
I1135
sg7
I1143
sasI2
(lp46
(dp47
g3
I0
sg4
VPew Research
p48
sg6
I171
sg7
I182
sa(dp49
g3
I0
sg4
VResearch Center
p50
sg6
I175
sg7
I189
sa(dp51
g3
I0
sg4
VNorthern Arizona
p52
sg6
I540
sg7
I555
sa(dp53
g3
I0
sg4
VArizona University
p54
sg6
I549
sg7
I566
sa(dp55
g3
I0
sg4
VFox News
p56
sg6
I864
sg7
I871
sa(dp57
g3
I0
sg4
VLuis Fernandez.
p58
sg6
I878
sg7
I892
sa(dp59
g3
I1
sg4
VNorthern Arizona
p60
sg6
I913
sg7
I928
sa(dp61
g3
I0
sg4
VArizona Political
p62
sg6
I922
sg7
I938
sa(dp63
g3
I0
sg4
VPolitical Crime
p64
sg6
I930
sg7
I944
sa(dp65
g3
I0
sg4
VU. S.
p66
sg6
I997
sg7
I1001
sasI3
(lp67
(dp68
g3
I0
sg4
VPew Research Center
p69
sg6
I171
sg7
I189
sa(dp70
g3
I1
sg4
VNorthern Arizona University
p71
sg6
I540
sg7
I566
sa(dp72
g3
I0
sg4
VFacebook and Twitter.
p73
sg6
I768
sg7
I788
sa(dp74
g3
I0
sg4
VNorthern Arizona Political
p75
sg6
I913
sg7
I938
sa(dp76
g3
I0
sg4
VArizona Political Crime
p77
sg6
I922
sg7
I944
sasI4
(lp78
(dp79
g3
I0
sg4
VNorthern Arizona Political Crime
p80
sg6
I913
sg7
I944
sasI5
(lp81
sI6
(lp82
s.