(dp0
I1
(lp1
(dp2
S'label'
p3
I0
sS'string'
p4
VEnglish
p5
sS'start_index'
p6
I3
sS'end_index'
p7
I9
sa(dp8
g3
I0
sg4
VNorthern
p9
sg6
I24
sg7
I31
sa(dp10
g3
I0
sg4
VArizona
p11
sg6
I33
sg7
I39
sa(dp12
g3
I0
sg4
VAnne
p13
sg6
I41
sg7
I44
sa(dp14
g3
I0
sg4
VScott
p15
sg6
I46
sg7
I50
sa(dp16
g3
I0
sg4
VFox
p17
sg6
I66
sg7
I68
sa(dp18
g3
I0
sg4
VNews.
p19
sg6
I70
sg7
I74
sa(dp20
g3
I0
sg4
VCampus
p21
sg6
I294
sg7
I299
sa(dp22
g3
I0
sg4
VReform.
p23
sg6
I301
sg7
I307
sa(dp24
g3
I0
sg4
VScott
p25
sg6
I485
sg7
I489
sa(dp26
g3
I0
sg4
VLori
p27
sg6
I681
sg7
I684
sa(dp28
g3
I0
sg4
VPoloni
p29
sg6
I686
sg7
I691
sa(dp30
g3
I0
sg4
VStaudinger
p31
sg6
I693
sg7
I702
sa(dp32
g3
I0
sg4
VPeople
p33
sg6
I824
sg7
I829
sa(dp34
g3
I0
sg4
VAnita
p35
sg6
I1002
sg7
I1006
sa(dp36
g3
I0
sg4
VDavis
p37
sg6
I1008
sg7
I1012
sa(dp38
g3
I0
sg4
VAssociated
p39
sg6
I1087
sg7
I1096
sa(dp40
g3
I0
sg4
VSouth
p41
sg6
I1114
sg7
I1118
sa(dp42
g3
I0
sg4
VTools
p43
sg6
I1280
sg7
I1284
sa(dp44
g3
I0
sg4
VLet
p45
sg6
I1750
sg7
I1752
sa(dp46
g3
I0
sg4
VDigging
p47
sg6
I2064
sg7
I2070
sa(dp48
g3
I0
sg4
VProfessors
p49
sg6
I2182
sg7
I2191
sa(dp50
g3
I0
sg4
VTheresa
p51
sg6
I2300
sg7
I2306
sa(dp52
g3
I0
sg4
VBraunschneider
p53
sg6
I2308
sg7
I2321
sa(dp54
g3
I0
sg4
VMichigan
p55
sg6
I2363
sg7
I2370
sa(dp56
g3
I0
sg4
VCenter
p57
sg6
I2374
sg7
I2379
sa(dp58
g3
I0
sg4
VResearch
p59
sg6
I2385
sg7
I2392
sa(dp60
g3
I0
sg4
VLearning
p61
sg6
I2397
sg7
I2404
sa(dp62
g3
I0
sg4
VTeaching.
p63
sg6
I2410
sg7
I2418
sa(dp64
g3
I0
sg4
VPopular
p65
sg6
I2760
sg7
I2766
sa(dp66
g3
I0
sg4
VMuslim
p67
sg6
I2799
sg7
I2804
sasI2
(lp68
(dp69
g3
I1
sg4
VNorthern Arizona
p70
sg6
I24
sg7
I39
sa(dp71
g3
I0
sg4
VArizona Anne
p72
sg6
I33
sg7
I44
sa(dp73
g3
I0
sg4
VAnne Scott
p74
sg6
I41
sg7
I50
sa(dp75
g3
I0
sg4
VFox News.
p76
sg6
I66
sg7
I74
sa(dp77
g3
I0
sg4
VCampus Reform.
p78
sg6
I294
sg7
I307
sa(dp79
g3
I0
sg4
VLori Poloni
p80
sg6
I681
sg7
I691
sa(dp81
g3
I0
sg4
VPoloni Staudinger
p82
sg6
I686
sg7
I702
sa(dp83
g3
I0
sg4
VAnita Davis
p84
sg6
I1002
sg7
I1012
sa(dp85
g3
I0
sg4
VTheresa Braunschneider
p86
sg6
I2300
sg7
I2321
sasI3
(lp87
(dp88
g3
I0
sg4
VNorthern Arizona Anne
p89
sg6
I24
sg7
I44
sa(dp90
g3
I0
sg4
VArizona Anne Scott
p91
sg6
I33
sg7
I50
sa(dp92
g3
I0
sg4
VLori Poloni Staudinger
p93
sg6
I681
sg7
I702
sa(dp94
g3
I1
sg4
VUniversity of Michigan
p95
sg6
I2349
sg7
I2370
sa(dp96
g3
I0
sg4
VLearning and Teaching.
p97
sg6
I2397
sg7
I2418
sasI4
(lp98
(dp99
g3
I0
sg4
VNorthern Arizona Anne Scott
p100
sg6
I24
sg7
I50
sasI5
(lp101
sI6
(lp102
s.