(dp0
I1
(lp1
(dp2
S'label'
p3
I0
sS'string'
p4
VConflict
p5
sS'start_index'
p6
I36
sS'end_index'
p7
I43
sa(dp8
g3
I0
sg4
VClassroom
p9
sg6
I52
sg7
I60
sa(dp10
g3
I0
sg4
VSkidmore
p11
sg6
I87
sg7
I94
sa(dp12
g3
I0
sg4
VCollege.
p13
sg6
I96
sg7
I103
sasI2
(lp14
(dp15
g3
I1
sg4
VSkidmore College.
p16
sg6
I87
sg7
I103
sasI3
(lp17
sI4
(lp18
sI5
(lp19
sI6
(lp20
s.