(dp0
I1
(lp1
(dp2
S'label'
p3
I0
sS'string'
p4
VConflict
p5
sS'start_index'
p6
I3
sS'end_index'
p7
I10
sa(dp8
g3
I0
sg4
VClassroom
p9
sg6
I19
sg7
I27
sa(dp10
g3
I0
sg4
VSkidmore
p11
sg6
I57
sg7
I64
sa(dp12
g3
I0
sg4
VSara
p13
sg6
I326
sg7
I329
sa(dp14
g3
I0
sg4
VArmstrong
p15
sg6
I331
sg7
I339
sa(dp16
g3
I0
sg4
VAnother
p17
sg6
I475
sg7
I481
sasI2
(lp18
(dp19
g3
I1
sg4
VSkidmore College
p20
sg6
I57
sg7
I72
sa(dp21
g3
I0
sg4
VSara Armstrong
p22
sg6
I326
sg7
I339
sasI3
(lp23
sI4
(lp24
sI5
(lp25
sI6
(lp26
s.