(dp0
I1
(lp1
(dp2
S'label'
p3
I0
sS'string'
p4
VApproaches
p5
sS'start_index'
p6
I192
sS'end_index'
p7
I201
sa(dp8
g3
I0
sg4
VGetting
p9
sg6
I413
sg7
I419
sa(dp10
g3
I0
sg4
VKristie
p11
sg6
I445
sg7
I451
sa(dp12
g3
I0
sg4
VFord
p13
sg6
I456
sg7
I459
sa(dp14
g3
I0
sg4
VCenter
p15
sg6
I477
sg7
I482
sa(dp16
g3
I0
sg4
VLeadership
p17
sg6
I488
sg7
I497
sa(dp18
g3
I0
sg4
VTeaching
p19
sg6
I499
sg7
I506
sa(dp20
g3
I0
sg4
VLearning
p21
sg6
I512
sg7
I519
sa(dp22
g3
I0
sg4
VSkidmore
p23
sg6
I524
sg7
I531
sa(dp24
g3
I1
sg4
VMichigan
p25
sg6
I545
sg7
I552
sa(dp26
g3
I0
sg4
VTeaching
p27
sg6
I600
sg7
I607
sa(dp28
g3
I0
sg4
VTime
p29
sg6
I614
sg7
I617
sa(dp30
g3
I0
sg4
VTurmoil.
p31
sg6
I622
sg7
I629
sa(dp32
g3
I0
sg4
VClassmates
p33
sg6
I800
sg7
I809
sa(dp34
g3
I0
sg4
VMariotti
p35
sg6
I818
sg7
I825
sa(dp36
g3
I0
sg4
VConner
p37
sg6
I1018
sg7
I1023
sa(dp38
g3
I0
sg4
VJoyce
p39
sg6
I1025
sg7
I1029
sa(dp40
g3
I0
sg4
VRepublican
p41
sg6
I1042
sg7
I1051
sa(dp42
g3
I0
sg4
VTrump
p43
sg6
I1157
sg7
I1161
sa(dp44
g3
I0
sg4
VHitler.
p45
sg6
I1166
sg7
I1172
sa(dp46
g3
I0
sg4
VSydney
p47
sg6
I1271
sg7
I1276
sa(dp48
g3
I0
sg4
VCardenas
p49
sg6
I1278
sg7
I1285
sa(dp50
g3
I0
sg4
VTrump
p51
sg6
I1289
sg7
I1293
sa(dp52
g3
I0
sg4
VCamille
p53
sg6
I1622
sg7
I1628
sa(dp54
g3
I0
sg4
VMartin
p55
sg6
I1630
sg7
I1635
sa(dp56
g3
I0
sg4
VMikaela
p57
sg6
I1641
sg7
I1647
sa(dp58
g3
I0
sg4
VManion
p59
sg6
I1649
sg7
I1654
sa(dp60
g3
I0
sg4
VPeople
p61
sg6
I1746
sg7
I1751
sa(dp62
g3
I0
sg4
VChristianity
p63
sg6
I1773
sg7
I1784
sa(dp64
g3
I0
sg4
VMartin
p65
sg6
I1849
sg7
I1854
sa(dp66
g3
I0
sg4
VManion
p67
sg6
I1882
sg7
I1887
sa(dp68
g3
I0
sg4
VChristianity
p69
sg6
I2011
sg7
I2022
sa(dp70
g3
I0
sg4
VLater
p71
sg6
I2070
sg7
I2074
sa(dp72
g3
I0
sg4
VMariotti
p73
sg6
I2245
sg7
I2252
sasI2
(lp74
(dp75
g3
I0
sg4
VKristie A.
p76
sg6
I445
sg7
I454
sa(dp77
g3
I0
sg4
VA. Ford
p78
sg6
I453
sg7
I459
sa(dp79
g3
I0
sg4
VLeadership Teaching
p80
sg6
I488
sg7
I506
sa(dp81
g3
I0
sg4
VConner Joyce
p82
sg6
I1018
sg7
I1029
sa(dp83
g3
I0
sg4
VSydney Cardenas
p84
sg6
I1271
sg7
I1285
sa(dp85
g3
I0
sg4
VCamille Martin
p86
sg6
I1622
sg7
I1635
sa(dp87
g3
I0
sg4
VMikaela Manion
p88
sg6
I1641
sg7
I1654
sasI3
(lp89
(dp90
g3
I0
sg4
VKristie A. Ford
p91
sg6
I445
sg7
I459
sa(dp92
g3
I0
sg4
VTeaching and Learning
p93
sg6
I499
sg7
I519
sa(dp94
g3
I0
sg4
VTime of Turmoil.
p95
sg6
I614
sg7
I629
sa(dp96
g3
I0
sg4
VMartin and Mikaela
p97
sg6
I1630
sg7
I1647
sasI4
(lp98
(dp99
g3
I0
sg4
VLeadership Teaching and Learning
p100
sg6
I488
sg7
I519
sa(dp101
g3
I0
sg4
VCamille Martin and Mikaela
p102
sg6
I1622
sg7
I1647
sa(dp103
g3
I0
sg4
VMartin and Mikaela Manion
p104
sg6
I1630
sg7
I1654
sasI5
(lp105
(dp106
g3
I0
sg4
VCamille Martin and Mikaela Manion
p107
sg6
I1622
sg7
I1654
sasI6
(lp108
s.