(dp0
I1
(lp1
(dp2
S'label'
p3
I0
sS'string'
p4
VEnter
p5
sS'start_index'
p6
I0
sS'end_index'
p7
I4
sa(dp8
g3
I0
sg4
VPapers
p9
sg6
I19
sg7
I24
sa(dp10
g3
I1
sg4
VStanford
p11
sg6
I825
sg7
I832
sa(dp12
g3
I0
sg4
VClinical
p13
sg6
I943
sg7
I950
sa(dp14
g3
I0
sg4
VTrials.
p15
sg6
I952
sg7
I958
sa(dp16
g3
I0
sg4
VClinical
p17
sg6
I981
sg7
I988
sa(dp18
g3
I0
sg4
VTrials
p19
sg6
I990
sg7
I995
sa(dp20
g3
I0
sg4
V&amp
p21
sg6
I997
sg7
I1000
sa(dp22
g3
I0
sg4
VPatenting.
p23
sg6
I1002
sg7
I1011
sa(dp24
g3
I0
sg4
VDoes
p25
sg6
I2158
sg7
I2161
sasI2
(lp26
(dp27
g3
I0
sg4
VClinical Trials.
p28
sg6
I943
sg7
I958
sa(dp29
g3
I0
sg4
VClinical Trials
p30
sg6
I981
sg7
I995
sa(dp31
g3
I0
sg4
VTrials &amp
p32
sg6
I990
sg7
I1000
sa(dp33
g3
I0
sg4
V&amp Patenting.
p34
sg6
I997
sg7
I1011
sasI3
(lp35
(dp36
g3
I0
sg4
VClinical Trials &amp
p37
sg6
I981
sg7
I1000
sa(dp38
g3
I0
sg4
VTrials &amp Patenting.
p39
sg6
I990
sg7
I1011
sasI4
(lp40
(dp41
g3
I0
sg4
VClinical Trials &amp Patenting.
p42
sg6
I981
sg7
I1011
sasI5
(lp43
sI6
(lp44
s.