(dp0
I1
(lp1
(dp2
S'label'
p3
I0
sS'string'
p4
VDerek
p5
sS'start_index'
p6
I165
sS'end_index'
p7
I169
sa(dp8
g3
I0
sg4
VPyne
p9
sg6
I171
sg7
I174
sa(dp10
g3
I0
sg4
VThompson
p11
sg6
I202
sg7
I209
sa(dp12
g3
I0
sg4
VRivers
p13
sg6
I211
sg7
I216
sa(dp14
g3
I0
sg4
VBritish
p15
sg6
I232
sg7
I238
sa(dp16
g3
I0
sg4
VColumbia
p17
sg6
I240
sg7
I247
sa(dp18
g3
I0
sg4
VOttawa
p19
sg6
I283
sg7
I288
sa(dp20
g3
I0
sg4
VCitizen
p21
sg6
I290
sg7
I296
sa(dp22
g3
I0
sg4
VCanadian
p23
sg6
I300
sg7
I307
sa(dp24
g3
I0
sg4
VPredatory
p25
sg6
I447
sg7
I455
sa(dp26
g3
I0
sg4
VNature.
p27
sg6
I543
sg7
I549
sa(dp28
g3
I0
sg4
VJournal
p29
sg6
I685
sg7
I691
sa(dp30
g3
I0
sg4
VEconomics
p31
sg6
I696
sg7
I704
sa(dp32
g3
I0
sg4
VFinance
p33
sg6
I710
sg7
I716
sa(dp34
g3
I0
sg4
VSpringer
p35
sg6
I731
sg7
I738
sa(dp36
g3
I0
sg4
VJournal
p37
sg6
I757
sg7
I763
sa(dp38
g3
I0
sg4
VFinance
p39
sg6
I768
sg7
I774
sa(dp40
g3
I0
sg4
VEconomics.
p41
sg6
I780
sg7
I789
sa(dp42
g3
I0
sg4
VJournal
p43
sg6
I804
sg7
I810
sa(dp44
g3
I0
sg4
VEngineering
p45
sg6
I815
sg7
I825
sa(dp46
g3
I0
sg4
VTechnology
p47
sg6
I827
sg7
I836
sa(dp48
g3
I0
sg4
VAmerican
p49
sg6
I853
sg7
I860
sa(dp50
g3
I0
sg4
VSociety
p51
sg6
I862
sg7
I868
sa(dp52
g3
I0
sg4
VEngineering
p53
sg6
I874
sg7
I884
sa(dp54
g3
I0
sg4
VEducation
p55
sg6
I886
sg7
I894
sa(dp56
g3
I0
sg4
VGSTF
p57
sg6
I923
sg7
I926
sa(dp58
g3
I0
sg4
VJournal
p59
sg6
I928
sg7
I934
sa(dp60
g3
I0
sg4
VEngineering
p61
sg6
I939
sg7
I949
sa(dp62
g3
I0
sg4
VTechnology.
p63
sg6
I951
sg7
I961
sa(dp64
g3
I0
sg4
VPredatory
p65
sg6
I963
sg7
I971
sa(dp66
g3
I0
sg4
VGoogle
p67
sg6
I1224
sg7
I1229
sa(dp68
g3
I0
sg4
VScholar.
p69
sg6
I1231
sg7
I1238
sa(dp70
g3
I0
sg4
VOften
p71
sg6
I1240
sg7
I1244
sa(dp72
g3
I0
sg4
VGoogle
p73
sg6
I1266
sg7
I1271
sa(dp74
g3
I0
sg4
VScholar
p75
sg6
I1273
sg7
I1279
sa(dp76
g3
I0
sg4
VNew
p77
sg6
I1621
sg7
I1623
sa(dp78
g3
I0
sg4
VYork
p79
sg6
I1625
sg7
I1628
sa(dp80
g3
I0
sg4
VWorld
p81
sg6
I1660
sg7
I1664
sa(dp82
g3
I0
sg4
VAcademy
p83
sg6
I1666
sg7
I1672
sa(dp84
g3
I0
sg4
VScience
p85
sg6
I1677
sg7
I1683
sa(dp86
g3
I0
sg4
VEngineering
p87
sg6
I1685
sg7
I1695
sa(dp88
g3
I0
sg4
VTechnology
p89
sg6
I1701
sg7
I1710
sa(dp90
g3
I0
sg4
VPotemkin
p91
sg6
I1731
sg7
I1738
sasI2
(lp92
(dp93
g3
I0
sg4
VDerek Pyne
p94
sg6
I165
sg7
I174
sa(dp95
g3
I0
sg4
VThompson Rivers
p96
sg6
I202
sg7
I216
sa(dp97
g3
I0
sg4
VRivers University
p98
sg6
I211
sg7
I227
sa(dp99
g3
I0
sg4
VBritish Columbia
p100
sg6
I232
sg7
I247
sa(dp101
g3
I0
sg4
VOttawa Citizen
p102
sg6
I283
sg7
I296
sa(dp103
g3
I0
sg4
VEngineering Technology
p104
sg6
I815
sg7
I836
sa(dp105
g3
I0
sg4
VAmerican Society
p106
sg6
I853
sg7
I868
sa(dp107
g3
I0
sg4
VEngineering Education
p108
sg6
I874
sg7
I894
sa(dp109
g3
I0
sg4
VGSTF Journal
p110
sg6
I923
sg7
I934
sa(dp111
g3
I0
sg4
VEngineering Technology.
p112
sg6
I939
sg7
I961
sa(dp113
g3
I0
sg4
VGoogle Scholar.
p114
sg6
I1224
sg7
I1238
sa(dp115
g3
I0
sg4
VGoogle Scholar
p116
sg6
I1266
sg7
I1279
sa(dp117
g3
I0
sg4
VNew York
p118
sg6
I1621
sg7
I1628
sa(dp119
g3
I0
sg4
VWorld Academy
p120
sg6
I1660
sg7
I1672
sa(dp121
g3
I0
sg4
VScience Engineering
p122
sg6
I1677
sg7
I1695
sasI3
(lp123
(dp124
g3
I1
sg4
VThompson Rivers University
p125
sg6
I202
sg7
I227
sa(dp126
g3
I0
sg4
VJournal of Economics
p127
sg6
I685
sg7
I704
sa(dp128
g3
I0
sg4
VEconomics and Finance
p129
sg6
I696
sg7
I716
sa(dp130
g3
I0
sg4
VJournal of Finance
p131
sg6
I757
sg7
I774
sa(dp132
g3
I0
sg4
VFinance and Economics.
p133
sg6
I768
sg7
I789
sa(dp134
g3
I0
sg4
VJournal of Engineering
p135
sg6
I804
sg7
I825
sa(dp136
g3
I0
sg4
VJournal of Engineering
p137
sg6
I928
sg7
I949
sa(dp138
g3
I0
sg4
VAcademy of Science
p139
sg6
I1666
sg7
I1683
sa(dp140
g3
I0
sg4
VEngineering and Technology
p141
sg6
I1685
sg7
I1710
sasI4
(lp142
(dp143
g3
I0
sg4
VJournal of Engineering Technology
p144
sg6
I804
sg7
I836
sa(dp145
g3
I0
sg4
VGSTF Journal of Engineering
p146
sg6
I923
sg7
I949
sa(dp147
g3
I0
sg4
VJournal of Engineering Technology.
p148
sg6
I928
sg7
I961
sa(dp149
g3
I0
sg4
VWorld Academy of Science
p150
sg6
I1660
sg7
I1683
sa(dp151
g3
I0
sg4
VAcademy of Science Engineering
p152
sg6
I1666
sg7
I1695
sa(dp153
g3
I0
sg4
VScience Engineering and Technology
p154
sg6
I1677
sg7
I1710
sasI5
(lp155
(dp156
g3
I0
sg4
VJournal of Economics and Finance
p157
sg6
I685
sg7
I716
sa(dp158
g3
I0
sg4
VJournal of Finance and Economics.
p159
sg6
I757
sg7
I789
sa(dp160
g3
I0
sg4
VGSTF Journal of Engineering Technology.
p161
sg6
I923
sg7
I961
sa(dp162
g3
I0
sg4
VWorld Academy of Science Engineering
p163
sg6
I1660
sg7
I1695
sasI6
(lp164
(dp165
g3
I0
sg4
VAcademy of Science Engineering and Technology
p166
sg6
I1666
sg7
I1710
sas.