(dp0
I1
(lp1
(dp2
S'label'
p3
I0
sS'string'
p4
VParticipating
p5
sS'start_index'
p6
I0
sS'end_index'
p7
I12
sa(dp8
g3
I0
sg4
VPyne
p9
sg6
I65
sg7
I68
sa(dp10
g3
I0
sg4
VBusiness
p11
sg6
I285
sg7
I292
sa(dp12
g3
I0
sg4
VEconomics
p13
sg6
I298
sg7
I306
sa(dp14
g3
I0
sg4
VAcademics
p15
sg6
I380
sg7
I388
sa(dp16
g3
I0
sg4
VPyne
p17
sg6
I478
sg7
I481
sa(dp18
g3
I0
sg4
VPyne
p19
sg6
I649
sg7
I652
sa(dp20
g3
I0
sg4
VTensions
p21
sg6
I804
sg7
I811
sa(dp22
g3
I0
sg4
VQueensborough
p23
sg6
I861
sg7
I873
sa(dp24
g3
I0
sg4
VCommunity
p25
sg6
I875
sg7
I883
sa(dp26
g3
I1
sg4
VCUNY
p27
sg6
I901
sg7
I904
sa(dp28
g3
I0
sg4
VCity
p29
sg6
I910
sg7
I913
sa(dp30
g3
I0
sg4
VNew
p31
sg6
I929
sg7
I931
sa(dp32
g3
I0
sg4
VYork.
p33
sg6
I933
sg7
I937
sasI2
(lp34
(dp35
g3
I0
sg4
VQueensborough Community
p36
sg6
I861
sg7
I883
sa(dp37
g3
I0
sg4
VCommunity College
p38
sg6
I875
sg7
I891
sa(dp39
g3
I0
sg4
VCity University
p40
sg6
I910
sg7
I924
sa(dp41
g3
I0
sg4
VNew York.
p42
sg6
I929
sg7
I937
sasI3
(lp43
(dp44
g3
I0
sg4
VSchool of Business
p45
sg6
I275
sg7
I292
sa(dp46
g3
I0
sg4
VBusiness and Economics
p47
sg6
I285
sg7
I306
sa(dp48
g3
I1
sg4
VQueensborough Community College
p49
sg6
I861
sg7
I891
sa(dp50
g3
I0
sg4
VUniversity of New
p51
sg6
I915
sg7
I931
sasI4
(lp52
(dp53
g3
I0
sg4
VCity University of New
p54
sg6
I910
sg7
I931
sa(dp55
g3
I0
sg4
VUniversity of New York.
p56
sg6
I915
sg7
I937
sasI5
(lp57
(dp58
g3
I0
sg4
VSchool of Business and Economics
p59
sg6
I275
sg7
I306
sa(dp60
g3
I1
sg4
VCity University of New York.
p61
sg6
I910
sg7
I937
sasI6
(lp62
s.