(dp0
I1
(lp1
(dp2
S'label'
p3
I0
sS'string'
p4
VLawrence
p5
sS'start_index'
p6
I61
sS'end_index'
p7
I68
sa(dp8
g3
I0
sg4
VDiPaolo
p9
sg6
I70
sg7
I76
sa(dp10
g3
I0
sg4
VNeumann
p11
sg6
I116
sg7
I122
sa(dp12
g3
I0
sg4
VAston
p13
sg6
I138
sg7
I142
sa(dp14
g3
I0
sg4
VPa.
p15
sg6
I144
sg7
I146
sa(dp16
g3
I0
sg4
VRecently
p17
sg6
I148
sg7
I155
sa(dp18
g3
I0
sg4
VAnna
p19
sg6
I205
sg7
I208
sa(dp20
g3
I0
sg4
VSzust.
p21
sg6
I213
sg7
I218
sa(dp22
g3
I0
sg4
VPolish
p23
sg6
I232
sg7
I237
sa(dp24
g3
I0
sg4
VSzust
p25
sg6
I260
sg7
I264
sa(dp26
g3
I0
sg4
VSzust
p27
sg6
I817
sg7
I821
sa(dp28
g3
I0
sg4
VKatarzyna
p29
sg6
I839
sg7
I847
sa(dp30
g3
I0
sg4
VPisanski
p31
sg6
I849
sg7
I856
sa(dp32
g3
I0
sg4
VSussex
p33
sg6
I894
sg7
I899
sa(dp34
g3
I0
sg4
VEngland
p35
sg6
I904
sg7
I910
sa(dp36
g3
I0
sg4
VPublications
p37
sg6
I1312
sg7
I1323
sa(dp38
g3
I0
sg4
VDewayne
p39
sg6
I1470
sg7
I1476
sa(dp40
g3
I0
sg4
VFox
p41
sg6
I1478
sg7
I1480
sa(dp42
g3
I0
sg4
VDelaware
p43
sg6
I1521
sg7
I1528
sa(dp44
g3
I0
sg4
VState
p45
sg6
I1530
sg7
I1534
sa(dp46
g3
I0
sg4
VFox
p47
sg6
I2047
sg7
I2049
sasI2
(lp48
(dp49
g3
I0
sg4
VLawrence DiPaolo
p50
sg6
I61
sg7
I76
sa(dp51
g3
I1
sg4
VNeumann University
p52
sg6
I116
sg7
I133
sa(dp53
g3
I0
sg4
VAston Pa.
p54
sg6
I138
sg7
I146
sa(dp55
g3
I0
sg4
VPa. Recently
p56
sg6
I144
sg7
I155
sa(dp57
g3
I0
sg4
VAnna O.
p58
sg6
I205
sg7
I211
sa(dp59
g3
I0
sg4
VO. Szust.
p60
sg6
I210
sg7
I218
sa(dp61
g3
I0
sg4
VKatarzyna Pisanski
p62
sg6
I839
sg7
I856
sa(dp63
g3
I0
sg4
VDewayne Fox
p64
sg6
I1470
sg7
I1480
sa(dp65
g3
I0
sg4
VDelaware State
p66
sg6
I1521
sg7
I1534
sa(dp67
g3
I0
sg4
VState University
p68
sg6
I1530
sg7
I1545
sasI3
(lp69
(dp70
g3
I0
sg4
VAston Pa. Recently
p71
sg6
I138
sg7
I155
sa(dp72
g3
I0
sg4
VAnna O. Szust.
p73
sg6
I205
sg7
I218
sa(dp74
g3
I1
sg4
VUniversity of Sussex
p75
sg6
I880
sg7
I899
sa(dp76
g3
I1
sg4
VDelaware State University
p77
sg6
I1521
sg7
I1545
sasI4
(lp78
sI5
(lp79
sI6
(lp80
s.