(dp0
I1
(lp1
(dp2
S'label'
p3
I0
sS'string'
p4
VT.E.
p5
sS'start_index'
p6
I449
sS'end_index'
p7
I452
sa(dp8
g3
I0
sg4
VT.E.
p9
sg6
I730
sg7
I733
sa(dp10
g3
I0
sg4
VTrump
p11
sg6
I749
sg7
I753
sa(dp12
g3
I0
sg4
VMike
p13
sg6
I976
sg7
I979
sa(dp14
g3
I0
sg4
VRose
p15
sg6
I981
sg7
I984
sa(dp16
g3
I0
sg4
VUCLA
p17
sg6
I1014
sg7
I1017
sa(dp18
g3
I0
sg4
VGraduate
p19
sg6
I1019
sg7
I1026
sa(dp20
g3
I0
sg4
VEducation
p21
sg6
I1038
sg7
I1046
sa(dp22
g3
I0
sg4
VMind
p23
sg6
I1070
sg7
I1073
sa(dp24
g3
I0
sg4
VWork
p25
sg6
I1078
sg7
I1081
sa(dp26
g3
I0
sg4
VValuing
p27
sg6
I1083
sg7
I1089
sa(dp28
g3
I0
sg4
VIntelligence
p29
sg6
I1095
sg7
I1106
sa(dp30
g3
I0
sg4
VAmerican
p31
sg6
I1115
sg7
I1122
sa(dp32
g3
I0
sg4
VWorker.
p33
sg6
I1124
sg7
I1130
sa(dp34
g3
I0
sg4
VRose
p35
sg6
I1240
sg7
I1243
sa(dp36
g3
I0
sg4
VTrump
p37
sg6
I1412
sg7
I1416
sa(dp38
g3
I0
sg4
VCongress
p39
sg6
I1585
sg7
I1592
sa(dp40
g3
I0
sg4
VHigher
p41
sg6
I1627
sg7
I1632
sa(dp42
g3
I0
sg4
VEducation
p43
sg6
I1634
sg7
I1642
sa(dp44
g3
I0
sg4
VAct
p45
sg6
I1644
sg7
I1646
sa(dp46
g3
I0
sg4
VAlready
p47
sg6
I1687
sg7
I1693
sa(dp48
g3
I0
sg4
VHouse
p49
sg6
I1705
sg7
I1709
sa(dp50
g3
I0
sg4
VCongress
p51
sg6
I1727
sg7
I1734
sasI2
(lp52
(dp53
g3
I0
sg4
VC. T.E.
p54
sg6
I446
sg7
I452
sa(dp55
g3
I0
sg4
VC. T.E.
p56
sg6
I727
sg7
I733
sa(dp57
g3
I0
sg4
VMike Rose
p58
sg6
I976
sg7
I984
sa(dp59
g3
I0
sg4
VUCLA Graduate
p60
sg6
I1014
sg7
I1026
sa(dp61
g3
I0
sg4
VGraduate School
p62
sg6
I1019
sg7
I1033
sa(dp63
g3
I0
sg4
VWork Valuing
p64
sg6
I1078
sg7
I1089
sa(dp65
g3
I0
sg4
VAmerican Worker.
p66
sg6
I1115
sg7
I1130
sa(dp67
g3
I0
sg4
VHigher Education
p68
sg6
I1627
sg7
I1642
sa(dp69
g3
I0
sg4
VEducation Act
p70
sg6
I1634
sg7
I1646
sasI3
(lp71
(dp72
g3
I0
sg4
VUCLA Graduate School
p73
sg6
I1014
sg7
I1033
sa(dp74
g3
I0
sg4
VSchool of Education
p75
sg6
I1028
sg7
I1046
sa(dp76
g3
I0
sg4
VHigher Education Act
p77
sg6
I1627
sg7
I1646
sasI4
(lp78
(dp79
g3
I0
sg4
VGraduate School of Education
p80
sg6
I1019
sg7
I1046
sasI5
(lp81
(dp82
g3
I1
sg4
VUCLA Graduate School of Education
p83
sg6
I1014
sg7
I1046
sasI6
(lp84
s.