(dp0
I1
(lp1
(dp2
S'label'
p3
I0
sS'string'
p4
VMichigan
p5
sS'start_index'
p6
I222
sS'end_index'
p7
I229
sa(dp8
g3
I0
sg4
VState
p9
sg6
I231
sg7
I235
sa(dp10
g3
I0
sg4
VFitzgerald
p11
sg6
I251
sg7
I260
sa(dp12
g3
I0
sg4
VNassar
p13
sg6
I279
sg7
I284
sa(dp14
g3
I0
sg4
VMichigan
p15
sg6
I353
sg7
I360
sa(dp16
g3
I0
sg4
VState
p17
sg6
I362
sg7
I366
sa(dp18
g3
I0
sg4
VTom
p19
sg6
I443
sg7
I445
sa(dp20
g3
I0
sg4
VLeonard
p21
sg6
I447
sg7
I453
sa(dp22
g3
I0
sg4
VRepublican
p23
sg6
I459
sg7
I468
sa(dp24
g3
I0
sg4
VMichigan
p25
sg6
I485
sg7
I492
sa(dp26
g3
I0
sg4
VHouse
p27
sg6
I494
sg7
I498
sa(dp28
g3
I0
sg4
VRepresentatives
p29
sg6
I503
sg7
I517
sa(dp30
g3
I0
sg4
VFitzgerald
p31
sg6
I715
sg7
I724
sa(dp32
g3
I0
sg4
VNassar
p33
sg6
I812
sg7
I817
sa(dp34
g3
I0
sg4
VMichigan
p35
sg6
I929
sg7
I936
sa(dp36
g3
I0
sg4
VState
p37
sg6
I938
sg7
I942
sa(dp38
g3
I0
sg4
VFitzgerald
p39
sg6
I952
sg7
I961
sa(dp40
g3
I0
sg4
VNassar
p41
sg6
I1295
sg7
I1300
sa(dp42
g3
I0
sg4
VFitzgerald
p43
sg6
I1926
sg7
I1935
sa(dp44
g3
I0
sg4
VNassar
p45
sg6
I1980
sg7
I1985
sa(dp46
g3
I0
sg4
VNassar
p47
sg6
I2051
sg7
I2056
sa(dp48
g3
I0
sg4
VMSU
p49
sg6
I2135
sg7
I2137
sa(dp50
g3
I0
sg4
VFitzgerald
p51
sg6
I2143
sg7
I2152
sa(dp52
g3
I0
sg4
VFitzgerald
p53
sg6
I2198
sg7
I2207
sa(dp54
g3
I0
sg4
VMichigan
p55
sg6
I2236
sg7
I2243
sa(dp56
g3
I0
sg4
VState
p57
sg6
I2245
sg7
I2249
sa(dp58
g3
I0
sg4
VFitzgerald
p59
sg6
I2310
sg7
I2319
sa(dp60
g3
I0
sg4
VLou
p61
sg6
I2391
sg7
I2393
sa(dp62
g3
I0
sg4
VAnna
p63
sg6
I2395
sg7
I2398
sa(dp64
g3
I0
sg4
VSimon
p65
sg6
I2403
sg7
I2407
sa(dp66
g3
I0
sg4
VApril.
p67
sg6
I2741
sg7
I2746
sa(dp68
g3
I0
sg4
VNassar
p69
sg6
I2752
sg7
I2757
sa(dp70
g3
I0
sg4
VMichigan
p71
sg6
I2939
sg7
I2946
sa(dp72
g3
I0
sg4
VState
p73
sg6
I2948
sg7
I2952
sa(dp74
g3
I0
sg4
VMichigan
p75
sg6
I3042
sg7
I3049
sa(dp76
g3
I0
sg4
VState
p77
sg6
I3051
sg7
I3055
sa(dp78
g3
I0
sg4
VMark
p79
sg6
I3077
sg7
I3080
sa(dp80
g3
I0
sg4
VHollis
p81
sg6
I3082
sg7
I3087
sa(dp82
g3
I0
sg4
VMichigan
p83
sg6
I3174
sg7
I3181
sa(dp84
g3
I0
sg4
VNassar.
p85
sg6
I3313
sg7
I3319
sa(dp86
g3
I0
sg4
VBill
p87
sg6
I3321
sg7
I3324
sa(dp88
g3
I0
sg4
VSchuette
p89
sg6
I3326
sg7
I3333
sa(dp90
g3
I0
sg4
VSchuette
p91
sg6
I3601
sg7
I3608
sa(dp92
g3
I0
sg4
VFitzgerald
p93
sg6
I3671
sg7
I3680
sa(dp94
g3
I0
sg4
VSchuette
p95
sg6
I3817
sg7
I3824
sa(dp96
g3
I0
sg4
VMichigan
p97
sg6
I3880
sg7
I3887
sasI2
(lp98
(dp99
g3
I1
sg4
VMichigan State
p100
sg6
I222
sg7
I235
sa(dp101
g3
I1
sg4
VMichigan State
p102
sg6
I353
sg7
I366
sa(dp103
g3
I0
sg4
VTom Leonard
p104
sg6
I443
sg7
I453
sa(dp105
g3
I0
sg4
VMichigan House
p106
sg6
I485
sg7
I498
sa(dp107
g3
I1
sg4
VMichigan State
p108
sg6
I929
sg7
I942
sa(dp109
g3
I1
sg4
VMichigan State
p110
sg6
I2236
sg7
I2249
sa(dp111
g3
I0
sg4
VLou Anna
p112
sg6
I2391
sg7
I2398
sa(dp113
g3
I0
sg4
VAnna K.
p114
sg6
I2395
sg7
I2401
sa(dp115
g3
I0
sg4
VK. Simon
p116
sg6
I2400
sg7
I2407
sa(dp117
g3
I1
sg4
VMichigan State
p118
sg6
I2939
sg7
I2952
sa(dp119
g3
I1
sg4
VMichigan State
p120
sg6
I3042
sg7
I3055
sa(dp121
g3
I0
sg4
VMark Hollis
p122
sg6
I3077
sg7
I3087
sa(dp123
g3
I0
sg4
VBill Schuette
p124
sg6
I3321
sg7
I3333
sasI3
(lp125
(dp126
g3
I0
sg4
VHouse of Representatives
p127
sg6
I494
sg7
I517
sa(dp128
g3
I0
sg4
VLou Anna K.
p129
sg6
I2391
sg7
I2401
sa(dp130
g3
I0
sg4
VAnna K. Simon
p131
sg6
I2395
sg7
I2407
sasI4
(lp132
(dp133
g3
I0
sg4
VMichigan House of Representatives
p134
sg6
I485
sg7
I517
sa(dp135
g3
I0
sg4
VLou Anna K. Simon
p136
sg6
I2391
sg7
I2407
sasI5
(lp137
sI6
(lp138
s.