(dp0
I1
(lp1
(dp2
S'label'
p3
I0
sS'string'
p4
VTrump
p5
sS'start_index'
p6
I38
sS'end_index'
p7
I42
sa(dp8
g3
I0
sg4
VMichelle
p9
sg6
I156
sg7
I163
sa(dp10
g3
I0
sg4
VAsha
p11
sg6
I165
sg7
I168
sa(dp12
g3
I0
sg4
VCooper
p13
sg6
I170
sg7
I175
sa(dp14
g3
I0
sg4
VHigher
p15
sg6
I212
sg7
I217
sa(dp16
g3
I0
sg4
VEducation
p17
sg6
I219
sg7
I227
sa(dp18
g3
I0
sg4
VPolicy
p19
sg6
I229
sg7
I234
sa(dp20
g3
I0
sg4
VCooper
p21
sg6
I533
sg7
I538
sa(dp22
g3
I0
sg4
VCommunity
p23
sg6
I660
sg7
I668
sa(dp24
g3
I0
sg4
VPresident
p25
sg6
I798
sg7
I806
sa(dp26
g3
I0
sg4
VHarry
p27
sg6
I808
sg7
I812
sa(dp28
g3
I0
sg4
VTruman
p29
sg6
I814
sg7
I819
sa(dp30
g3
I0
sg4
VPresidential
p31
sg6
I831
sg7
I842
sa(dp32
g3
I0
sg4
VCommission
p33
sg6
I844
sg7
I853
sa(dp34
g3
I0
sg4
VHigher
p35
sg6
I858
sg7
I863
sa(dp36
g3
I0
sg4
VEducation
p37
sg6
I865
sg7
I873
sa(dp38
g3
I0
sg4
VWorld
p39
sg6
I950
sg7
I954
sa(dp40
g3
I0
sg4
VWar
p41
sg6
I956
sg7
I958
sa(dp42
g3
I0
sg4
VPortland
p43
sg6
I1217
sg7
I1224
sa(dp44
g3
I0
sg4
VCommunity
p45
sg6
I1226
sg7
I1234
sa(dp46
g3
I0
sg4
VMark
p47
sg6
I1277
sg7
I1280
sa(dp48
g3
I0
sg4
VMitsui
p49
sg6
I1282
sg7
I1287
sa(dp50
g3
I0
sg4
VLeagues
p51
sg6
I1609
sg7
I1615
sa(dp52
g3
I0
sg4
VEnglish
p53
sg6
I1646
sg7
I1652
sa(dp54
g3
I0
sg4
VRebecca
p55
sg6
I1705
sg7
I1711
sa(dp56
g3
I0
sg4
VSkloot
p57
sg6
I1713
sg7
I1718
sa(dp58
g3
I0
sg4
VImmortal
p59
sg6
I1756
sg7
I1763
sa(dp60
g3
I0
sg4
VLife
p61
sg6
I1765
sg7
I1768
sa(dp62
g3
I0
sg4
VHenrietta
p63
sg6
I1773
sg7
I1781
sa(dp64
g3
I0
sg4
VLacks.
p65
sg6
I1783
sg7
I1788
sa(dp66
g3
I0
sg4
VMitsui
p67
sg6
I1919
sg7
I1924
sa(dp68
g3
I0
sg4
VPortland
p69
sg6
I2020
sg7
I2027
sasI2
(lp70
(dp71
g3
I0
sg4
VMichelle Asha
p72
sg6
I156
sg7
I168
sa(dp73
g3
I0
sg4
VAsha Cooper
p74
sg6
I165
sg7
I175
sa(dp75
g3
I0
sg4
VHigher Education
p76
sg6
I212
sg7
I227
sa(dp77
g3
I0
sg4
VEducation Policy
p78
sg6
I219
sg7
I234
sa(dp79
g3
I0
sg4
VPresident Harry
p80
sg6
I798
sg7
I812
sa(dp81
g3
I0
sg4
VHarry Truman
p82
sg6
I808
sg7
I819
sa(dp83
g3
I0
sg4
VPresidential Commission
p84
sg6
I831
sg7
I853
sa(dp85
g3
I0
sg4
VHigher Education
p86
sg6
I858
sg7
I873
sa(dp87
g3
I0
sg4
VWorld War
p88
sg6
I950
sg7
I958
sa(dp89
g3
I0
sg4
VWar II
p90
sg6
I956
sg7
I961
sa(dp91
g3
I0
sg4
VPortland Community
p92
sg6
I1217
sg7
I1234
sa(dp93
g3
I0
sg4
VCommunity College
p94
sg6
I1226
sg7
I1242
sa(dp95
g3
I0
sg4
VMark Mitsui
p96
sg6
I1277
sg7
I1287
sa(dp97
g3
I0
sg4
VRebecca Skloot
p98
sg6
I1705
sg7
I1718
sa(dp99
g3
I0
sg4
VImmortal Life
p100
sg6
I1756
sg7
I1768
sa(dp101
g3
I0
sg4
VHenrietta Lacks.
p102
sg6
I1773
sg7
I1788
sasI3
(lp103
(dp104
g3
I0
sg4
VMichelle Asha Cooper
p105
sg6
I156
sg7
I175
sa(dp106
g3
I0
sg4
VHigher Education Policy
p107
sg6
I212
sg7
I234
sa(dp108
g3
I0
sg4
VPresident Harry Truman
p109
sg6
I798
sg7
I819
sa(dp110
g3
I0
sg4
VWorld War II
p111
sg6
I950
sg7
I961
sa(dp112
g3
I1
sg4
VPortland Community College
p113
sg6
I1217
sg7
I1242
sa(dp114
g3
I0
sg4
VLife of Henrietta
p115
sg6
I1765
sg7
I1781
sasI4
(lp116
(dp117
g3
I0
sg4
VImmortal Life of Henrietta
p118
sg6
I1756
sg7
I1781
sa(dp119
g3
I0
sg4
VLife of Henrietta Lacks.
p120
sg6
I1765
sg7
I1788
sasI5
(lp121
(dp122
g3
I0
sg4
VImmortal Life of Henrietta Lacks.
p123
sg6
I1756
sg7
I1788
sasI6
(lp124
s.