(dp0
I1
(lp1
(dp2
S'label'
p3
I0
sS'string'
p4
VPortland
p5
sS'start_index'
p6
I108
sS'end_index'
p7
I115
sa(dp8
g3
I0
sg4
VCommunity
p9
sg6
I117
sg7
I125
sa(dp10
g3
I0
sg4
VCollege.
p11
sg6
I127
sg7
I134
sasI2
(lp12
(dp13
g3
I0
sg4
VPortland Community
p14
sg6
I108
sg7
I125
sa(dp15
g3
I0
sg4
VCommunity College.
p16
sg6
I117
sg7
I134
sasI3
(lp17
(dp18
g3
I1
sg4
VPortland Community College.
p19
sg6
I108
sg7
I134
sasI4
(lp20
sI5
(lp21
sI6
(lp22
s.