(dp0
I1
(lp1
(dp2
S'label'
p3
I0
sS'string'
p4
VStep
p5
sS'start_index'
p6
I38
sS'end_index'
p7
I41
sa(dp8
g3
I0
sg4
VSoles
p9
sg6
I52
sg7
I56
sa(dp10
g3
I0
sg4
VRecovery
p11
sg6
I61
sg7
I68
sa(dp12
g3
I0
sg4
VNorth
p13
sg6
I115
sg7
I119
sa(dp14
g3
I0
sg4
VCarolina
p15
sg6
I121
sg7
I128
sa(dp16
g3
I0
sg4
VChapel
p17
sg6
I133
sg7
I138
sa(dp18
g3
I0
sg4
VHill
p19
sg6
I140
sg7
I143
sasI2
(lp20
(dp21
g3
I0
sg4
VNorth Carolina
p22
sg6
I115
sg7
I128
sa(dp23
g3
I0
sg4
VChapel Hill
p24
sg6
I133
sg7
I143
sasI3
(lp25
(dp26
g3
I0
sg4
VSoles of Recovery
p27
sg6
I52
sg7
I68
sa(dp28
g3
I0
sg4
VUniversity of North
p29
sg6
I101
sg7
I119
sasI4
(lp30
(dp31
g3
I1
sg4
VUniversity of North Carolina
p32
sg6
I101
sg7
I128
sasI5
(lp33
sI6
(lp34
s.