(dp0
I1
(lp1
(dp2
S'label'
p3
I0
sS'string'
p4
VNasty
p5
sS'start_index'
p6
I0
sS'end_index'
p7
I4
sa(dp8
g3
I0
sg4
VNew
p9
sg6
I91
sg7
I93
sa(dp10
g3
I0
sg4
VJersey
p11
sg6
I95
sg7
I100
sa(dp12
g3
I0
sg4
VHaven
p13
sg6
I143
sg7
I147
sa(dp14
g3
I0
sg4
VPresident
p15
sg6
I370
sg7
I378
sa(dp16
g3
I0
sg4
VTrump
p17
sg6
I380
sg7
I384
sa(dp18
g3
I0
sg4
VOct.
p19
sg6
I427
sg7
I430
sa(dp20
g3
I0
sg4
VAlready
p21
sg6
I578
sg7
I584
sa(dp22
g3
I0
sg4
VPercocet
p23
sg6
I706
sg7
I713
sa(dp24
g3
I0
sg4
VVicodin
p25
sg6
I729
sg7
I735
sa(dp26
g3
I0
sg4
VMichigan
p27
sg6
I1008
sg7
I1015
sa(dp28
g3
I0
sg4
VSean
p29
sg6
I1302
sg7
I1305
sa(dp30
g3
I0
sg4
VEsteban
p31
sg6
I1307
sg7
I1313
sa(dp32
g3
I0
sg4
VMcCabe
p33
sg6
I1315
sg7
I1320
sa(dp34
g3
I1
sg4
VMichigan
p35
sg6
I1324
sg7
I1331
sa(dp36
g3
I0
sg4
VStudies
p37
sg6
I1531
sg7
I1537
sa(dp38
g3
I0
sg4
VCampus
p39
sg6
I1687
sg7
I1692
sa(dp40
g3
I0
sg4
VMcCabe
p41
sg6
I1704
sg7
I1709
sa(dp42
g3
I1
sg4
VMichigan
p43
sg6
I1989
sg7
I1996
sa(dp44
g3
I0
sg4
VPublic
p45
sg6
I2155
sg7
I2160
sa(dp46
g3
I0
sg4
VPrince.
p47
sg6
I2353
sg7
I2359
sa(dp48
g3
I0
sg4
VOpioid
p49
sg6
I2361
sg7
I2366
sa(dp50
g3
I0
sg4
VAmericans
p51
sg6
I2389
sg7
I2397
sa(dp52
g3
I0
sg4
VKaiser
p53
sg6
I2491
sg7
I2496
sa(dp54
g3
I0
sg4
VFamily
p55
sg6
I2498
sg7
I2503
sa(dp56
g3
I0
sg4
VFoundation
p57
sg6
I2505
sg7
I2514
sa(dp58
g3
I0
sg4
VCenters
p59
sg6
I2539
sg7
I2545
sa(dp60
g3
I0
sg4
VDisease
p61
sg6
I2551
sg7
I2557
sa(dp62
g3
I0
sg4
VControl
p63
sg6
I2559
sg7
I2565
sa(dp64
g3
I0
sg4
VPrevention.
p65
sg6
I2571
sg7
I2581
sa(dp66
g3
I0
sg4
VUnited
p67
sg6
I2746
sg7
I2751
sa(dp68
g3
I0
sg4
VStates
p69
sg6
I2753
sg7
I2758
sa(dp70
g3
I0
sg4
VDepartment
p71
sg6
I2760
sg7
I2769
sa(dp72
g3
I0
sg4
VHealth
p73
sg6
I2774
sg7
I2779
sa(dp74
g3
I0
sg4
VHuman
p75
sg6
I2785
sg7
I2789
sa(dp76
g3
I0
sg4
VServices.
p77
sg6
I2791
sg7
I2799
sasI2
(lp78
(dp79
g3
I0
sg4
VNew Jersey
p80
sg6
I91
sg7
I100
sa(dp81
g3
I0
sg4
VPresident Trump
p82
sg6
I370
sg7
I384
sa(dp83
g3
I0
sg4
VSean Esteban
p84
sg6
I1302
sg7
I1313
sa(dp85
g3
I0
sg4
VEsteban McCabe
p86
sg6
I1307
sg7
I1320
sa(dp87
g3
I0
sg4
VKaiser Family
p88
sg6
I2491
sg7
I2503
sa(dp89
g3
I0
sg4
VFamily Foundation
p90
sg6
I2498
sg7
I2514
sa(dp91
g3
I0
sg4
VDisease Control
p92
sg6
I2551
sg7
I2565
sa(dp93
g3
I0
sg4
VUnited States
p94
sg6
I2746
sg7
I2758
sa(dp95
g3
I0
sg4
VStates Department
p96
sg6
I2753
sg7
I2769
sa(dp97
g3
I0
sg4
VHuman Services.
p98
sg6
I2785
sg7
I2799
sasI3
(lp99
(dp100
g3
I1
sg4
VUniversity of Michigan
p101
sg6
I994
sg7
I1015
sa(dp102
g3
I0
sg4
VSean Esteban McCabe
p103
sg6
I1302
sg7
I1320
sa(dp104
g3
I0
sg4
VKaiser Family Foundation
p105
sg6
I2491
sg7
I2514
sa(dp106
g3
I0
sg4
VControl and Prevention.
p107
sg6
I2559
sg7
I2581
sa(dp108
g3
I0
sg4
VUnited States Department
p109
sg6
I2746
sg7
I2769
sa(dp110
g3
I0
sg4
VDepartment of Health
p111
sg6
I2760
sg7
I2779
sa(dp112
g3
I0
sg4
VHealth and Human
p113
sg6
I2774
sg7
I2789
sasI4
(lp114
(dp115
g3
I0
sg4
VDisease Control and Prevention.
p116
sg6
I2551
sg7
I2581
sa(dp117
g3
I0
sg4
VStates Department of Health
p118
sg6
I2753
sg7
I2779
sa(dp119
g3
I0
sg4
VHealth and Human Services.
p120
sg6
I2774
sg7
I2799
sasI5
(lp121
(dp122
g3
I0
sg4
VUnited States Department of Health
p123
sg6
I2746
sg7
I2779
sa(dp124
g3
I0
sg4
VDepartment of Health and Human
p125
sg6
I2760
sg7
I2789
sasI6
(lp126
(dp127
g3
I0
sg4
VStates Department of Health and Human
p128
sg6
I2753
sg7
I2789
sa(dp129
g3
I0
sg4
VDepartment of Health and Human Services.
p130
sg6
I2760
sg7
I2799
sas.