(dp0
I1
(lp1
(dp2
S'label'
p3
I0
sS'string'
p4
VLast
p5
sS'start_index'
p6
I0
sS'end_index'
p7
I3
sa(dp8
g3
I0
sg4
VJohns
p9
sg6
I26
sg7
I30
sa(dp10
g3
I0
sg4
VHopkins
p11
sg6
I32
sg7
I38
sa(dp12
g3
I0
sg4
VFurman
p13
sg6
I135
sg7
I140
sa(dp14
g3
I0
sg4
VGreenville
p15
sg6
I156
sg7
I165
sa(dp16
g3
I0
sg4
VNorth
p17
sg6
I292
sg7
I296
sa(dp18
g3
I0
sg4
VCarolina
p19
sg6
I298
sg7
I305
sa(dp20
g3
I0
sg4
VChapel
p21
sg6
I310
sg7
I315
sa(dp22
g3
I0
sg4
VHill
p23
sg6
I317
sg7
I320
sa(dp24
g3
I0
sg4
VTar
p25
sg6
I374
sg7
I376
sa(dp26
g3
I0
sg4
VHeel
p27
sg6
I378
sg7
I381
sa(dp28
g3
I0
sg4
VStates
p29
sg6
I503
sg7
I508
sa(dp30
g3
I0
sg4
VNew
p31
sg6
I546
sg7
I548
sa(dp32
g3
I0
sg4
VYork
p33
sg6
I550
sg7
I553
sa(dp34
g3
I0
sg4
VColorado
p35
sg6
I559
sg7
I566
sa(dp36
g3
I0
sg4
VMaryland
p37
sg6
I667
sg7
I674
sa(dp38
g3
I0
sg4
VGov.
p39
sg6
I807
sg7
I810
sa(dp40
g3
I0
sg4
VChris
p41
sg6
I812
sg7
I816
sa(dp42
g3
I0
sg4
VChristie
p43
sg6
I818
sg7
I825
sa(dp44
g3
I0
sg4
VNew
p45
sg6
I830
sg7
I832
sa(dp46
g3
I0
sg4
VJersey
p47
sg6
I834
sg7
I839
sa(dp48
g3
I0
sg4
VLast
p49
sg6
I1260
sg7
I1263
sa(dp50
g3
I0
sg4
VWest
p51
sg6
I1270
sg7
I1273
sa(dp52
g3
I0
sg4
VVirginia
p53
sg6
I1275
sg7
I1282
sa(dp54
g3
I0
sg4
VMothers
p55
sg6
I1384
sg7
I1390
sa(dp56
g3
I0
sg4
VSometimes
p57
sg6
I1619
sg7
I1627
sasI2
(lp58
(dp59
g3
I0
sg4
VJohns Hopkins
p60
sg6
I26
sg7
I38
sa(dp61
g3
I0
sg4
VHopkins University
p62
sg6
I32
sg7
I49
sa(dp63
g3
I1
sg4
VFurman University
p64
sg6
I135
sg7
I151
sa(dp65
g3
I0
sg4
VGreenville S.
p66
sg6
I156
sg7
I168
sa(dp67
g3
I0
sg4
VS. C.
p68
sg6
I167
sg7
I171
sa(dp69
g3
I0
sg4
VNorth Carolina
p70
sg6
I292
sg7
I305
sa(dp71
g3
I0
sg4
VChapel Hill
p72
sg6
I310
sg7
I320
sa(dp73
g3
I0
sg4
VTar Heel
p74
sg6
I374
sg7
I381
sa(dp75
g3
I0
sg4
VNew York
p76
sg6
I546
sg7
I553
sa(dp77
g3
I0
sg4
VChris Christie
p78
sg6
I812
sg7
I825
sa(dp79
g3
I0
sg4
VNew Jersey
p80
sg6
I830
sg7
I839
sa(dp81
g3
I0
sg4
VWest Virginia
p82
sg6
I1270
sg7
I1282
sa(dp83
g3
I0
sg4
VVirginia University
p84
sg6
I1275
sg7
I1293
sasI3
(lp85
(dp86
g3
I1
sg4
VJohns Hopkins University
p87
sg6
I26
sg7
I49
sa(dp88
g3
I0
sg4
VGreenville S. C.
p89
sg6
I156
sg7
I171
sa(dp90
g3
I0
sg4
VUniversity of North
p91
sg6
I278
sg7
I296
sa(dp92
g3
I0
sg4
VYork and Colorado
p93
sg6
I550
sg7
I566
sa(dp94
g3
I0
sg4
VChristie of New
p95
sg6
I818
sg7
I832
sa(dp96
g3
I1
sg4
VWest Virginia University
p97
sg6
I1270
sg7
I1293
sasI4
(lp98
(dp99
g3
I1
sg4
VUniversity of North Carolina
p100
sg6
I278
sg7
I305
sa(dp101
g3
I0
sg4
VNew York and Colorado
p102
sg6
I546
sg7
I566
sa(dp103
g3
I0
sg4
VChris Christie of New
p104
sg6
I812
sg7
I832
sa(dp105
g3
I0
sg4
VChristie of New Jersey
p106
sg6
I818
sg7
I839
sasI5
(lp107
(dp108
g3
I0
sg4
VChris Christie of New Jersey
p109
sg6
I812
sg7
I839
sasI6
(lp110
s.