(dp0
I1
(lp1
(dp2
S'label'
p3
I0
sS'string'
p4
VPrescription
p5
sS'start_index'
p6
I0
sS'end_index'
p7
I11
sa(dp8
g3
I0
sg4
VXanax
p9
sg6
I46
sg7
I50
sa(dp10
g3
I0
sg4
VAdderall
p11
sg6
I144
sg7
I151
sa(dp12
g3
I0
sg4
VVicodin
p13
sg6
I182
sg7
I188
sa(dp14
g3
I0
sg4
VJoseph
p15
sg6
I293
sg7
I298
sa(dp16
g3
I0
sg4
VLee
p17
sg6
I300
sg7
I302
sa(dp18
g3
I0
sg4
VHazelden
p19
sg6
I347
sg7
I354
sa(dp20
g3
I0
sg4
VBetty
p21
sg6
I356
sg7
I360
sa(dp22
g3
I0
sg4
VFord
p23
sg6
I362
sg7
I365
sa(dp24
g3
I0
sg4
VFoundation
p25
sg6
I367
sg7
I376
sa(dp26
g3
I0
sg4
VDrugs
p27
sg6
I886
sg7
I890
sa(dp28
g3
I0
sg4
VBart
p29
sg6
I940
sg7
I943
sa(dp30
g3
I0
sg4
VArconti
p31
sg6
I945
sg7
I951
sa(dp32
g3
I0
sg4
VNorth
p33
sg6
I983
sg7
I987
sa(dp34
g3
I0
sg4
VCarolina
p35
sg6
I989
sg7
I996
sa(dp36
g3
I0
sg4
VChapel
p37
sg6
I1001
sg7
I1006
sa(dp38
g3
I0
sg4
VHill
p39
sg6
I1008
sg7
I1011
sa(dp40
g3
I0
sg4
VBaltimore
p41
sg6
I1104
sg7
I1112
sasI2
(lp42
(dp43
g3
I0
sg4
VJoseph Lee
p44
sg6
I293
sg7
I302
sa(dp45
g3
I0
sg4
VHazelden Betty
p46
sg6
I347
sg7
I360
sa(dp47
g3
I0
sg4
VBetty Ford
p48
sg6
I356
sg7
I365
sa(dp49
g3
I0
sg4
VFord Foundation
p50
sg6
I362
sg7
I376
sa(dp51
g3
I0
sg4
VBart Arconti
p52
sg6
I940
sg7
I951
sa(dp53
g3
I0
sg4
VNorth Carolina
p54
sg6
I983
sg7
I996
sa(dp55
g3
I0
sg4
VChapel Hill
p56
sg6
I1001
sg7
I1011
sasI3
(lp57
(dp58
g3
I0
sg4
VHazelden Betty Ford
p59
sg6
I347
sg7
I365
sa(dp60
g3
I0
sg4
VBetty Ford Foundation
p61
sg6
I356
sg7
I376
sa(dp62
g3
I0
sg4
VUniversity of North
p63
sg6
I969
sg7
I987
sasI4
(lp64
(dp65
g3
I0
sg4
VHazelden Betty Ford Foundation
p66
sg6
I347
sg7
I376
sa(dp67
g3
I1
sg4
VUniversity of North Carolina
p68
sg6
I969
sg7
I996
sasI5
(lp69
sI6
(lp70
s.