(dp0
I1
(lp1
(dp2
S'label'
p3
I0
sS'string'
p4
VArconti
p5
sS'start_index'
p6
I4
sS'end_index'
p7
I10
sa(dp8
g3
I0
sg4
VPills
p9
sg6
I402
sg7
I406
sa(dp10
g3
I0
sg4
VNational
p11
sg6
I457
sg7
I464
sa(dp12
g3
I0
sg4
VSurvey
p13
sg6
I466
sg7
I471
sa(dp14
g3
I0
sg4
VDrug
p15
sg6
I476
sg7
I479
sa(dp16
g3
I0
sg4
VUse
p17
sg6
I481
sg7
I483
sa(dp18
g3
I0
sg4
VHealth
p19
sg6
I489
sg7
I494
sa(dp20
g3
I0
sg4
VAmericans
p21
sg6
I527
sg7
I535
sa(dp22
g3
I0
sg4
VAdderall.
p23
sg6
I668
sg7
I676
sa(dp24
g3
I0
sg4
VPainkillers
p25
sg6
I713
sg7
I723
sa(dp26
g3
I0
sg4
VAmerican
p27
sg6
I822
sg7
I829
sa(dp28
g3
I0
sg4
VSociety
p29
sg6
I831
sg7
I837
sa(dp30
g3
I0
sg4
VAddiction
p31
sg6
I842
sg7
I850
sa(dp32
g3
I0
sg4
VMedicine.
p33
sg6
I852
sg7
I860
sa(dp34
g3
I0
sg4
VAmerican
p35
sg6
I948
sg7
I955
sa(dp36
g3
I0
sg4
VNational
p37
sg6
I998
sg7
I1005
sa(dp38
g3
I0
sg4
VDrug
p39
sg6
I1020
sg7
I1023
sa(dp40
g3
I0
sg4
VAbuse
p41
sg6
I1025
sg7
I1029
sa(dp42
g3
I0
sg4
VParents
p43
sg6
I1115
sg7
I1121
sa(dp44
g3
I0
sg4
VAndrew
p45
sg6
I1264
sg7
I1269
sa(dp46
g3
I0
sg4
VKolodny
p47
sg6
I1271
sg7
I1277
sa(dp48
g3
I0
sg4
VOpioid
p49
sg6
I1298
sg7
I1303
sa(dp50
g3
I0
sg4
VPolicy
p51
sg6
I1305
sg7
I1310
sa(dp52
g3
I0
sg4
VResearch
p53
sg6
I1312
sg7
I1319
sa(dp54
g3
I0
sg4
VBrandeis
p55
sg6
I1324
sg7
I1331
sa(dp56
g3
I0
sg4
VHeller
p57
sg6
I1346
sg7
I1351
sa(dp58
g3
I0
sg4
VSocial
p59
sg6
I1364
sg7
I1369
sa(dp60
g3
I0
sg4
VPolicy
p61
sg6
I1371
sg7
I1376
sa(dp62
g3
I0
sg4
VManagement
p63
sg6
I1382
sg7
I1391
sa(dp64
g3
I0
sg4
VMultiple
p65
sg6
I1568
sg7
I1575
sa(dp66
g3
I0
sg4
VThroughout
p67
sg6
I1838
sg7
I1847
sa(dp68
g3
I0
sg4
VNorth
p69
sg6
I1926
sg7
I1930
sa(dp70
g3
I0
sg4
VCarolina
p71
sg6
I1932
sg7
I1939
sa(dp72
g3
I0
sg4
VStep
p73
sg6
I1991
sg7
I1994
sa(dp74
g3
I0
sg4
VSoles
p75
sg6
I2005
sg7
I2009
sa(dp76
g3
I0
sg4
VRecovery
p77
sg6
I2014
sg7
I2021
sa(dp78
g3
I0
sg4
VAlongside
p79
sg6
I2085
sg7
I2093
sa(dp80
g3
I0
sg4
VFrank
p81
sg6
I2310
sg7
I2314
sa(dp82
g3
I0
sg4
VAllison
p83
sg6
I2316
sg7
I2322
sa(dp84
g3
I0
sg4
VN.C.
p85
sg6
I2393
sg7
I2396
sa(dp86
g3
I0
sg4
VAllison
p87
sg6
I2634
sg7
I2640
sa(dp88
g3
I0
sg4
VAmerican
p89
sg6
I2827
sg7
I2834
sa(dp90
g3
I0
sg4
VSociety
p91
sg6
I2836
sg7
I2842
sa(dp92
g3
I0
sg4
VAddiction
p93
sg6
I2847
sg7
I2855
sa(dp94
g3
I0
sg4
VMedicine
p95
sg6
I2857
sg7
I2864
sa(dp96
g3
I0
sg4
VPhysicians
p97
sg6
I2878
sg7
I2887
sasI2
(lp98
(dp99
g3
I0
sg4
VNational Survey
p100
sg6
I457
sg7
I471
sa(dp101
g3
I0
sg4
VDrug Use
p102
sg6
I476
sg7
I483
sa(dp103
g3
I0
sg4
VAmerican Society
p104
sg6
I822
sg7
I837
sa(dp105
g3
I0
sg4
VAddiction Medicine.
p106
sg6
I842
sg7
I860
sa(dp107
g3
I0
sg4
VNational Institute
p108
sg6
I998
sg7
I1015
sa(dp109
g3
I0
sg4
VDrug Abuse
p110
sg6
I1020
sg7
I1029
sa(dp111
g3
I0
sg4
VAndrew Kolodny
p112
sg6
I1264
sg7
I1277
sa(dp113
g3
I0
sg4
VOpioid Policy
p114
sg6
I1298
sg7
I1310
sa(dp115
g3
I0
sg4
VPolicy Research
p116
sg6
I1305
sg7
I1319
sa(dp117
g3
I1
sg4
VBrandeis University
p118
sg6
I1324
sg7
I1342
sa(dp119
g3
I0
sg4
VHeller School
p120
sg6
I1346
sg7
I1358
sa(dp121
g3
I0
sg4
VSocial Policy
p122
sg6
I1364
sg7
I1376
sa(dp123
g3
I0
sg4
VNorth Carolina
p124
sg6
I1926
sg7
I1939
sa(dp125
g3
I0
sg4
VFrank Allison
p126
sg6
I2310
sg7
I2322
sa(dp127
g3
I0
sg4
VU. N.C.
p128
sg6
I2390
sg7
I2396
sa(dp129
g3
I0
sg4
VAmerican Society
p130
sg6
I2827
sg7
I2842
sa(dp131
g3
I0
sg4
VAddiction Medicine
p132
sg6
I2847
sg7
I2864
sasI3
(lp133
(dp134
g3
I0
sg4
VUse and Health
p135
sg6
I481
sg7
I494
sa(dp136
g3
I0
sg4
VSociety of Addiction
p137
sg6
I831
sg7
I850
sa(dp138
g3
I0
sg4
VOpioid Policy Research
p139
sg6
I1298
sg7
I1319
sa(dp140
g3
I0
sg4
VPolicy and Management
p141
sg6
I1371
sg7
I1391
sa(dp142
g3
I0
sg4
VUniversity of North
p143
sg6
I1912
sg7
I1930
sa(dp144
g3
I0
sg4
VSoles of Recovery
p145
sg6
I2005
sg7
I2021
sa(dp146
g3
I0
sg4
VSociety of Addiction
p147
sg6
I2836
sg7
I2855
sasI4
(lp148
(dp149
g3
I0
sg4
VDrug Use and Health
p150
sg6
I476
sg7
I494
sa(dp151
g3
I0
sg4
VAmerican Society of Addiction
p152
sg6
I822
sg7
I850
sa(dp153
g3
I0
sg4
VSociety of Addiction Medicine.
p154
sg6
I831
sg7
I860
sa(dp155
g3
I0
sg4
VSocial Policy and Management
p156
sg6
I1364
sg7
I1391
sa(dp157
g3
I1
sg4
VUniversity of North Carolina
p158
sg6
I1912
sg7
I1939
sa(dp159
g3
I0
sg4
VAmerican Society of Addiction
p160
sg6
I2827
sg7
I2855
sa(dp161
g3
I0
sg4
VSociety of Addiction Medicine
p162
sg6
I2836
sg7
I2864
sasI5
(lp163
(dp164
g3
I0
sg4
VAmerican Society of Addiction Medicine.
p165
sg6
I822
sg7
I860
sa(dp166
g3
I0
sg4
VAmerican Society of Addiction Medicine
p167
sg6
I2827
sg7
I2864
sasI6
(lp168
s.