(dp0
I1
(lp1
(dp2
S'label'
p3
I0
sS'string'
p4
VBart
p5
sS'start_index'
p6
I0
sS'end_index'
p7
I3
sa(dp8
g3
I0
sg4
VArconti
p9
sg6
I5
sg7
I11
sa(dp10
g3
I0
sg4
VNorth
p11
sg6
I43
sg7
I47
sa(dp12
g3
I0
sg4
VCarolina
p13
sg6
I49
sg7
I56
sasI2
(lp14
(dp15
g3
I0
sg4
VBart Arconti
p16
sg6
I0
sg7
I11
sa(dp17
g3
I0
sg4
VNorth Carolina
p18
sg6
I43
sg7
I56
sasI3
(lp19
(dp20
g3
I0
sg4
VUniversity of North
p21
sg6
I29
sg7
I47
sasI4
(lp22
(dp23
g3
I1
sg4
VUniversity of North Carolina
p24
sg6
I29
sg7
I56
sasI5
(lp25
sI6
(lp26
s.