(dp0
I1
(lp1
(dp2
S'label'
p3
I0
sS'string'
p4
VPeople
p5
sS'start_index'
p6
I0
sS'end_index'
p7
I5
sa(dp8
g3
I0
sg4
VHaving
p9
sg6
I112
sg7
I117
sa(dp10
g3
I0
sg4
VArconti
p11
sg6
I194
sg7
I200
sa(dp12
g3
I0
sg4
VAsian
p13
sg6
I234
sg7
I238
sa(dp14
g3
I0
sg4
VAllison
p15
sg6
I262
sg7
I268
sa(dp16
g3
I0
sg4
VArconti
p17
sg6
I512
sg7
I518
sa(dp18
g3
I0
sg4
VWest
p19
sg6
I623
sg7
I626
sa(dp20
g3
I0
sg4
VBaltimore.
p21
sg6
I628
sg7
I637
sa(dp22
g3
I0
sg4
VOthers
p23
sg6
I676
sg7
I681
sa(dp24
g3
I0
sg4
VN.C.
p25
sg6
I833
sg7
I836
sa(dp26
g3
I0
sg4
VArconti
p27
sg6
I859
sg7
I865
sa(dp28
g3
I0
sg4
VTogether
p29
sg6
I902
sg7
I909
sa(dp30
g3
I0
sg4
VDurham
p31
sg6
I922
sg7
I927
sa(dp32
g3
I0
sg4
VBulls
p33
sg6
I929
sg7
I933
sa(dp34
g3
I0
sg4
VArconti
p35
sg6
I1363
sg7
I1369
sa(dp36
g3
I0
sg4
VNationally
p37
sg6
I1441
sg7
I1450
sa(dp38
g3
I0
sg4
VLast
p39
sg6
I1489
sg7
I1492
sa(dp40
g3
I0
sg4
VMinnesota
p41
sg6
I1532
sg7
I1540
sa(dp42
g3
I0
sg4
VHazelden
p43
sg6
I1572
sg7
I1579
sa(dp44
g3
I0
sg4
VBetty
p45
sg6
I1581
sg7
I1585
sa(dp46
g3
I0
sg4
VFord
p47
sg6
I1587
sg7
I1590
sa(dp48
g3
I0
sg4
VFoundation
p49
sg6
I1592
sg7
I1601
sa(dp50
g3
I0
sg4
VBlue
p51
sg6
I1725
sg7
I1728
sa(dp52
g3
I0
sg4
VCross
p53
sg6
I1730
sg7
I1734
sa(dp54
g3
I0
sg4
VBlue
p55
sg6
I1736
sg7
I1739
sa(dp56
g3
I0
sg4
VShield
p57
sg6
I1741
sg7
I1746
sa(dp58
g3
I0
sg4
VHaven
p59
sg6
I1808
sg7
I1812
sa(dp60
g3
I0
sg4
VDrexel
p61
sg6
I1817
sg7
I1822
sa(dp62
g3
I0
sg4
VHaven
p63
sg6
I1856
sg7
I1860
sa(dp64
g3
I0
sg4
VSouthern
p65
sg6
I1935
sg7
I1942
sa(dp66
g3
I0
sg4
VCalifornia
p67
sg6
I1944
sg7
I1953
sa(dp68
g3
I1
sg4
VCalifornia
p69
sg6
I2044
sg7
I2053
sa(dp70
g3
I0
sg4
VDrexel
p71
sg6
I2079
sg7
I2084
sasI2
(lp72
(dp73
g3
I0
sg4
VWest Baltimore.
p74
sg6
I623
sg7
I637
sa(dp75
g3
I0
sg4
VU. N.C.
p76
sg6
I830
sg7
I836
sa(dp77
g3
I0
sg4
VDurham Bulls
p78
sg6
I922
sg7
I933
sa(dp79
g3
I0
sg4
VHazelden Betty
p80
sg6
I1572
sg7
I1585
sa(dp81
g3
I0
sg4
VBetty Ford
p82
sg6
I1581
sg7
I1590
sa(dp83
g3
I0
sg4
VFord Foundation
p84
sg6
I1587
sg7
I1601
sa(dp85
g3
I0
sg4
VBlue Cross
p86
sg6
I1725
sg7
I1734
sa(dp87
g3
I0
sg4
VCross Blue
p88
sg6
I1730
sg7
I1739
sa(dp89
g3
I0
sg4
VBlue Shield
p90
sg6
I1736
sg7
I1746
sa(dp91
g3
I0
sg4
VSouthern California
p92
sg6
I1935
sg7
I1953
sasI3
(lp93
(dp94
g3
I0
sg4
VHazelden Betty Ford
p95
sg6
I1572
sg7
I1590
sa(dp96
g3
I0
sg4
VBetty Ford Foundation
p97
sg6
I1581
sg7
I1601
sa(dp98
g3
I0
sg4
VCross Blue Shield
p99
sg6
I1730
sg7
I1746
sa(dp100
g3
I0
sg4
VUniversity of Southern
p101
sg6
I1921
sg7
I1942
sasI4
(lp102
(dp103
g3
I0
sg4
VHazelden Betty Ford Foundation
p104
sg6
I1572
sg7
I1601
sa(dp105
g3
I1
sg4
VUniversity of Southern California
p106
sg6
I1921
sg7
I1953
sasI5
(lp107
sI6
(lp108
s.