(dp0
I1
(lp1
(dp2
S'label'
p3
I0
sS'string'
p4
VHaven
p5
sS'start_index'
p6
I210
sS'end_index'
p7
I214
sa(dp8
g3
I0
sg4
VHolly
p9
sg6
I567
sg7
I571
sa(dp10
g3
I0
sg4
VSherman
p11
sg6
I573
sg7
I579
sa(dp12
g3
I0
sg4
VSherman
p13
sg6
I776
sg7
I782
sa(dp14
g3
I0
sg4
VMatthew
p15
sg6
I966
sg7
I972
sa(dp16
g3
I0
sg4
VAlbright
p17
sg6
I1061
sg7
I1068
sa(dp18
g3
I0
sg4
VReading
p19
sg6
I1081
sg7
I1087
sa(dp20
g3
I0
sg4
VPa.
p21
sg6
I1089
sg7
I1091
sa(dp22
g3
I0
sg4
VFortune
p23
sg6
I1197
sg7
I1203
sa(dp24
g3
I0
sg4
VPerc
p25
sg6
I1450
sg7
I1453
sa(dp26
g3
I0
sg4
VCatholic
p27
sg6
I1537
sg7
I1544
sa(dp28
g3
I0
sg4
VPhiladelphia
p29
sg6
I1559
sg7
I1570
sa(dp30
g3
I0
sg4
VLet
p31
sg6
I1617
sg7
I1619
sa(dp32
g3
I0
sg4
VAccounting
p33
sg6
I1921
sg7
I1930
sasI2
(lp34
(dp35
g3
I0
sg4
VHolly Sherman
p36
sg6
I567
sg7
I579
sa(dp37
g3
I1
sg4
VAlbright College
p38
sg6
I1061
sg7
I1076
sa(dp39
g3
I0
sg4
VReading Pa.
p40
sg6
I1081
sg7
I1091
sasI3
(lp41
sI4
(lp42
sI5
(lp43
sI6
(lp44
s.