(dp0
I1
(lp1
(dp2
S'label'
p3
I0
sS'string'
p4
VMoyne
p5
sS'start_index'
p6
I3
sS'end_index'
p7
I7
sa(dp8
g3
I0
sg4
VLinda
p9
sg6
I29
sg7
I33
sa(dp10
g3
I0
sg4
VLeMura
p11
sg6
I38
sg7
I43
sa(dp12
g3
I0
sg4
VLuke
p13
sg6
I66
sg7
I69
sa(dp14
g3
I0
sg4
VAlberts
p15
sg6
I71
sg7
I77
sa(dp16
g3
I0
sg4
VDominic
p17
sg6
I88
sg7
I94
sa(dp18
g3
I0
sg4
VAmin
p19
sg6
I96
sg7
I99
sa(dp20
g3
I0
sg4
VRoberts
p21
sg6
I250
sg7
I256
sa(dp22
g3
I0
sg4
VWesleyan
p23
sg6
I258
sg7
I265
sa(dp24
g3
I0
sg4
VRochester
p25
sg6
I270
sg7
I278
sa(dp26
g3
I0
sg4
VPace
p27
sg6
I303
sg7
I306
sa(dp28
g3
I0
sg4
VNew
p29
sg6
I322
sg7
I324
sa(dp30
g3
I0
sg4
VYork
p31
sg6
I326
sg7
I329
sa(dp32
g3
I0
sg4
VCity
p33
sg6
I331
sg7
I334
sa(dp34
g3
I0
sg4
VWestchester
p35
sg6
I340
sg7
I350
sa(dp36
g3
I1
sg4
VHartwick
p37
sg6
I455
sg7
I462
sa(dp38
g3
I0
sg4
VMargaret
p39
sg6
I464
sg7
I471
sa(dp40
g3
I0
sg4
VDrugovich
p41
sg6
I476
sg7
I484
sa(dp42
g3
I0
sg4
VHartwick
p43
sg6
I620
sg7
I627
sa(dp44
g3
I0
sg4
VExcelsior
p45
sg6
I813
sg7
I821
sa(dp46
g3
I0
sg4
VKaren
p47
sg6
I1003
sg7
I1007
sa(dp48
g3
I0
sg4
VMcGrath
p49
sg6
I1012
sg7
I1018
sasI2
(lp50
(dp51
g3
I0
sg4
VLe Moyne
p52
sg6
I0
sg7
I7
sa(dp53
g3
I0
sg4
VMoyne College
p54
sg6
I3
sg7
I15
sa(dp55
g3
I0
sg4
VLinda M.
p56
sg6
I29
sg7
I36
sa(dp57
g3
I0
sg4
VM. LeMura
p58
sg6
I35
sg7
I43
sa(dp59
g3
I0
sg4
VLuke Alberts
p60
sg6
I66
sg7
I77
sa(dp61
g3
I0
sg4
VDominic Amin
p62
sg6
I88
sg7
I99
sa(dp63
g3
I1
sg4
VRoberts Wesleyan
p64
sg6
I250
sg7
I265
sa(dp65
g3
I1
sg4
VPace University
p66
sg6
I303
sg7
I317
sa(dp67
g3
I0
sg4
VNew York
p68
sg6
I322
sg7
I329
sa(dp69
g3
I0
sg4
VYork City
p70
sg6
I326
sg7
I334
sa(dp71
g3
I0
sg4
VHartwick Margaret
p72
sg6
I455
sg7
I471
sa(dp73
g3
I0
sg4
VMargaret L.
p74
sg6
I464
sg7
I474
sa(dp75
g3
I0
sg4
VL. Drugovich
p76
sg6
I473
sg7
I484
sa(dp77
g3
I1
sg4
VHartwick College
p78
sg6
I620
sg7
I635
sa(dp79
g3
I0
sg4
VKaren P.
p80
sg6
I1003
sg7
I1010
sa(dp81
g3
I0
sg4
VP. McGrath
p82
sg6
I1009
sg7
I1018
sasI3
(lp83
(dp84
g3
I1
sg4
VLe Moyne College
p85
sg6
I0
sg7
I15
sa(dp86
g3
I0
sg4
VLinda M. LeMura
p87
sg6
I29
sg7
I43
sa(dp88
g3
I0
sg4
VNew York City
p89
sg6
I322
sg7
I334
sa(dp90
g3
I0
sg4
VCity and Westchester
p91
sg6
I331
sg7
I350
sa(dp92
g3
I0
sg4
VHartwick Margaret L.
p93
sg6
I455
sg7
I474
sa(dp94
g3
I0
sg4
VMargaret L. Drugovich
p95
sg6
I464
sg7
I484
sa(dp96
g3
I0
sg4
VKaren P. McGrath
p97
sg6
I1003
sg7
I1018
sasI4
(lp98
(dp99
g3
I0
sg4
VYork City and Westchester
p100
sg6
I326
sg7
I350
sa(dp101
g3
I0
sg4
VHartwick Margaret L. Drugovich
p102
sg6
I455
sg7
I484
sasI5
(lp103
(dp104
g3
I0
sg4
VNew York City and Westchester
p105
sg6
I322
sg7
I350
sasI6
(lp106
s.