(dp0
I1
(lp1
(dp2
S'label'
p3
I0
sS'string'
p4
VPatrick
p5
sS'start_index'
p6
I0
sS'end_index'
p7
I6
sa(dp8
g3
I0
sg4
VFitzgerald
p9
sg6
I8
sg7
I17
sa(dp10
g3
I0
sg4
VNassar
p11
sg6
I56
sg7
I61
sa(dp12
g3
I0
sg4
VMichigan
p13
sg6
I71
sg7
I78
sa(dp14
g3
I0
sg4
VState
p15
sg6
I80
sg7
I84
sa(dp16
g3
I0
sg4
VFitzgerald
p17
sg6
I99
sg7
I108
sa(dp18
g3
I0
sg4
VJoel
p19
sg6
I212
sg7
I215
sa(dp20
g3
I0
sg4
VFerguson
p21
sg6
I220
sg7
I227
sa(dp22
g3
I0
sg4
VMichigan
p23
sg6
I231
sg7
I238
sa(dp24
g3
I0
sg4
VState
p25
sg6
I240
sg7
I244
sa(dp26
g3
I0
sg4
VFitzgerald
p27
sg6
I291
sg7
I300
sa(dp28
g3
I0
sg4
VBrian
p29
sg6
I402
sg7
I406
sa(dp30
g3
I0
sg4
VBreslin
p31
sg6
I408
sg7
I414
sa(dp32
g3
I0
sg4
VFitzgerald
p33
sg6
I495
sg7
I504
sasI2
(lp34
(dp35
g3
I0
sg4
VPatrick Fitzgerald
p36
sg6
I0
sg7
I17
sa(dp37
g3
I1
sg4
VMichigan State
p38
sg6
I71
sg7
I84
sa(dp39
g3
I0
sg4
VJoel I.
p40
sg6
I212
sg7
I218
sa(dp41
g3
I0
sg4
VI. Ferguson
p42
sg6
I217
sg7
I227
sa(dp43
g3
I1
sg4
VMichigan State
p44
sg6
I231
sg7
I244
sa(dp45
g3
I0
sg4
VBrian Breslin
p46
sg6
I402
sg7
I414
sasI3
(lp47
(dp48
g3
I0
sg4
VJoel I. Ferguson
p49
sg6
I212
sg7
I227
sasI4
(lp50
sI5
(lp51
sI6
(lp52
s.