(dp0
I1
(lp1
(dp2
S'label'
p3
I0
sS'string'
p4
VAlbright
p5
sS'start_index'
p6
I23
sS'end_index'
p7
I30
sa(dp8
g3
I0
sg4
VPercocet.
p9
sg6
I85
sg7
I93
sa(dp10
g3
I0
sg4
VLast
p11
sg6
I95
sg7
I98
sa(dp12
g3
I0
sg4
VFlorida.
p13
sg6
I170
sg7
I177
sasI2
(lp14
(dp15
g3
I1
sg4
VAlbright College
p16
sg6
I23
sg7
I38
sasI3
(lp17
sI4
(lp18
sI5
(lp19
sI6
(lp20
s.