(dp0
I1
(lp1
(dp2
S'label'
p3
I0
sS'string'
p4
VEnglish
p5
sS'start_index'
p6
I106
sS'end_index'
p7
I112
sa(dp8
g3
I0
sg4
VAmerica
p9
sg6
I233
sg7
I239
sa(dp10
g3
I0
sg4
VAmericans
p11
sg6
I255
sg7
I263
sa(dp12
g3
I0
sg4
VYears
p13
sg6
I478
sg7
I482
sa(dp14
g3
I0
sg4
VLos
p15
sg6
I531
sg7
I533
sa(dp16
g3
I0
sg4
VAngeles
p17
sg6
I535
sg7
I541
sa(dp18
g3
I0
sg4
VThanksgiving
p19
sg6
I686
sg7
I697
sa(dp20
g3
I1
sg4
VCornell
p21
sg6
I799
sg7
I805
sa(dp22
g3
I0
sg4
VThanksgiving
p23
sg6
I1135
sg7
I1146
sa(dp24
g3
I0
sg4
VNebraska
p25
sg6
I1304
sg7
I1311
sa(dp26
g3
I0
sg4
VLincoln.
p27
sg6
I1316
sg7
I1323
sa(dp28
g3
I0
sg4
VThanksgiving.
p29
sg6
I1439
sg7
I1451
sa(dp30
g3
I0
sg4
VThanksgiving
p31
sg6
I1944
sg7
I1955
sa(dp32
g3
I0
sg4
VDuluth
p33
sg6
I2081
sg7
I2086
sa(dp34
g3
I0
sg4
VMinn.
p35
sg6
I2088
sg7
I2092
sa(dp36
g3
I0
sg4
VThanksgiving
p37
sg6
I2103
sg7
I2114
sa(dp38
g3
I0
sg4
VAmericans
p39
sg6
I2127
sg7
I2135
sa(dp40
g3
I0
sg4
VSan
p41
sg6
I2182
sg7
I2184
sa(dp42
g3
I0
sg4
VFrancisco
p43
sg6
I2186
sg7
I2194
sa(dp44
g3
I0
sg4
VChampaign
p45
sg6
I2311
sg7
I2319
sa(dp46
g3
I0
sg4
VIll.
p47
sg6
I2321
sg7
I2324
sa(dp48
g3
I0
sg4
VBollywood
p49
sg6
I2413
sg7
I2421
sa(dp50
g3
I0
sg4
VLagaan
p51
sg6
I2436
sg7
I2441
sa(dp52
g3
I0
sg4
V.This
p53
sg6
I2443
sg7
I2447
sa(dp54
g3
I0
sg4
VLincoln.
p55
sg6
I2497
sg7
I2504
sa(dp56
g3
I0
sg4
VIowa
p57
sg6
I2568
sg7
I2571
sa(dp58
g3
I0
sg4
VNebraskans
p59
sg6
I2627
sg7
I2636
sa(dp60
g3
I0
sg4
VTupperware.
p61
sg6
I2981
sg7
I2991
sasI2
(lp62
(dp63
g3
I0
sg4
VLos Angeles
p64
sg6
I531
sg7
I541
sa(dp65
g3
I0
sg4
VDuluth Minn.
p66
sg6
I2081
sg7
I2092
sa(dp67
g3
I0
sg4
VSan Francisco
p68
sg6
I2182
sg7
I2194
sa(dp69
g3
I0
sg4
VChampaign Ill.
p70
sg6
I2311
sg7
I2324
sa(dp71
g3
I0
sg4
VLagaan .This
p72
sg6
I2436
sg7
I2447
sasI3
(lp73
(dp74
g3
I1
sg4
VUniversity of Nebraska
p75
sg6
I1290
sg7
I1311
sasI4
(lp76
sI5
(lp77
sI6
(lp78
s.