(dp0
I1
(lp1
(dp2
S'label'
p3
I0
sS'string'
p4
VTrump
p5
sS'start_index'
p6
I272
sS'end_index'
p7
I276
sa(dp8
g3
I0
sg4
VColorado
p9
sg6
I450
sg7
I457
sa(dp10
g3
I0
sg4
VBoulder
p11
sg6
I459
sg7
I465
sa(dp12
g3
I0
sg4
VJonathan
p13
sg6
I620
sg7
I627
sa(dp14
g3
I0
sg4
VHaidt
p15
sg6
I629
sg7
I633
sa(dp16
g3
I0
sg4
VNew
p17
sg6
I678
sg7
I680
sa(dp18
g3
I0
sg4
VYork
p19
sg6
I682
sg7
I685
sa(dp20
g3
I0
sg4
VHeterodox
p21
sg6
I718
sg7
I726
sa(dp22
g3
I0
sg4
VAcademy
p23
sg6
I728
sg7
I734
sa(dp24
g3
I0
sg4
VRepublican
p25
sg6
I1226
sg7
I1235
sa(dp26
g3
I0
sg4
VTrump
p27
sg6
I1252
sg7
I1256
sa(dp28
g3
I0
sg4
VUnderstanding
p29
sg6
I1467
sg7
I1479
sa(dp30
g3
I0
sg4
VNov.
p31
sg6
I1498
sg7
I1501
sasI2
(lp32
(dp33
g3
I0
sg4
VColorado Boulder
p34
sg6
I450
sg7
I465
sa(dp35
g3
I0
sg4
VJonathan Haidt
p36
sg6
I620
sg7
I633
sa(dp37
g3
I0
sg4
VNew York
p38
sg6
I678
sg7
I685
sa(dp39
g3
I0
sg4
VYork University
p40
sg6
I682
sg7
I696
sa(dp41
g3
I0
sg4
VHeterodox Academy
p42
sg6
I718
sg7
I734
sasI3
(lp43
(dp44
g3
I0
sg4
VUniversity of Colorado
p45
sg6
I436
sg7
I457
sa(dp46
g3
I1
sg4
VNew York University
p47
sg6
I678
sg7
I696
sasI4
(lp48
(dp49
g3
I1
sg4
VUniversity of Colorado Boulder
p50
sg6
I436
sg7
I465
sasI5
(lp51
sI6
(lp52
s.