(dp0
I1
(lp1
(dp2
S'label'
p3
I0
sS'string'
p4
VTrump
p5
sS'start_index'
p6
I44
sS'end_index'
p7
I48
sa(dp8
g3
I0
sg4
VJean
p9
sg6
I171
sg7
I174
sa(dp10
g3
I0
sg4
VYarbrough
p11
sg6
I176
sg7
I184
sa(dp12
g3
I0
sg4
VBowdoin
p13
sg6
I235
sg7
I241
sa(dp14
g3
I0
sg4
VAmerica.
p15
sg6
I408
sg7
I415
sa(dp16
g3
I0
sg4
VHigher
p17
sg6
I484
sg7
I489
sa(dp18
g3
I1
sg4
VYale
p19
sg6
I630
sg7
I633
sa(dp20
g3
I1
sg4
VBrown
p21
sg6
I639
sg7
I643
sasI2
(lp22
(dp23
g3
I0
sg4
VJean Yarbrough
p24
sg6
I171
sg7
I184
sa(dp25
g3
I1
sg4
VBowdoin College
p26
sg6
I235
sg7
I249
sa(dp27
g3
I0
sg4
VHigher Ed
p28
sg6
I484
sg7
I492
sasI3
(lp29
(dp30
g3
I0
sg4
VYale and Brown
p31
sg6
I630
sg7
I643
sasI4
(lp32
sI5
(lp33
sI6
(lp34
s.