(dp0
I1
(lp1
(dp2
S'label'
p3
I0
sS'string'
p4
VLynn
p5
sS'start_index'
p6
I0
sS'end_index'
p7
I3
sa(dp8
g3
I0
sg4
VMorton
p9
sg6
I5
sg7
I10
sa(dp10
g3
I0
sg4
VWarren
p11
sg6
I29
sg7
I34
sa(dp12
g3
I0
sg4
VWilson
p13
sg6
I36
sg7
I41
sa(dp14
g3
I0
sg4
VMichael
p15
sg6
I183
sg7
I189
sa(dp16
g3
I0
sg4
VRoth
p17
sg6
I191
sg7
I194
sa(dp18
g3
I0
sg4
VWesleyan
p19
sg6
I213
sg7
I220
sa(dp20
g3
I0
sg4
VWall
p21
sg6
I246
sg7
I249
sa(dp22
g3
I0
sg4
VStreet
p23
sg6
I251
sg7
I256
sa(dp24
g3
I0
sg4
VJournal
p25
sg6
I258
sg7
I264
sa(dp26
g3
I1
sg4
VWesleyan
p27
sg6
I552
sg7
I559
sa(dp28
g3
I0
sg4
VAmericans
p29
sg6
I961
sg7
I969
sa(dp30
g3
I0
sg4
VHillbilly
p31
sg6
I1083
sg7
I1091
sa(dp32
g3
I0
sg4
VElegy
p33
sg6
I1093
sg7
I1097
sa(dp34
g3
I0
sg4
V.Hence
p35
sg6
I1178
sg7
I1183
sa(dp36
g3
I0
sg4
VHigher
p37
sg6
I1196
sg7
I1201
sa(dp38
g3
I0
sg4
VTrump
p39
sg6
I1329
sg7
I1333
sa(dp40
g3
I0
sg4
VAffluent
p41
sg6
I1584
sg7
I1591
sa(dp42
g3
I0
sg4
VBrooklyn
p43
sg6
I1608
sg7
I1615
sa(dp44
g3
I0
sg4
VHeights
p45
sg6
I1617
sg7
I1623
sa(dp46
g3
I0
sg4
VBrookline
p47
sg6
I1625
sg7
I1633
sa(dp48
g3
I0
sg4
VBethesda
p49
sg6
I1639
sg7
I1646
sa(dp50
g3
I0
sg4
VAfghanistan
p51
sg6
I1729
sg7
I1739
sa(dp52
g3
I0
sg4
VTrump.
p53
sg6
I1780
sg7
I1785
sa(dp54
g3
I1
sg4
VBowdoin
p55
sg6
I1787
sg7
I1793
sa(dp56
g3
I0
sg4
VYarbrough
p57
sg6
I1797
sg7
I1805
sa(dp58
g3
I0
sg4
VJohns
p59
sg6
I2188
sg7
I2192
sa(dp60
g3
I0
sg4
VHopkins
p61
sg6
I2194
sg7
I2200
sa(dp62
g3
I0
sg4
VNorth
p63
sg6
I2374
sg7
I2378
sa(dp64
g3
I0
sg4
VCarolina
p65
sg6
I2380
sg7
I2387
sa(dp66
g3
I0
sg4
VChapel
p67
sg6
I2392
sg7
I2397
sa(dp68
g3
I0
sg4
VHill
p69
sg6
I2399
sg7
I2402
sa(dp70
g3
I0
sg4
VPublic
p71
sg6
I2465
sg7
I2470
sa(dp72
g3
I0
sg4
VN.C.
p73
sg6
I2488
sg7
I2491
sa(dp74
g3
I0
sg4
VJaschik
p75
sg6
I2602
sg7
I2608
sa(dp76
g3
I0
sg4
VJoe
p77
sg6
I2626
sg7
I2628
sa(dp78
g3
I0
sg4
VTaxpayer
p79
sg6
I2630
sg7
I2637
sa(dp80
g3
I0
sg4
VRaleigh
p81
sg6
I2642
sg7
I2648
sa(dp82
g3
I0
sg4
VChapel
p83
sg6
I2677
sg7
I2682
sa(dp84
g3
I0
sg4
VHill
p85
sg6
I2684
sg7
I2687
sa(dp86
g3
I0
sg4
VIndeed
p87
sg6
I2689
sg7
I2694
sa(dp88
g3
I0
sg4
VPew
p89
sg6
I2792
sg7
I2794
sa(dp90
g3
I0
sg4
VResearch
p91
sg6
I2796
sg7
I2803
sa(dp92
g3
I0
sg4
VCenter
p93
sg6
I2805
sg7
I2810
sa(dp94
g3
I0
sg4
VRepublicans
p95
sg6
I2863
sg7
I2873
sa(dp96
g3
I0
sg4
VAmerica.
p97
sg6
I2965
sg7
I2972
sasI2
(lp98
(dp99
g3
I0
sg4
VLynn Morton
p100
sg6
I0
sg7
I10
sa(dp101
g3
I0
sg4
VWarren Wilson
p102
sg6
I29
sg7
I41
sa(dp103
g3
I0
sg4
VWilson College
p104
sg6
I36
sg7
I49
sa(dp105
g3
I0
sg4
VMichael Roth
p106
sg6
I183
sg7
I194
sa(dp107
g3
I1
sg4
VWesleyan University
p108
sg6
I213
sg7
I231
sa(dp109
g3
I0
sg4
VWall Street
p110
sg6
I246
sg7
I256
sa(dp111
g3
I0
sg4
VStreet Journal
p112
sg6
I251
sg7
I264
sa(dp113
g3
I0
sg4
VHillbilly Elegy
p114
sg6
I1083
sg7
I1097
sa(dp115
g3
I0
sg4
VHigher Ed
p116
sg6
I1196
sg7
I1204
sa(dp117
g3
I0
sg4
VBrooklyn Heights
p118
sg6
I1608
sg7
I1623
sa(dp119
g3
I0
sg4
VHeights Brookline
p120
sg6
I1617
sg7
I1633
sa(dp121
g3
I0
sg4
VJohns Hopkins
p122
sg6
I2188
sg7
I2200
sa(dp123
g3
I0
sg4
VHopkins University
p124
sg6
I2194
sg7
I2211
sa(dp125
g3
I0
sg4
VNorth Carolina
p126
sg6
I2374
sg7
I2387
sa(dp127
g3
I0
sg4
VChapel Hill
p128
sg6
I2392
sg7
I2402
sa(dp129
g3
I0
sg4
VU. N.C.
p130
sg6
I2485
sg7
I2491
sa(dp131
g3
I0
sg4
VJoe Taxpayer
p132
sg6
I2626
sg7
I2637
sa(dp133
g3
I0
sg4
VChapel Hill
p134
sg6
I2677
sg7
I2687
sa(dp135
g3
I0
sg4
VHill Indeed
p136
sg6
I2684
sg7
I2694
sa(dp137
g3
I0
sg4
VPew Research
p138
sg6
I2792
sg7
I2803
sa(dp139
g3
I0
sg4
VResearch Center
p140
sg6
I2796
sg7
I2810
sasI3
(lp141
(dp142
g3
I1
sg4
VWarren Wilson College
p143
sg6
I29
sg7
I49
sa(dp144
g3
I0
sg4
VWall Street Journal
p145
sg6
I246
sg7
I264
sa(dp146
g3
I0
sg4
VBrooklyn Heights Brookline
p147
sg6
I1608
sg7
I1633
sa(dp148
g3
I0
sg4
VBrookline and Bethesda
p149
sg6
I1625
sg7
I1646
sa(dp150
g3
I1
sg4
VJohns Hopkins University
p151
sg6
I2188
sg7
I2211
sa(dp152
g3
I0
sg4
VUniversity of North
p153
sg6
I2360
sg7
I2378
sa(dp154
g3
I0
sg4
VChapel Hill Indeed
p155
sg6
I2677
sg7
I2694
sa(dp156
g3
I0
sg4
VPew Research Center
p157
sg6
I2792
sg7
I2810
sasI4
(lp158
(dp159
g3
I0
sg4
VHeights Brookline and Bethesda
p160
sg6
I1617
sg7
I1646
sa(dp161
g3
I1
sg4
VUniversity of North Carolina
p162
sg6
I2360
sg7
I2387
sasI5
(lp163
(dp164
g3
I0
sg4
VBrooklyn Heights Brookline and Bethesda
p165
sg6
I1608
sg7
I1646
sasI6
(lp166
s.