(dp0
I1
(lp1
(dp2
S'label'
p3
I0
sS'string'
p4
VPerhaps
p5
sS'start_index'
p6
I0
sS'end_index'
p7
I6
sa(dp8
g3
I0
sg4
VBetsy
p9
sg6
I29
sg7
I33
sa(dp10
g3
I0
sg4
VDeVos
p11
sg6
I35
sg7
I39
sa(dp12
g3
I0
sg4
VHalloween
p13
sg6
I98
sg7
I106
sa(dp14
g3
I0
sg4
VDeVos
p15
sg6
I153
sg7
I157
sa(dp16
g3
I0
sg4
VRepublican
p17
sg6
I176
sg7
I185
sa(dp18
g3
I0
sg4
VMichigan
p19
sg6
I235
sg7
I242
sa(dp20
g3
I0
sg4
VTrump
p21
sg6
I326
sg7
I330
sa(dp22
g3
I0
sg4
VSenator
p23
sg6
I523
sg7
I529
sa(dp24
g3
I0
sg4
VPatty
p25
sg6
I531
sg7
I535
sa(dp26
g3
I0
sg4
VMurray
p27
sg6
I537
sg7
I542
sa(dp28
g3
I0
sg4
VWashington
p29
sg6
I547
sg7
I556
sa(dp30
g3
I0
sg4
VMurray
p31
sg6
I666
sg7
I671
sa(dp32
g3
I0
sg4
VDemocrat
p33
sg6
I684
sg7
I691
sa(dp34
g3
I0
sg4
VHealth
p35
sg6
I700
sg7
I705
sa(dp36
g3
I0
sg4
VEducation
p37
sg6
I707
sg7
I715
sa(dp38
g3
I0
sg4
VLabor
p39
sg6
I717
sg7
I721
sa(dp40
g3
I0
sg4
VPensions
p41
sg6
I727
sg7
I734
sa(dp42
g3
I0
sg4
VCommittee
p43
sg6
I736
sg7
I744
sa(dp44
g3
I0
sg4
VHELP.
p45
sg6
I765
sg7
I769
sa(dp46
g3
I0
sg4
VDeVos
p47
sg6
I920
sg7
I924
sa(dp48
g3
I0
sg4
VJulian
p49
sg6
I933
sg7
I938
sa(dp50
g3
I0
sg4
VSchmoke
p51
sg6
I940
sg7
I946
sa(dp52
g3
I0
sg4
VSpecifically
p53
sg6
I1012
sg7
I1023
sa(dp54
g3
I1
sg4
VDeVry.
p55
sg6
I1040
sg7
I1045
sa(dp56
g3
I0
sg4
VLast
p57
sg6
I1047
sg7
I1050
sa(dp58
g3
I0
sg4
VFederal
p59
sg6
I1099
sg7
I1105
sa(dp60
g3
I0
sg4
VTrade
p61
sg6
I1107
sg7
I1111
sa(dp62
g3
I0
sg4
VCommission
p63
sg6
I1113
sg7
I1122
sa(dp64
g3
I1
sg4
VDeVry
p65
sg6
I1124
sg7
I1128
sasI2
(lp66
(dp67
g3
I0
sg4
VBetsy DeVos
p68
sg6
I29
sg7
I39
sa(dp69
g3
I0
sg4
VSenator Patty
p70
sg6
I523
sg7
I535
sa(dp71
g3
I0
sg4
VPatty Murray
p72
sg6
I531
sg7
I542
sa(dp73
g3
I0
sg4
VHealth Education
p74
sg6
I700
sg7
I715
sa(dp75
g3
I0
sg4
VEducation Labor
p76
sg6
I707
sg7
I721
sa(dp77
g3
I0
sg4
VPensions Committee
p78
sg6
I727
sg7
I744
sa(dp79
g3
I0
sg4
VJulian Schmoke
p80
sg6
I933
sg7
I946
sa(dp81
g3
I0
sg4
VFederal Trade
p82
sg6
I1099
sg7
I1111
sa(dp83
g3
I0
sg4
VTrade Commission
p84
sg6
I1107
sg7
I1122
sa(dp85
g3
I0
sg4
VCommission DeVry
p86
sg6
I1113
sg7
I1128
sasI3
(lp87
(dp88
g3
I0
sg4
VSenator Patty Murray
p89
sg6
I523
sg7
I542
sa(dp90
g3
I0
sg4
VMurray of Washington
p91
sg6
I537
sg7
I556
sa(dp92
g3
I0
sg4
VHealth Education Labor
p93
sg6
I700
sg7
I721
sa(dp94
g3
I0
sg4
VLabor and Pensions
p95
sg6
I717
sg7
I734
sa(dp96
g3
I0
sg4
VFederal Trade Commission
p97
sg6
I1099
sg7
I1122
sa(dp98
g3
I0
sg4
VTrade Commission DeVry
p99
sg6
I1107
sg7
I1128
sasI4
(lp100
(dp101
g3
I0
sg4
VPatty Murray of Washington
p102
sg6
I531
sg7
I556
sa(dp103
g3
I0
sg4
VEducation Labor and Pensions
p104
sg6
I707
sg7
I734
sa(dp105
g3
I0
sg4
VLabor and Pensions Committee
p106
sg6
I717
sg7
I744
sa(dp107
g3
I0
sg4
VFederal Trade Commission DeVry
p108
sg6
I1099
sg7
I1128
sasI5
(lp109
(dp110
g3
I0
sg4
VSenator Patty Murray of Washington
p111
sg6
I523
sg7
I556
sa(dp112
g3
I0
sg4
VHealth Education Labor and Pensions
p113
sg6
I700
sg7
I734
sa(dp114
g3
I0
sg4
VEducation Labor and Pensions Committee
p115
sg6
I707
sg7
I744
sasI6
(lp116
(dp117
g3
I0
sg4
VHealth Education Labor and Pensions Committee
p118
sg6
I700
sg7
I744
sas.