(dp0
I1
(lp1
(dp2
S'label'
p3
I0
sS'string'
p4
VBack
p5
sS'start_index'
p6
I0
sS'end_index'
p7
I3
sa(dp8
g3
I0
sg4
VDepartment
p9
sg6
I12
sg7
I21
sa(dp10
g3
I0
sg4
VEducation.
p11
sg6
I26
sg7
I35
sa(dp12
g3
I0
sg4
VDeVos
p13
sg6
I44
sg7
I48
sa(dp14
g3
I0
sg4
VRobert
p15
sg6
I65
sg7
I70
sa(dp16
g3
I0
sg4
VEitel
p17
sg6
I72
sg7
I76
sa(dp18
g3
I0
sg4
VBrown
p19
sg6
I748
sg7
I752
sa(dp20
g3
I0
sg4
VBerkeley
p21
sg6
I762
sg7
I769
sa(dp22
g3
I0
sg4
VColumbia
p23
sg6
I779
sg7
I786
sa(dp24
g3
I0
sg4
VSouthern
p25
sg6
I788
sg7
I795
sa(dp26
g3
I0
sg4
VNorthwestern
p27
sg6
I811
sg7
I822
sa(dp28
g3
I0
sg4
VCollege.
p29
sg6
I824
sg7
I831
sa(dp30
g3
I0
sg4
VExperts
p31
sg6
I833
sg7
I839
sa(dp32
g3
I0
sg4
VHowever
p33
sg6
I872
sg7
I878
sasI2
(lp34
(dp35
g3
I0
sg4
VRobert Eitel
p36
sg6
I65
sg7
I76
sa(dp37
g3
I1
sg4
VBrown College
p38
sg6
I748
sg7
I760
sa(dp39
g3
I0
sg4
VCollege Berkeley
p40
sg6
I754
sg7
I769
sa(dp41
g3
I1
sg4
VBerkeley College
p42
sg6
I762
sg7
I777
sa(dp43
g3
I0
sg4
VCollege Columbia
p44
sg6
I771
sg7
I786
sa(dp45
g3
I0
sg4
VColumbia Southern
p46
sg6
I779
sg7
I795
sa(dp47
g3
I0
sg4
VSouthern University
p48
sg6
I788
sg7
I806
sa(dp49
g3
I1
sg4
VNorthwestern College.
p50
sg6
I811
sg7
I831
sasI3
(lp51
(dp52
g3
I0
sg4
VDepartment of Education.
p53
sg6
I12
sg7
I35
sa(dp54
g3
I0
sg4
VBrown College Berkeley
p55
sg6
I748
sg7
I769
sa(dp56
g3
I0
sg4
VBerkeley College Columbia
p57
sg6
I762
sg7
I786
sa(dp58
g3
I0
sg4
VCollege Columbia Southern
p59
sg6
I771
sg7
I795
sa(dp60
g3
I1
sg4
VColumbia Southern University
p61
sg6
I779
sg7
I806
sasI4
(lp62
(dp63
g3
I0
sg4
VBerkeley College Columbia Southern
p64
sg6
I762
sg7
I795
sasI5
(lp65
sI6
(lp66
s.