(dp0
I1
(lp1
(dp2
S'label'
p3
I0
sS'string'
p4
VITT
p5
sS'start_index'
p6
I0
sS'end_index'
p7
I2
sa(dp8
g3
I0
sg4
VTechnical
p9
sg6
I4
sg7
I12
sa(dp10
g3
I0
sg4
VFlorida
p11
sg6
I27
sg7
I33
sa(dp12
g3
I0
sg4
VS.I.
p13
sg6
I110
sg7
I113
sa(dp14
g3
I0
sg4
VMiami.
p15
sg6
I115
sg7
I120
sa(dp16
g3
I0
sg4
VActually
p17
sg6
I122
sg7
I129
sa(dp18
g3
I0
sg4
VNew
p19
sg6
I290
sg7
I292
sa(dp20
g3
I0
sg4
VYork
p21
sg6
I294
sg7
I297
sa(dp22
g3
I0
sg4
VGold
p23
sg6
I326
sg7
I329
sa(dp24
g3
I0
sg4
VElite
p25
sg6
I331
sg7
I335
sa(dp26
g3
I0
sg4
VPackage
p27
sg6
I337
sg7
I343
sa(dp28
g3
I0
sg4
VEntrepreneur
p29
sg6
I375
sg7
I386
sa(dp30
g3
I0
sg4
VInitiative
p31
sg6
I388
sg7
I397
sa(dp32
g3
I0
sg4
VBen
p33
sg6
I546
sg7
I548
sa(dp34
g3
I0
sg4
VMiller
p35
sg6
I550
sg7
I555
sa(dp36
g3
I0
sg4
VCenter
p37
sg6
I564
sg7
I569
sa(dp38
g3
I0
sg4
VAmerican
p39
sg6
I575
sg7
I582
sa(dp40
g3
I0
sg4
VProgress.
p41
sg6
I584
sg7
I592
sasI2
(lp42
(dp43
g3
I0
sg4
VITT Technical
p44
sg6
I0
sg7
I12
sa(dp45
g3
I0
sg4
VTechnical Institute
p46
sg6
I4
sg7
I22
sa(dp47
g3
I0
sg4
VC. S.I.
p48
sg6
I107
sg7
I113
sa(dp49
g3
I0
sg4
VS.I. Miami.
p50
sg6
I110
sg7
I120
sa(dp51
g3
I0
sg4
VNew York
p52
sg6
I290
sg7
I297
sa(dp53
g3
I0
sg4
VGold Elite
p54
sg6
I326
sg7
I335
sa(dp55
g3
I0
sg4
VElite Package
p56
sg6
I331
sg7
I343
sa(dp57
g3
I0
sg4
VEntrepreneur Initiative
p58
sg6
I375
sg7
I397
sa(dp59
g3
I0
sg4
VBen Miller
p60
sg6
I546
sg7
I555
sa(dp61
g3
I0
sg4
VAmerican Progress.
p62
sg6
I575
sg7
I592
sasI3
(lp63
(dp64
g3
I1
sg4
VITT Technical Institute
p65
sg6
I0
sg7
I22
sa(dp66
g3
I0
sg4
VC. S.I. Miami.
p67
sg6
I107
sg7
I120
sa(dp68
g3
I0
sg4
VGold Elite Package
p69
sg6
I326
sg7
I343
sasI4
(lp70
sI5
(lp71
sI6
(lp72
s.