(dp0
I1
(lp1
(dp2
S'label'
p3
I0
sS'string'
p4
VObama
p5
sS'start_index'
p6
I55
sS'end_index'
p7
I59
sa(dp8
g3
I0
sg4
VDeVos
p9
sg6
I305
sg7
I309
sa(dp10
g3
I0
sg4
VInsiders
p11
sg6
I345
sg7
I352
sa(dp12
g3
I0
sg4
VHowever
p13
sg6
I408
sg7
I414
sa(dp14
g3
I0
sg4
VTrump
p15
sg6
I619
sg7
I623
sa(dp16
g3
I0
sg4
VUniversity.
p17
sg6
I625
sg7
I635
sa(dp18
g3
I0
sg4
VCynics
p19
sg6
I673
sg7
I678
sa(dp20
g3
I0
sg4
VDeVos
p21
sg6
I696
sg7
I700
sa(dp22
g3
I0
sg4
VPerhaps
p23
sg6
I987
sg7
I993
sa(dp24
g3
I0
sg4
VDeVos
p25
sg6
I1021
sg7
I1025
sa(dp26
g3
I0
sg4
VTrump
p27
sg6
I1066
sg7
I1070
sa(dp28
g3
I0
sg4
VDepartment
p29
sg6
I1150
sg7
I1159
sa(dp30
g3
I0
sg4
VEducation
p31
sg6
I1164
sg7
I1172
sa(dp32
g3
I0
sg4
VEvery
p33
sg6
I1272
sg7
I1276
sa(dp34
g3
I0
sg4
VTrump
p35
sg6
I1398
sg7
I1402
sa(dp36
g3
I0
sg4
VUniversity.
p37
sg6
I1404
sg7
I1414
sasI2
(lp38
(dp39
g3
I0
sg4
VO. K.
p40
sg6
I588
sg7
I592
sa(dp41
g3
I1
sg4
VTrump University.
p42
sg6
I619
sg7
I635
sa(dp43
g3
I1
sg4
VTrump University
p44
sg6
I1066
sg7
I1081
sa(dp45
g3
I1
sg4
VTrump University.
p46
sg6
I1398
sg7
I1414
sasI3
(lp47
(dp48
g3
I0
sg4
VDepartment of Education
p49
sg6
I1150
sg7
I1172
sasI4
(lp50
sI5
(lp51
sI6
(lp52
s.