(dp0
I1
(lp1
(dp2
S'label'
p3
I0
sS'string'
p4
VDeVos
p5
sS'start_index'
p6
I3
sS'end_index'
p7
I7
sa(dp8
g3
I0
sg4
VTrump
p9
sg6
I79
sg7
I83
sa(dp10
g3
I0
sg4
VDonald
p11
sg6
I136
sg7
I141
sa(dp12
g3
I0
sg4
VTrump
p13
sg6
I143
sg7
I147
sa(dp14
g3
I0
sg4
VConsider
p15
sg6
I211
sg7
I218
sasI2
(lp16
(dp17
g3
I1
sg4
VTrump University
p18
sg6
I79
sg7
I94
sa(dp19
g3
I0
sg4
VDonald Trump
p20
sg6
I136
sg7
I147
sasI3
(lp21
sI4
(lp22
sI5
(lp23
sI6
(lp24
s.