(dp0
I1
(lp1
(dp2
S'label'
p3
I0
sS'string'
p4
VAsked
p5
sS'start_index'
p6
I0
sS'end_index'
p7
I4
sa(dp8
g3
I0
sg4
VBreslin
p9
sg6
I110
sg7
I116
sa(dp10
g3
I0
sg4
VMichigan
p11
sg6
I142
sg7
I149
sa(dp12
g3
I0
sg4
VState
p13
sg6
I151
sg7
I155
sa(dp14
g3
I0
sg4
VFitzgerald
p15
sg6
I251
sg7
I260
sa(dp16
g3
I0
sg4
VUnited
p17
sg6
I273
sg7
I278
sa(dp18
g3
I0
sg4
VStates
p19
sg6
I280
sg7
I285
sa(dp20
g3
I0
sg4
VChicago
p21
sg6
I299
sg7
I305
sa(dp22
g3
I0
sg4
VDeclaring
p23
sg6
I383
sg7
I391
sa(dp24
g3
I0
sg4
VLincoln
p25
sg6
I424
sg7
I430
sa(dp26
g3
I0
sg4
VFitzgerald
p27
sg6
I459
sg7
I468
sa(dp28
g3
I0
sg4
VRod
p29
sg6
I497
sg7
I499
sa(dp30
g3
I0
sg4
VBlagojevich
p31
sg6
I504
sg7
I514
sa(dp32
g3
I0
sg4
VIllinois
p33
sg6
I553
sg7
I560
sa(dp34
g3
I0
sg4
VUnited
p35
sg6
I635
sg7
I640
sa(dp36
g3
I0
sg4
VStates
p37
sg6
I642
sg7
I647
sa(dp38
g3
I0
sg4
VSenate
p39
sg6
I649
sg7
I654
sa(dp40
g3
I0
sg4
VBarack
p41
sg6
I666
sg7
I671
sa(dp42
g3
I0
sg4
VObama
p43
sg6
I673
sg7
I677
sa(dp44
g3
I0
sg4
VFitzgerald
p45
sg6
I722
sg7
I731
sa(dp46
g3
I0
sg4
VLewis
p47
sg6
I807
sg7
I811
sa(dp48
g3
I0
sg4
VLibby
p49
sg6
I813
sg7
I817
sa(dp50
g3
I0
sg4
VVice
p51
sg6
I858
sg7
I861
sa(dp52
g3
I0
sg4
VPresident
p53
sg6
I863
sg7
I871
sa(dp54
g3
I0
sg4
VDick
p55
sg6
I873
sg7
I876
sa(dp56
g3
I0
sg4
VCheney.
p57
sg6
I878
sg7
I884
sa(dp58
g3
I0
sg4
VNew
p59
sg6
I941
sg7
I943
sa(dp60
g3
I0
sg4
VYork
p61
sg6
I945
sg7
I948
sa(dp62
g3
I0
sg4
VUnited
p63
sg6
I1030
sg7
I1035
sa(dp64
g3
I0
sg4
VStates
p65
sg6
I1037
sg7
I1042
sa(dp66
g3
I0
sg4
VKenya
p67
sg6
I1057
sg7
I1061
sa(dp68
g3
I0
sg4
VTanzania.
p69
sg6
I1067
sg7
I1075
sa(dp70
g3
I0
sg4
VSam
p71
sg6
I1144
sg7
I1146
sa(dp72
g3
I0
sg4
VAdam
p73
sg6
I1148
sg7
I1151
sa(dp74
g3
I0
sg4
VBlagojevich
p75
sg6
I1168
sg7
I1178
sa(dp76
g3
I0
sg4
VFitzgerald
p77
sg6
I1305
sg7
I1314
sa(dp78
g3
I0
sg4
VMichigan
p79
sg6
I1330
sg7
I1337
sa(dp80
g3
I0
sg4
VState
p81
sg6
I1339
sg7
I1343
sa(dp82
g3
I0
sg4
VMichigan
p83
sg6
I1383
sg7
I1390
sa(dp84
g3
I0
sg4
VState
p85
sg6
I1392
sg7
I1396
sa(dp86
g3
I0
sg4
VSkadden
p87
sg6
I1440
sg7
I1446
sa(dp88
g3
I0
sg4
VArps
p89
sg6
I1448
sg7
I1451
sa(dp90
g3
I0
sg4
VNassar
p91
sg6
I1495
sg7
I1500
sa(dp92
g3
I0
sg4
VNassar
p93
sg6
I1914
sg7
I1919
sa(dp94
g3
I0
sg4
VMichigan
p95
sg6
I1956
sg7
I1963
sa(dp96
g3
I0
sg4
VState
p97
sg6
I1965
sg7
I1969
sa(dp98
g3
I0
sg4
VFitzgerald
p99
sg6
I1989
sg7
I1998
sa(dp100
g3
I0
sg4
VABC
p101
sg6
I2048
sg7
I2050
sa(dp102
g3
I0
sg4
VDetroit
p103
sg6
I2065
sg7
I2071
sa(dp104
g3
I0
sg4
VFitzgerald
p105
sg6
I2102
sg7
I2111
sa(dp106
g3
I0
sg4
VMichigan
p107
sg6
I2194
sg7
I2201
sa(dp108
g3
I0
sg4
VState
p109
sg6
I2203
sg7
I2207
sa(dp110
g3
I0
sg4
VJohn
p111
sg6
I2340
sg7
I2343
sa(dp112
g3
I0
sg4
VManly
p113
sg6
I2348
sg7
I2352
sa(dp114
g3
I0
sg4
VMichigan
p115
sg6
I2431
sg7
I2438
sa(dp116
g3
I0
sg4
VState.
p117
sg6
I2440
sg7
I2445
sa(dp118
g3
I0
sg4
VManly
p119
sg6
I2451
sg7
I2455
sa(dp120
g3
I0
sg4
VMichigan
p121
sg6
I2479
sg7
I2486
sa(dp122
g3
I0
sg4
VState
p123
sg6
I2488
sg7
I2492
sa(dp124
g3
I0
sg4
VFitzgerald
p125
sg6
I2579
sg7
I2588
sasI2
(lp126
(dp127
g3
I1
sg4
VMichigan State
p128
sg6
I142
sg7
I155
sa(dp129
g3
I0
sg4
VUnited States
p130
sg6
I273
sg7
I285
sa(dp131
g3
I0
sg4
VRod R.
p132
sg6
I497
sg7
I502
sa(dp133
g3
I0
sg4
VR. Blagojevich
p134
sg6
I501
sg7
I514
sa(dp135
g3
I0
sg4
VUnited States
p136
sg6
I635
sg7
I647
sa(dp137
g3
I0
sg4
VStates Senate
p138
sg6
I642
sg7
I654
sa(dp139
g3
I0
sg4
VBarack Obama
p140
sg6
I666
sg7
I677
sa(dp141
g3
I0
sg4
VI. Lewis
p142
sg6
I804
sg7
I811
sa(dp143
g3
I0
sg4
VLewis Libby
p144
sg6
I807
sg7
I817
sa(dp145
g3
I0
sg4
VVice President
p146
sg6
I858
sg7
I871
sa(dp147
g3
I0
sg4
VPresident Dick
p148
sg6
I863
sg7
I876
sa(dp149
g3
I0
sg4
VDick Cheney.
p150
sg6
I873
sg7
I884
sa(dp151
g3
I0
sg4
VNew York
p152
sg6
I941
sg7
I948
sa(dp153
g3
I0
sg4
VUnited States
p154
sg6
I1030
sg7
I1042
sa(dp155
g3
I0
sg4
VSam Adam
p156
sg6
I1144
sg7
I1151
sa(dp157
g3
I1
sg4
VMichigan State
p158
sg6
I1330
sg7
I1343
sa(dp159
g3
I1
sg4
VMichigan State
p160
sg6
I1383
sg7
I1396
sa(dp161
g3
I0
sg4
VSkadden Arps
p162
sg6
I1440
sg7
I1451
sa(dp163
g3
I1
sg4
VMichigan State
p164
sg6
I1956
sg7
I1969
sa(dp165
g3
I1
sg4
VMichigan State
p166
sg6
I2194
sg7
I2207
sa(dp167
g3
I0
sg4
VJohn C.
p168
sg6
I2340
sg7
I2346
sa(dp169
g3
I0
sg4
VC. Manly
p170
sg6
I2345
sg7
I2352
sa(dp171
g3
I1
sg4
VMichigan State.
p172
sg6
I2431
sg7
I2445
sa(dp173
g3
I1
sg4
VMichigan State
p174
sg6
I2479
sg7
I2492
sasI3
(lp175
(dp176
g3
I0
sg4
VRod R. Blagojevich
p177
sg6
I497
sg7
I514
sa(dp178
g3
I0
sg4
VUnited States Senate
p179
sg6
I635
sg7
I654
sa(dp180
g3
I0
sg4
VI. Lewis Libby
p181
sg6
I804
sg7
I817
sa(dp182
g3
I0
sg4
VVice President Dick
p183
sg6
I858
sg7
I876
sa(dp184
g3
I0
sg4
VPresident Dick Cheney.
p185
sg6
I863
sg7
I884
sa(dp186
g3
I0
sg4
VKenya and Tanzania.
p187
sg6
I1057
sg7
I1075
sa(dp188
g3
I0
sg4
VJohn C. Manly
p189
sg6
I2340
sg7
I2352
sasI4
(lp190
(dp191
g3
I0
sg4
VVice President Dick Cheney.
p192
sg6
I858
sg7
I884
sasI5
(lp193
sI6
(lp194
s.