(dp0
I1
(lp1
(dp2
S'label'
p3
I1
sS'string'
p4
VColumbia
p5
sS'start_index'
p6
I9
sS'end_index'
p7
I16
sa(dp8
g3
I0
sg4
VLions
p9
sg6
I18
sg7
I22
sa(dp10
g3
I0
sg4
VOct.
p11
sg6
I84
sg7
I87
sa(dp12
g3
I0
sg4
VMichael
p13
sg6
I96
sg7
I102
sa(dp14
g3
I0
sg4
VRosenthal
p15
sg6
I104
sg7
I112
sa(dp16
g3
I0
sg4
VPuzzled
p17
sg6
I177
sg7
I183
sa(dp18
g3
I0
sg4
VRosenthal
p19
sg6
I189
sg7
I197
sa(dp20
g3
I0
sg4
VAlmost
p21
sg6
I272
sg7
I277
sa(dp22
g3
I1
sg4
VDartmouth
p23
sg6
I406
sg7
I414
sa(dp24
g3
I0
sg4
VColumbians
p25
sg6
I421
sg7
I430
sa(dp26
g3
I0
sg4
VIndeed
p27
sg6
I492
sg7
I497
sa(dp28
g3
I1
sg4
VColumbia
p29
sg6
I542
sg7
I549
sa(dp30
g3
I0
sg4
VColumbia
p31
sg6
I597
sg7
I604
sasI2
(lp32
(dp33
g3
I0
sg4
VColumbia Lions
p34
sg6
I9
sg7
I22
sa(dp35
g3
I0
sg4
VMichael Rosenthal
p36
sg6
I96
sg7
I112
sa(dp37
g3
I1
sg4
VColumbia College
p38
sg6
I597
sg7
I612
sasI3
(lp39
sI4
(lp40
sI5
(lp41
sI6
(lp42
s.