(dp0
I1
(lp1
(dp2
S'label'
p3
I0
sS'string'
p4
VMembers
p5
sS'start_index'
p6
I0
sS'end_index'
p7
I6
sa(dp8
g3
I0
sg4
VFlores
p9
sg6
I15
sg7
I20
sa(dp10
g3
I0
sg4
VCharlie
p11
sg6
I53
sg7
I59
sa(dp12
g3
I0
sg4
VFlores
p13
sg6
I61
sg7
I66
sa(dp14
g3
I1
sg4
VColumbia.
p15
sg6
I82
sg7
I90
sasI2
(lp16
(dp17
g3
I0
sg4
VCharlie Flores
p18
sg6
I53
sg7
I66
sasI3
(lp19
sI4
(lp20
sI5
(lp21
sI6
(lp22
s.