(dp0
I1
(lp1
(dp2
S'label'
p3
I1
sS'string'
p4
VColumbia
p5
sS'start_index'
p6
I126
sS'end_index'
p7
I133
sa(dp8
g3
I1
sg4
VPenn
p9
sg6
I146
sg7
I149
sa(dp10
g3
I0
sg4
VChung
p11
sg6
I183
sg7
I187
sa(dp12
g3
I0
sg4
VJill
p13
sg6
I201
sg7
I204
sa(dp14
g3
I0
sg4
VLevey
p15
sg6
I206
sg7
I210
sa(dp16
g3
I0
sg4
VNew
p17
sg6
I214
sg7
I216
sa(dp18
g3
I0
sg4
VJersey
p19
sg6
I218
sg7
I223
sa(dp20
g3
I1
sg4
VColumbia
p21
sg6
I265
sg7
I272
sa(dp22
g3
I0
sg4
VCan
p23
sg6
I339
sg7
I341
sa(dp24
g3
I1
sg4
VColumbia
p25
sg6
I419
sg7
I426
sa(dp26
g3
I0
sg4
VOthers
p27
sg6
I528
sg7
I533
sa(dp28
g3
I0
sg4
VSamantha
p29
sg6
I682
sg7
I689
sa(dp30
g3
I0
sg4
VRowan
p31
sg6
I691
sg7
I695
sa(dp32
g3
I1
sg4
VBarnard
p33
sg6
I716
sg7
I722
sa(dp34
g3
I1
sg4
VColumbia
p35
sg6
I760
sg7
I767
sa(dp36
g3
I0
sg4
VHappy
p37
sg6
I801
sg7
I805
sasI2
(lp38
(dp39
g3
I0
sg4
VJill Levey
p40
sg6
I201
sg7
I210
sa(dp41
g3
I0
sg4
VNew Jersey
p42
sg6
I214
sg7
I223
sa(dp43
g3
I0
sg4
VSamantha Rowan
p44
sg6
I682
sg7
I695
sasI3
(lp45
sI4
(lp46
sI5
(lp47
sI6
(lp48
s.