(dp0
I1
(lp1
(dp2
S'label'
p3
I0
sS'string'
p4
VSamantha
p5
sS'start_index'
p6
I0
sS'end_index'
p7
I7
sa(dp8
g3
I0
sg4
VRowan
p9
sg6
I9
sg7
I13
sa(dp10
g3
I0
sg4
VBarnard
p11
sg6
I22
sg7
I28
sasI2
(lp12
(dp13
g3
I0
sg4
VSamantha Rowan
p14
sg6
I0
sg7
I13
sa(dp15
g3
I1
sg4
VBarnard College
p16
sg6
I22
sg7
I36
sasI3
(lp17
sI4
(lp18
sI5
(lp19
sI6
(lp20
s.