(dp0
I1
(lp1
(dp2
S'label'
p3
I0
sS'string'
p4
VRowan
p5
sS'start_index'
p6
I104
sS'end_index'
p7
I108
sa(dp8
g3
I0
sg4
VColumbia
p9
sg6
I131
sg7
I138
sa(dp10
g3
I0
sg4
VBand
p11
sg6
I151
sg7
I154
sa(dp12
g3
I0
sg4
VAlumni
p13
sg6
I156
sg7
I161
sa(dp14
g3
I0
sg4
VAssociation.
p15
sg6
I163
sg7
I174
sasI2
(lp16
(dp17
g3
I1
sg4
VColumbia University
p18
sg6
I131
sg7
I149
sa(dp19
g3
I0
sg4
VUniversity Band
p20
sg6
I140
sg7
I154
sa(dp21
g3
I0
sg4
VBand Alumni
p22
sg6
I151
sg7
I161
sa(dp23
g3
I0
sg4
VAlumni Association.
p24
sg6
I156
sg7
I174
sasI3
(lp25
(dp26
g3
I0
sg4
VColumbia University Band
p27
sg6
I131
sg7
I154
sa(dp28
g3
I0
sg4
VUniversity Band Alumni
p29
sg6
I140
sg7
I161
sa(dp30
g3
I0
sg4
VBand Alumni Association.
p31
sg6
I151
sg7
I174
sasI4
(lp32
(dp33
g3
I0
sg4
VColumbia University Band Alumni
p34
sg6
I131
sg7
I161
sa(dp35
g3
I0
sg4
VUniversity Band Alumni Association.
p36
sg6
I140
sg7
I174
sasI5
(lp37
(dp38
g3
I0
sg4
VColumbia University Band Alumni Association.
p39
sg6
I131
sg7
I174
sasI6
(lp40
s.