(dp0
I1
(lp1
(dp2
S'label'
p3
I0
sS'string'
p4
VNew
p5
sS'start_index'
p6
I23
sS'end_index'
p7
I25
sa(dp8
g3
I0
sg4
VYork
p9
sg6
I27
sg7
I30
sa(dp10
g3
I1
sg4
VColumbia
p11
sg6
I183
sg7
I190
sa(dp12
g3
I0
sg4
VOct.
p13
sg6
I332
sg7
I335
sa(dp14
g3
I1
sg4
VColumbia
p15
sg6
I351
sg7
I358
sa(dp16
g3
I0
sg4
VGiving
p17
sg6
I360
sg7
I365
sa(dp18
g3
I0
sg4
VDay
p19
sg6
I367
sg7
I369
sa(dp20
g3
I0
sg4
VLauren
p21
sg6
I466
sg7
I471
sa(dp22
g3
I0
sg4
VDwyer
p23
sg6
I473
sg7
I477
sa(dp24
g3
I0
sg4
VLast
p25
sg6
I548
sg7
I551
sa(dp26
g3
I0
sg4
VDwyer
p27
sg6
I639
sg7
I643
sa(dp28
g3
I0
sg4
VJoseph
p29
sg6
I784
sg7
I789
sa(dp30
g3
I0
sg4
VSiegel
p31
sg6
I791
sg7
I796
sa(dp32
g3
I1
sg4
VColumbia
p33
sg6
I826
sg7
I833
sa(dp34
g3
I0
sg4
VSpectator.
p35
sg6
I841
sg7
I850
sa(dp36
g3
I1
sg4
VColumbia
p37
sg6
I1105
sg7
I1112
sa(dp38
g3
I0
sg4
VColumbia
p39
sg6
I1174
sg7
I1181
sa(dp40
g3
I0
sg4
VNew
p41
sg6
I1208
sg7
I1210
sa(dp42
g3
I0
sg4
VYork
p43
sg6
I1212
sg7
I1215
sa(dp44
g3
I0
sg4
VWKCR
p45
sg6
I1297
sg7
I1300
sa(dp46
g3
I0
sg4
VFM.
p47
sg6
I1302
sg7
I1304
sasI2
(lp48
(dp49
g3
I0
sg4
VNew York
p50
sg6
I23
sg7
I30
sa(dp51
g3
I0
sg4
VColumbia Giving
p52
sg6
I351
sg7
I365
sa(dp53
g3
I0
sg4
VGiving Day
p54
sg6
I360
sg7
I369
sa(dp55
g3
I0
sg4
VLauren Dwyer
p56
sg6
I466
sg7
I477
sa(dp57
g3
I0
sg4
VJoseph Siegel
p58
sg6
I784
sg7
I796
sa(dp59
g3
I1
sg4
VColumbia College
p60
sg6
I1174
sg7
I1189
sa(dp61
g3
I0
sg4
VNew York
p62
sg6
I1208
sg7
I1215
sa(dp63
g3
I0
sg4
VWKCR FM.
p64
sg6
I1297
sg7
I1304
sasI3
(lp65
(dp66
g3
I0
sg4
VColumbia Giving Day
p67
sg6
I351
sg7
I369
sasI4
(lp68
sI5
(lp69
sI6
(lp70
s.