(dp0
I1
(lp1
(dp2
S'label'
p3
I0
sS'string'
p4
VStephen
p5
sS'start_index'
p6
I0
sS'end_index'
p7
I6
sa(dp8
g3
I0
sg4
VHoltje
p9
sg6
I8
sg7
I13
sa(dp10
g3
I1
sg4
VColumbia
p11
sg6
I34
sg7
I41
sa(dp12
g3
I0
sg4
V&ldquo
p13
sg6
I141
sg7
I146
sa(dp14
g3
I0
sg4
VHoltje
p15
sg6
I220
sg7
I225
sa(dp16
g3
I0
sg4
V&rdquo
p17
sg6
I305
sg7
I310
sasI2
(lp18
(dp19
g3
I0
sg4
VStephen Holtje
p20
sg6
I0
sg7
I13
sasI3
(lp21
sI4
(lp22
sI5
(lp23
sI6
(lp24
s.