(dp0
I1
(lp1
(dp2
S'label'
p3
I0
sS'string'
p4
VLions
p5
sS'start_index'
p6
I36
sS'end_index'
p7
I40
sa(dp8
g3
I0
sg4
VStephen
p9
sg6
I165
sg7
I171
sa(dp10
g3
I0
sg4
VHoltje
p11
sg6
I173
sg7
I178
sa(dp12
g3
I0
sg4
VColumbia
p13
sg6
I180
sg7
I187
sa(dp14
g3
I0
sg4
VBeing
p15
sg6
I266
sg7
I270
sa(dp16
g3
I1
sg4
VColumbia
p17
sg6
I346
sg7
I353
sa(dp18
g3
I0
sg4
VHoltje
p19
sg6
I401
sg7
I406
sa(dp20
g3
I0
sg4
VESP
p21
sg6
I439
sg7
I441
sa(dp22
g3
I0
sg4
VDisk
p23
sg6
I443
sg7
I446
sa(dp24
g3
I0
sg4
VHoltje
p25
sg6
I649
sg7
I654
sa(dp26
g3
I1
sg4
VColumbia
p27
sg6
I683
sg7
I690
sa(dp28
g3
I0
sg4
VOhio
p29
sg6
I822
sg7
I825
sa(dp30
g3
I0
sg4
VState
p31
sg6
I827
sg7
I831
sa(dp32
g3
I0
sg4
VPassaro
p33
sg6
I913
sg7
I919
sa(dp34
g3
I0
sg4
VLions
p35
sg6
I968
sg7
I972
sa(dp36
g3
I1
sg4
VColumbia
p37
sg6
I1003
sg7
I1010
sa(dp38
g3
I1
sg4
VPrinceton
p39
sg6
I1031
sg7
I1039
sa(dp40
g3
I0
sg4
VHudson.
p41
sg6
I1048
sg7
I1054
sa(dp42
g3
I1
sg4
VColumbia
p43
sg6
I1082
sg7
I1089
sa(dp44
g3
I0
sg4
VNew
p45
sg6
I1167
sg7
I1169
sa(dp46
g3
I0
sg4
VYork
p47
sg6
I1171
sg7
I1174
sa(dp48
g3
I0
sg4
VBaker
p49
sg6
I1193
sg7
I1197
sa(dp50
g3
I0
sg4
VField
p51
sg6
I1199
sg7
I1203
sa(dp52
g3
I0
sg4
VLions
p53
sg6
I1233
sg7
I1237
sa(dp54
g3
I0
sg4
VWhatever
p55
sg6
I1275
sg7
I1282
sa(dp56
g3
I0
sg4
VPassaro
p57
sg6
I1384
sg7
I1390
sa(dp58
g3
I1
sg4
VColumbia
p59
sg6
I1401
sg7
I1408
sasI2
(lp60
(dp61
g3
I0
sg4
VStephen Holtje
p62
sg6
I165
sg7
I178
sa(dp63
g3
I0
sg4
VHoltje Columbia
p64
sg6
I173
sg7
I187
sa(dp65
g3
I1
sg4
VColumbia College
p66
sg6
I180
sg7
I195
sa(dp67
g3
I0
sg4
VESP Disk
p68
sg6
I439
sg7
I446
sa(dp69
g3
I1
sg4
VOhio State
p70
sg6
I822
sg7
I831
sa(dp71
g3
I0
sg4
VNew York
p72
sg6
I1167
sg7
I1174
sa(dp73
g3
I0
sg4
VBaker Field
p74
sg6
I1193
sg7
I1203
sasI3
(lp75
(dp76
g3
I0
sg4
VStephen Holtje Columbia
p77
sg6
I165
sg7
I187
sa(dp78
g3
I0
sg4
VHoltje Columbia College
p79
sg6
I173
sg7
I195
sasI4
(lp80
(dp81
g3
I0
sg4
VStephen Holtje Columbia College
p82
sg6
I165
sg7
I195
sasI5
(lp83
sI6
(lp84
s.