(dp0
I1
(lp1
(dp2
S'label'
p3
I0
sS'string'
p4
VSamantha
p5
sS'start_index'
p6
I68
sS'end_index'
p7
I75
sa(dp8
g3
I0
sg4
VRowan
p9
sg6
I77
sg7
I81
sa(dp10
g3
I0
sg4
VBarnard
p11
sg6
I109
sg7
I115
sa(dp12
g3
I0
sg4
VColumbia
p13
sg6
I129
sg7
I136
sa(dp14
g3
I0
sg4
VCollege.
p15
sg6
I138
sg7
I145
sasI2
(lp16
(dp17
g3
I0
sg4
VSamantha Rowan
p18
sg6
I68
sg7
I81
sa(dp19
g3
I1
sg4
VBarnard College
p20
sg6
I109
sg7
I123
sa(dp21
g3
I1
sg4
VColumbia College.
p22
sg6
I129
sg7
I145
sasI3
(lp23
sI4
(lp24
sI5
(lp25
sI6
(lp26
s.