(dp0
I1
(lp1
(dp2
S'label'
p3
I0
sS'string'
p4
VLarissa
p5
sS'start_index'
p6
I17
sS'end_index'
p7
I23
sa(dp8
g3
I0
sg4
VBoyce
p9
sg6
I25
sg7
I29
sa(dp10
g3
I0
sg4
VNassar
p11
sg6
I60
sg7
I65
sa(dp12
g3
I0
sg4
VMichigan
p13
sg6
I126
sg7
I133
sa(dp14
g3
I0
sg4
VState
p15
sg6
I135
sg7
I139
sa(dp16
g3
I0
sg4
VBoyce
p17
sg6
I190
sg7
I194
sa(dp18
g3
I0
sg4
VKathie
p19
sg6
I255
sg7
I260
sa(dp20
g3
I0
sg4
VKlages.
p21
sg6
I262
sg7
I268
sa(dp22
g3
I0
sg4
VBoyce
p23
sg6
I320
sg7
I324
sa(dp24
g3
I0
sg4
VBoyce
p25
sg6
I395
sg7
I399
sa(dp26
g3
I0
sg4
VAnother
p27
sg6
I483
sg7
I489
sa(dp28
g3
I0
sg4
VKlages
p29
sg6
I526
sg7
I531
sa(dp30
g3
I0
sg4
VNassar
p31
sg6
I552
sg7
I557
sa(dp32
g3
I0
sg4
VKlages
p33
sg6
I581
sg7
I586
sa(dp34
g3
I0
sg4
VMichigan
p35
sg6
I686
sg7
I693
sa(dp36
g3
I0
sg4
VState
p37
sg6
I695
sg7
I699
sa(dp38
g3
I0
sg4
VKlages
p39
sg6
I1108
sg7
I1113
sa(dp40
g3
I0
sg4
VMichigan
p41
sg6
I1115
sg7
I1122
sa(dp42
g3
I0
sg4
VState
p43
sg6
I1124
sg7
I1128
sa(dp44
g3
I0
sg4
VNassar
p45
sg6
I1200
sg7
I1205
sa(dp46
g3
I0
sg4
VJeff
p47
sg6
I1303
sg7
I1306
sa(dp48
g3
I0
sg4
VKovan
p49
sg6
I1308
sg7
I1312
sa(dp50
g3
I0
sg4
VNassar
p51
sg6
I1323
sg7
I1328
sa(dp52
g3
I0
sg4
VNassar
p53
sg6
I1488
sg7
I1493
sa(dp54
g3
I0
sg4
VNassar
p55
sg6
I1623
sg7
I1628
sa(dp56
g3
I0
sg4
VNassar
p57
sg6
I1903
sg7
I1908
sa(dp58
g3
I0
sg4
VNassar
p59
sg6
I2007
sg7
I2012
sa(dp60
g3
I0
sg4
VNassar
p61
sg6
I2073
sg7
I2078
sa(dp62
g3
I0
sg4
VMichigan
p63
sg6
I2207
sg7
I2214
sa(dp64
g3
I0
sg4
VState
p65
sg6
I2216
sg7
I2220
sa(dp66
g3
I0
sg4
VNassar
p67
sg6
I2255
sg7
I2260
sa(dp68
g3
I0
sg4
VRepublicans
p69
sg6
I2438
sg7
I2448
sa(dp70
g3
I0
sg4
VDemocrats
p71
sg6
I2454
sg7
I2462
sa(dp72
g3
I0
sg4
VPresident
p73
sg6
I2515
sg7
I2523
sa(dp74
g3
I0
sg4
VTrump
p75
sg6
I2525
sg7
I2529
sa(dp76
g3
I0
sg4
VHarvard
p77
sg6
I2642
sg7
I2648
sa(dp78
g3
I0
sg4
VEconomist
p79
sg6
I2759
sg7
I2767
sa(dp80
g3
I0
sg4
VView
p81
sg6
I2771
sg7
I2774
sa(dp82
g3
I0
sg4
VWorld
p83
sg6
I2783
sg7
I2787
sa(dp84
g3
I1
sg4
VHarvard
p85
sg6
I3206
sg7
I3212
sa(dp86
g3
I0
sg4
VEvery
p87
sg6
I3302
sg7
I3306
sa(dp88
g3
I0
sg4
VTogether
p89
sg6
I3424
sg7
I3431
sasI2
(lp90
(dp91
g3
I0
sg4
VLarissa Boyce
p92
sg6
I17
sg7
I29
sa(dp93
g3
I1
sg4
VMichigan State
p94
sg6
I126
sg7
I139
sa(dp95
g3
I0
sg4
VKathie Klages.
p96
sg6
I255
sg7
I268
sa(dp97
g3
I1
sg4
VMichigan State
p98
sg6
I686
sg7
I699
sa(dp99
g3
I0
sg4
VKlages Michigan
p100
sg6
I1108
sg7
I1122
sa(dp101
g3
I1
sg4
VMichigan State
p102
sg6
I1115
sg7
I1128
sa(dp103
g3
I0
sg4
VJeff Kovan
p104
sg6
I1303
sg7
I1312
sa(dp105
g3
I1
sg4
VMichigan State
p106
sg6
I2207
sg7
I2220
sa(dp107
g3
I0
sg4
VPresident Trump
p108
sg6
I2515
sg7
I2529
sa(dp109
g3
I1
sg4
VHarvard University
p110
sg6
I2642
sg7
I2659
sasI3
(lp111
(dp112
g3
I0
sg4
VKlages Michigan State
p113
sg6
I1108
sg7
I1128
sa(dp114
g3
I0
sg4
VRepublicans and Democrats
p115
sg6
I2438
sg7
I2462
sasI4
(lp116
sI5
(lp117
sI6
(lp118
s.