(dp0
I1
(lp1
(dp2
S'label'
p3
I0
sS'string'
p4
VCity
p5
sS'start_index'
p6
I30
sS'end_index'
p7
I33
sa(dp8
g3
I0
sg4
VNew
p9
sg6
I49
sg7
I51
sa(dp10
g3
I0
sg4
VYork
p11
sg6
I53
sg7
I56
sa(dp12
g3
I0
sg4
VAfrican
p13
sg6
I92
sg7
I98
sa(dp14
g3
I0
sg4
VAmerican
p15
sg6
I100
sg7
I107
sa(dp16
g3
I0
sg4
VHarlem
p17
sg6
I122
sg7
I127
sa(dp18
g3
I0
sg4
VCity
p19
sg6
I202
sg7
I205
sa(dp20
g3
I0
sg4
VVincent
p21
sg6
I280
sg7
I286
sa(dp22
g3
I0
sg4
VBoudreau
p23
sg6
I291
sg7
I298
sa(dp24
g3
I0
sg4
VNew
p25
sg6
I456
sg7
I458
sa(dp26
g3
I0
sg4
VYork
p27
sg6
I460
sg7
I463
sa(dp28
g3
I0
sg4
VTimes
p29
sg6
I465
sg7
I469
sa(dp30
g3
I0
sg4
VGov.
p31
sg6
I530
sg7
I533
sa(dp32
g3
I0
sg4
VDavid
p33
sg6
I535
sg7
I539
sa(dp34
g3
I0
sg4
VPaterson
p35
sg6
I544
sg7
I551
sa(dp36
g3
I0
sg4
VRepresentative
p37
sg6
I560
sg7
I573
sa(dp38
g3
I0
sg4
VCharles
p39
sg6
I575
sg7
I581
sa(dp40
g3
I0
sg4
VRangel
p41
sg6
I586
sg7
I591
sa(dp42
g3
I0
sg4
VAssemblyman
p43
sg6
I604
sg7
I614
sa(dp44
g3
I0
sg4
VKeith
p45
sg6
I616
sg7
I620
sa(dp46
g3
I0
sg4
VWright
p47
sg6
I628
sg7
I633
sa(dp48
g3
I0
sg4
VBoudreau
p49
sg6
I669
sg7
I676
sa(dp50
g3
I0
sg4
VRepresentative
p51
sg6
I851
sg7
I864
sa(dp52
g3
I0
sg4
VAdriano
p53
sg6
I866
sg7
I872
sa(dp54
g3
I0
sg4
VEspaillat
p55
sg6
I874
sg7
I882
sa(dp56
g3
I0
sg4
VSylvia
p57
sg6
I916
sg7
I921
sa(dp58
g3
I0
sg4
VHarlem
p59
sg6
I939
sg7
I944
sa(dp60
g3
I0
sg4
VBoudreau
p61
sg6
I955
sg7
I962
sa(dp62
g3
I0
sg4
VJames
p63
sg6
I964
sg7
I968
sa(dp64
g3
I0
sg4
VMilliken
p65
sg6
I973
sg7
I980
sa(dp66
g3
I1
sg4
VCUNY
p67
sg6
I982
sg7
I985
sa(dp68
g3
I0
sg4
VWilliam
p69
sg6
I1004
sg7
I1010
sa(dp70
g3
I0
sg4
VThompson
p71
sg6
I1015
sg7
I1022
sa(dp72
g3
I1
sg4
VCUNY
p73
sg6
I1040
sg7
I1043
sa(dp74
g3
I0
sg4
VBoard
p75
sg6
I1047
sg7
I1051
sa(dp76
g3
I0
sg4
VTrustees.
p77
sg6
I1056
sg7
I1064
sa(dp78
g3
I0
sg4
VAfterward
p79
sg6
I1066
sg7
I1074
sa(dp80
g3
I0
sg4
VBoudreau
p81
sg6
I1160
sg7
I1167
sa(dp82
g3
I0
sg4
VHazel
p83
sg6
I1239
sg7
I1243
sa(dp84
g3
I0
sg4
VDukes
p85
sg6
I1248
sg7
I1252
sa(dp86
g3
I0
sg4
VA.A.
p87
sg6
I1274
sg7
I1277
sa(dp88
g3
I0
sg4
VC.P.
p89
sg6
I1279
sg7
I1282
sa(dp90
g3
I0
sg4
VNew
p91
sg6
I1284
sg7
I1286
sa(dp92
g3
I0
sg4
VYork
p93
sg6
I1288
sg7
I1291
sa(dp94
g3
I0
sg4
VState
p95
sg6
I1293
sg7
I1297
sa(dp96
g3
I0
sg4
VConference.
p97
sg6
I1299
sg7
I1309
sasI2
(lp98
(dp99
g3
I0
sg4
VCity University
p100
sg6
I30
sg7
I44
sa(dp101
g3
I0
sg4
VNew York
p102
sg6
I49
sg7
I56
sa(dp103
g3
I0
sg4
VAfrican American
p104
sg6
I92
sg7
I107
sa(dp105
g3
I1
sg4
VCity College
p106
sg6
I202
sg7
I213
sa(dp107
g3
I0
sg4
VVincent G.
p108
sg6
I280
sg7
I289
sa(dp109
g3
I0
sg4
VG. Boudreau
p110
sg6
I288
sg7
I298
sa(dp111
g3
I0
sg4
VNew York
p112
sg6
I456
sg7
I463
sa(dp113
g3
I0
sg4
VYork Times
p114
sg6
I460
sg7
I469
sa(dp115
g3
I0
sg4
VDavid A.
p116
sg6
I535
sg7
I542
sa(dp117
g3
I0
sg4
VA. Paterson
p118
sg6
I541
sg7
I551
sa(dp119
g3
I0
sg4
VRepresentative Charles
p120
sg6
I560
sg7
I581
sa(dp121
g3
I0
sg4
VCharles B.
p122
sg6
I575
sg7
I584
sa(dp123
g3
I0
sg4
VB. Rangel
p124
sg6
I583
sg7
I591
sa(dp125
g3
I0
sg4
VAssemblyman Keith
p126
sg6
I604
sg7
I620
sa(dp127
g3
I0
sg4
VKeith L.
p128
sg6
I616
sg7
I623
sa(dp129
g3
I0
sg4
VL. T.
p130
sg6
I622
sg7
I626
sa(dp131
g3
I0
sg4
VT. Wright
p132
sg6
I625
sg7
I633
sa(dp133
g3
I0
sg4
VRepresentative Adriano
p134
sg6
I851
sg7
I872
sa(dp135
g3
I0
sg4
VAdriano Espaillat
p136
sg6
I866
sg7
I882
sa(dp137
g3
I0
sg4
VBoudreau James
p138
sg6
I955
sg7
I968
sa(dp139
g3
I0
sg4
VJames B.
p140
sg6
I964
sg7
I971
sa(dp141
g3
I0
sg4
VB. Milliken
p142
sg6
I970
sg7
I980
sa(dp143
g3
I0
sg4
VMilliken CUNY
p144
sg6
I973
sg7
I985
sa(dp145
g3
I0
sg4
VWilliam C.
p146
sg6
I1004
sg7
I1013
sa(dp147
g3
I0
sg4
VC. Thompson
p148
sg6
I1012
sg7
I1022
sa(dp149
g3
I0
sg4
VHazel N.
p150
sg6
I1239
sg7
I1246
sa(dp151
g3
I0
sg4
VN. Dukes
p152
sg6
I1245
sg7
I1252
sa(dp153
g3
I0
sg4
VN. A.A.
p154
sg6
I1271
sg7
I1277
sa(dp155
g3
I0
sg4
VA.A. C.P.
p156
sg6
I1274
sg7
I1282
sa(dp157
g3
I0
sg4
VC.P. New
p158
sg6
I1279
sg7
I1286
sa(dp159
g3
I0
sg4
VNew York
p160
sg6
I1284
sg7
I1291
sa(dp161
g3
I0
sg4
VYork State
p162
sg6
I1288
sg7
I1297
sa(dp163
g3
I0
sg4
VState Conference.
p164
sg6
I1293
sg7
I1309
sasI3
(lp165
(dp166
g3
I0
sg4
VUniversity of New
p167
sg6
I35
sg7
I51
sa(dp168
g3
I0
sg4
VVincent G. Boudreau
p169
sg6
I280
sg7
I298
sa(dp170
g3
I0
sg4
VNew York Times
p171
sg6
I456
sg7
I469
sa(dp172
g3
I0
sg4
VDavid A. Paterson
p173
sg6
I535
sg7
I551
sa(dp174
g3
I0
sg4
VRepresentative Charles B.
p175
sg6
I560
sg7
I584
sa(dp176
g3
I0
sg4
VCharles B. Rangel
p177
sg6
I575
sg7
I591
sa(dp178
g3
I0
sg4
VAssemblyman Keith L.
p179
sg6
I604
sg7
I623
sa(dp180
g3
I0
sg4
VKeith L. T.
p181
sg6
I616
sg7
I626
sa(dp182
g3
I0
sg4
VL. T. Wright
p183
sg6
I622
sg7
I633
sa(dp184
g3
I0
sg4
VRepresentative Adriano Espaillat
p185
sg6
I851
sg7
I882
sa(dp186
g3
I0
sg4
VBoudreau James B.
p187
sg6
I955
sg7
I971
sa(dp188
g3
I0
sg4
VJames B. Milliken
p189
sg6
I964
sg7
I980
sa(dp190
g3
I0
sg4
VB. Milliken CUNY
p191
sg6
I970
sg7
I985
sa(dp192
g3
I0
sg4
VWilliam C. Thompson
p193
sg6
I1004
sg7
I1022
sa(dp194
g3
I0
sg4
VBoard of Trustees.
p195
sg6
I1047
sg7
I1064
sa(dp196
g3
I0
sg4
VHazel N. Dukes
p197
sg6
I1239
sg7
I1252
sa(dp198
g3
I0
sg4
VN. A.A. C.P.
p199
sg6
I1271
sg7
I1282
sa(dp200
g3
I0
sg4
VA.A. C.P. New
p201
sg6
I1274
sg7
I1286
sa(dp202
g3
I0
sg4
VC.P. New York
p203
sg6
I1279
sg7
I1291
sa(dp204
g3
I0
sg4
VNew York State
p205
sg6
I1284
sg7
I1297
sa(dp206
g3
I0
sg4
VYork State Conference.
p207
sg6
I1288
sg7
I1309
sasI4
(lp208
(dp209
g3
I0
sg4
VCity University of New
p210
sg6
I30
sg7
I51
sa(dp211
g3
I0
sg4
VUniversity of New York
p212
sg6
I35
sg7
I56
sa(dp213
g3
I0
sg4
VRepresentative Charles B. Rangel
p214
sg6
I560
sg7
I591
sa(dp215
g3
I0
sg4
VAssemblyman Keith L. T.
p216
sg6
I604
sg7
I626
sa(dp217
g3
I0
sg4
VKeith L. T. Wright
p218
sg6
I616
sg7
I633
sa(dp219
g3
I0
sg4
VBoudreau James B. Milliken
p220
sg6
I955
sg7
I980
sa(dp221
g3
I0
sg4
VJames B. Milliken CUNY
p222
sg6
I964
sg7
I985
sa(dp223
g3
I0
sg4
VN. A.A. C.P. New
p224
sg6
I1271
sg7
I1286
sa(dp225
g3
I0
sg4
VA.A. C.P. New York
p226
sg6
I1274
sg7
I1291
sa(dp227
g3
I0
sg4
VC.P. New York State
p228
sg6
I1279
sg7
I1297
sa(dp229
g3
I0
sg4
VNew York State Conference.
p230
sg6
I1284
sg7
I1309
sasI5
(lp231
(dp232
g3
I1
sg4
VCity University of New York
p233
sg6
I30
sg7
I56
sa(dp234
g3
I0
sg4
VAssemblyman Keith L. T. Wright
p235
sg6
I604
sg7
I633
sa(dp236
g3
I0
sg4
VBoudreau James B. Milliken CUNY
p237
sg6
I955
sg7
I985
sa(dp238
g3
I0
sg4
VN. A.A. C.P. New York
p239
sg6
I1271
sg7
I1291
sa(dp240
g3
I0
sg4
VA.A. C.P. New York State
p241
sg6
I1274
sg7
I1297
sa(dp242
g3
I0
sg4
VC.P. New York State Conference.
p243
sg6
I1279
sg7
I1309
sasI6
(lp244
(dp245
g3
I0
sg4
VN. A.A. C.P. New York State
p246
sg6
I1271
sg7
I1297
sa(dp247
g3
I0
sg4
VA.A. C.P. New York State Conference.
p248
sg6
I1274
sg7
I1309
sas.