(dp0
I1
(lp1
(dp2
S'label'
p3
I0
sS'string'
p4
VMichael
p5
sS'start_index'
p6
I115
sS'end_index'
p7
I121
sa(dp8
g3
I0
sg4
VIsaacson
p9
sg6
I123
sg7
I130
sa(dp10
g3
I0
sg4
VJohn
p11
sg6
I174
sg7
I177
sa(dp12
g3
I0
sg4
VJay
p13
sg6
I179
sg7
I181
sa(dp14
g3
I0
sg4
VCriminal
p15
sg6
I194
sg7
I201
sa(dp16
g3
I0
sg4
VJustice
p17
sg6
I203
sg7
I209
sa(dp18
g3
I0
sg4
VNew
p19
sg6
I214
sg7
I216
sa(dp20
g3
I0
sg4
VYork
p21
sg6
I218
sg7
I221
sa(dp22
g3
I0
sg4
VTwitter
p23
sg6
I232
sg7
I238
sa(dp24
g3
I0
sg4
VJohn
p25
sg6
I309
sg7
I312
sa(dp26
g3
I0
sg4
VJay
p27
sg6
I314
sg7
I316
sa(dp28
g3
I0
sg4
VTampa
p29
sg6
I728
sg7
I732
sa(dp30
g3
I0
sg4
VHurricane
p31
sg6
I764
sg7
I772
sa(dp32
g3
I0
sg4
VHarvey
p33
sg6
I774
sg7
I779
sa(dp34
g3
I0
sg4
VRepublican
p35
sg6
I804
sg7
I813
sa(dp36
g3
I0
sg4
VTexans.
p37
sg6
I822
sg7
I828
sa(dp38
g3
I0
sg4
VOfficials
p39
sg6
I830
sg7
I838
sa(dp40
g3
I0
sg4
VCalifornia
p41
sg6
I843
sg7
I852
sa(dp42
g3
I0
sg4
VState
p43
sg6
I854
sg7
I858
sa(dp44
g3
I0
sg4
VFresno
p45
sg6
I871
sg7
I876
sa(dp46
g3
I0
sg4
VTrump
p47
sg6
I925
sg7
I929
sa(dp48
g3
I1
sg4
VRutgers
p49
sg6
I1018
sg7
I1024
sa(dp50
g3
I0
sg4
VMontclair
p51
sg6
I1062
sg7
I1070
sa(dp52
g3
I0
sg4
VState
p53
sg6
I1072
sg7
I1076
sa(dp54
g3
I0
sg4
VPresident
p55
sg6
I1150
sg7
I1158
sa(dp56
g3
I0
sg4
VTrump
p57
sg6
I1160
sg7
I1164
sa(dp58
g3
I0
sg4
VConservative
p59
sg6
I1172
sg7
I1183
sasI2
(lp60
(dp61
g3
I0
sg4
VMichael Isaacson
p62
sg6
I115
sg7
I130
sa(dp63
g3
I0
sg4
VJohn Jay
p64
sg6
I174
sg7
I181
sa(dp65
g3
I0
sg4
VJay College
p66
sg6
I179
sg7
I189
sa(dp67
g3
I0
sg4
VCriminal Justice
p68
sg6
I194
sg7
I209
sa(dp69
g3
I0
sg4
VNew York
p70
sg6
I214
sg7
I221
sa(dp71
g3
I0
sg4
VJohn Jay
p72
sg6
I309
sg7
I316
sa(dp73
g3
I0
sg4
VJay College
p74
sg6
I314
sg7
I324
sa(dp75
g3
I0
sg4
VHurricane Harvey
p76
sg6
I764
sg7
I779
sa(dp77
g3
I0
sg4
VCalifornia State
p78
sg6
I843
sg7
I858
sa(dp79
g3
I0
sg4
VState University
p80
sg6
I854
sg7
I869
sa(dp81
g3
I0
sg4
VUniversity Fresno
p82
sg6
I860
sg7
I876
sa(dp83
g3
I0
sg4
VMontclair State
p84
sg6
I1062
sg7
I1076
sa(dp85
g3
I0
sg4
VState University
p86
sg6
I1072
sg7
I1087
sa(dp87
g3
I0
sg4
VPresident Trump
p88
sg6
I1150
sg7
I1164
sasI3
(lp89
(dp90
g3
I0
sg4
VJohn Jay College
p91
sg6
I174
sg7
I189
sa(dp92
g3
I0
sg4
VCollege of Criminal
p93
sg6
I183
sg7
I201
sa(dp94
g3
I1
sg4
VJohn Jay College
p95
sg6
I309
sg7
I324
sa(dp96
g3
I1
sg4
VUniversity of Tampa
p97
sg6
I714
sg7
I732
sa(dp98
g3
I0
sg4
VCalifornia State University
p99
sg6
I843
sg7
I869
sa(dp100
g3
I0
sg4
VState University Fresno
p101
sg6
I854
sg7
I876
sa(dp102
g3
I1
sg4
VMontclair State University
p103
sg6
I1062
sg7
I1087
sasI4
(lp104
(dp105
g3
I0
sg4
VJay College of Criminal
p106
sg6
I179
sg7
I201
sa(dp107
g3
I0
sg4
VCollege of Criminal Justice
p108
sg6
I183
sg7
I209
sa(dp109
g3
I1
sg4
VCalifornia State University Fresno
p110
sg6
I843
sg7
I876
sasI5
(lp111
(dp112
g3
I0
sg4
VJohn Jay College of Criminal
p113
sg6
I174
sg7
I201
sa(dp114
g3
I0
sg4
VJay College of Criminal Justice
p115
sg6
I179
sg7
I209
sasI6
(lp116
(dp117
g3
I1
sg4
VJohn Jay College of Criminal Justice
p118
sg6
I174
sg7
I209
sas.