(dp0
I1
(lp1
(dp2
S'label'
p3
I0
sS'string'
p4
VOregon
p5
sS'start_index'
p6
I64
sS'end_index'
p7
I69
sa(dp8
g3
I0
sg4
VArmed
p9
sg6
I302
sg7
I306
sa(dp10
g3
I0
sg4
VOften
p11
sg6
I643
sg7
I647
sasI2
(lp12
sI3
(lp13
(dp14
g3
I1
sg4
VUniversity of Oregon
p15
sg6
I50
sg7
I69
sasI4
(lp16
sI5
(lp17
sI6
(lp18
s.