(dp0
I1
(lp1
(dp2
S'label'
p3
I0
sS'string'
p4
VUndoubtedly
p5
sS'start_index'
p6
I0
sS'end_index'
p7
I10
sa(dp8
g3
I0
sg4
VOregon
p9
sg6
I227
sg7
I232
sa(dp10
g3
I0
sg4
VNazis
p11
sg6
I477
sg7
I481
sa(dp12
g3
I0
sg4
VEastern
p13
sg6
I942
sg7
I948
sa(dp14
g3
I0
sg4
VEurope
p15
sg6
I950
sg7
I955
sa(dp16
g3
I0
sg4
VHolocaust.
p17
sg6
I968
sg7
I977
sa(dp18
g3
I0
sg4
VClearly
p19
sg6
I1129
sg7
I1135
sa(dp20
g3
I0
sg4
VOregon
p21
sg6
I1391
sg7
I1396
sa(dp22
g3
I0
sg4
VMichael
p23
sg6
I1481
sg7
I1487
sa(dp24
g3
I0
sg4
VFerguson
p25
sg6
I1492
sg7
I1499
sa(dp26
g3
I0
sg4
VMo.
p27
sg6
I1501
sg7
I1503
sa(dp28
g3
I0
sg4
VBlack
p29
sg6
I1524
sg7
I1528
sa(dp30
g3
I0
sg4
VTask
p31
sg6
I1538
sg7
I1541
sa(dp32
g3
I0
sg4
VForce
p33
sg6
I1543
sg7
I1547
sa(dp34
g3
I0
sg4
VOregon
p35
sg6
I1851
sg7
I1856
sa(dp36
g3
I0
sg4
VAfrican
p37
sg6
I2052
sg7
I2058
sa(dp38
g3
I0
sg4
VAmerican
p39
sg6
I2060
sg7
I2067
sa(dp40
g3
I0
sg4
VKlux
p41
sg6
I2224
sg7
I2227
sa(dp42
g3
I0
sg4
VKlan
p43
sg6
I2229
sg7
I2232
sa(dp44
g3
I0
sg4
VEducators
p45
sg6
I2337
sg7
I2345
sasI2
(lp46
(dp47
g3
I0
sg4
VEastern Europe
p48
sg6
I942
sg7
I955
sa(dp49
g3
I0
sg4
VFerguson Mo.
p50
sg6
I1492
sg7
I1503
sa(dp51
g3
I0
sg4
VTask Force
p52
sg6
I1538
sg7
I1547
sa(dp53
g3
I0
sg4
VAfrican American
p54
sg6
I2052
sg7
I2067
sa(dp55
g3
I0
sg4
VKu Klux
p56
sg6
I2221
sg7
I2227
sa(dp57
g3
I0
sg4
VKlux Klan
p58
sg6
I2224
sg7
I2232
sasI3
(lp59
(dp60
g3
I1
sg4
VUniversity of Oregon
p61
sg6
I213
sg7
I232
sa(dp62
g3
I1
sg4
VUniversity of Oregon
p63
sg6
I1377
sg7
I1396
sa(dp64
g3
I1
sg4
VUniversity of Oregon
p65
sg6
I1837
sg7
I1856
sa(dp66
g3
I0
sg4
VKu Klux Klan
p67
sg6
I2221
sg7
I2232
sasI4
(lp68
sI5
(lp69
sI6
(lp70
s.