(dp0
I1
(lp1
(dp2
S'label'
p3
I0
sS'string'
p4
VDescribing
p5
sS'start_index'
p6
I0
sS'end_index'
p7
I9
sa(dp8
g3
I0
sg4
VHarlem
p9
sg6
I116
sg7
I121
sa(dp10
g3
I0
sg4
VCity
p11
sg6
I209
sg7
I212
sa(dp12
g3
I0
sg4
VNew
p13
sg6
I225
sg7
I227
sa(dp14
g3
I0
sg4
VYork.
p15
sg6
I229
sg7
I233
sa(dp16
g3
I0
sg4
VFormer
p17
sg6
I235
sg7
I240
sa(dp18
g3
I0
sg4
VGov.
p19
sg6
I242
sg7
I245
sa(dp20
g3
I0
sg4
VDavid
p21
sg6
I247
sg7
I251
sa(dp22
g3
I0
sg4
VPaterson
p23
sg6
I256
sg7
I263
sa(dp24
g3
I0
sg4
VRepresentative
p25
sg6
I272
sg7
I285
sa(dp26
g3
I0
sg4
VCharles
p27
sg6
I287
sg7
I293
sa(dp28
g3
I0
sg4
VRangel
p29
sg6
I298
sg7
I303
sa(dp30
g3
I0
sg4
VAssemblyman
p31
sg6
I316
sg7
I326
sa(dp32
g3
I0
sg4
VKeith
p33
sg6
I328
sg7
I332
sa(dp34
g3
I0
sg4
VWright
p35
sg6
I340
sg7
I345
sa(dp36
g3
I0
sg4
VNew
p37
sg6
I398
sg7
I400
sa(dp38
g3
I0
sg4
VYork
p39
sg6
I402
sg7
I405
sa(dp40
g3
I0
sg4
VTimes
p41
sg6
I407
sg7
I411
sa(dp42
g3
I0
sg4
VVincent
p43
sg6
I461
sg7
I467
sa(dp44
g3
I0
sg4
VBoudreau
p45
sg6
I472
sg7
I479
sa(dp46
g3
I0
sg4
VMonday.
p47
sg6
I550
sg7
I556
sa(dp48
g3
I0
sg4
VJames
p49
sg6
I579
sg7
I583
sa(dp50
g3
I0
sg4
VMilliken
p51
sg6
I588
sg7
I595
sa(dp52
g3
I0
sg4
VCity
p53
sg6
I619
sg7
I622
sa(dp54
g3
I0
sg4
VNew
p55
sg6
I638
sg7
I640
sa(dp56
g3
I0
sg4
VYork
p57
sg6
I642
sg7
I645
sa(dp58
g3
I0
sg4
VWilliam
p59
sg6
I686
sg7
I692
sa(dp60
g3
I0
sg4
VThompson
p61
sg6
I697
sg7
I704
sa(dp62
g3
I1
sg4
VCUNY
p63
sg6
I722
sg7
I725
sa(dp64
g3
I0
sg4
VBoard
p65
sg6
I729
sg7
I733
sa(dp66
g3
I0
sg4
VTrustees
p67
sg6
I738
sg7
I745
sa(dp68
g3
I0
sg4
VBoudreau
p69
sg6
I857
sg7
I864
sa(dp70
g3
I0
sg4
VColin
p71
sg6
I964
sg7
I968
sa(dp72
g3
I0
sg4
VPowell
p73
sg6
I970
sg7
I975
sa(dp74
g3
I0
sg4
VSchool.
p75
sg6
I977
sg7
I983
sa(dp76
g3
I0
sg4
VBoudreau
p77
sg6
I989
sg7
I996
sasI2
(lp78
(dp79
g3
I0
sg4
VCity College
p80
sg6
I209
sg7
I220
sa(dp81
g3
I0
sg4
VNew York.
p82
sg6
I225
sg7
I233
sa(dp83
g3
I0
sg4
VFormer Gov.
p84
sg6
I235
sg7
I245
sa(dp85
g3
I0
sg4
VDavid A.
p86
sg6
I247
sg7
I254
sa(dp87
g3
I0
sg4
VA. Paterson
p88
sg6
I253
sg7
I263
sa(dp89
g3
I0
sg4
VRepresentative Charles
p90
sg6
I272
sg7
I293
sa(dp91
g3
I0
sg4
VCharles B.
p92
sg6
I287
sg7
I296
sa(dp93
g3
I0
sg4
VB. Rangel
p94
sg6
I295
sg7
I303
sa(dp95
g3
I0
sg4
VAssemblyman Keith
p96
sg6
I316
sg7
I332
sa(dp97
g3
I0
sg4
VKeith L.
p98
sg6
I328
sg7
I335
sa(dp99
g3
I0
sg4
VL. T.
p100
sg6
I334
sg7
I338
sa(dp101
g3
I0
sg4
VT. Wright
p102
sg6
I337
sg7
I345
sa(dp103
g3
I0
sg4
VNew York
p104
sg6
I398
sg7
I405
sa(dp105
g3
I0
sg4
VYork Times
p106
sg6
I402
sg7
I411
sa(dp107
g3
I0
sg4
VVincent G.
p108
sg6
I461
sg7
I470
sa(dp109
g3
I0
sg4
VG. Boudreau
p110
sg6
I469
sg7
I479
sa(dp111
g3
I0
sg4
VJames B.
p112
sg6
I579
sg7
I586
sa(dp113
g3
I0
sg4
VB. Milliken
p114
sg6
I585
sg7
I595
sa(dp115
g3
I0
sg4
VCity University
p116
sg6
I619
sg7
I633
sa(dp117
g3
I0
sg4
VNew York
p118
sg6
I638
sg7
I645
sa(dp119
g3
I0
sg4
VWilliam C.
p120
sg6
I686
sg7
I695
sa(dp121
g3
I0
sg4
VC. Thompson
p122
sg6
I694
sg7
I704
sa(dp123
g3
I0
sg4
VColin Powell
p124
sg6
I964
sg7
I975
sa(dp125
g3
I0
sg4
VPowell School.
p126
sg6
I970
sg7
I983
sasI3
(lp127
(dp128
g3
I0
sg4
VCollege of New
p129
sg6
I214
sg7
I227
sa(dp130
g3
I0
sg4
VDavid A. Paterson
p131
sg6
I247
sg7
I263
sa(dp132
g3
I0
sg4
VRepresentative Charles B.
p133
sg6
I272
sg7
I296
sa(dp134
g3
I0
sg4
VCharles B. Rangel
p135
sg6
I287
sg7
I303
sa(dp136
g3
I0
sg4
VAssemblyman Keith L.
p137
sg6
I316
sg7
I335
sa(dp138
g3
I0
sg4
VKeith L. T.
p139
sg6
I328
sg7
I338
sa(dp140
g3
I0
sg4
VL. T. Wright
p141
sg6
I334
sg7
I345
sa(dp142
g3
I0
sg4
VNew York Times
p143
sg6
I398
sg7
I411
sa(dp144
g3
I0
sg4
VVincent G. Boudreau
p145
sg6
I461
sg7
I479
sa(dp146
g3
I0
sg4
VJames B. Milliken
p147
sg6
I579
sg7
I595
sa(dp148
g3
I0
sg4
VUniversity of New
p149
sg6
I624
sg7
I640
sa(dp150
g3
I0
sg4
VWilliam C. Thompson
p151
sg6
I686
sg7
I704
sa(dp152
g3
I0
sg4
VBoard of Trustees
p153
sg6
I729
sg7
I745
sa(dp154
g3
I1
sg4
VColin Powell School.
p155
sg6
I964
sg7
I983
sasI4
(lp156
(dp157
g3
I0
sg4
VCity College of New
p158
sg6
I209
sg7
I227
sa(dp159
g3
I0
sg4
VCollege of New York.
p160
sg6
I214
sg7
I233
sa(dp161
g3
I0
sg4
VRepresentative Charles B. Rangel
p162
sg6
I272
sg7
I303
sa(dp163
g3
I0
sg4
VAssemblyman Keith L. T.
p164
sg6
I316
sg7
I338
sa(dp165
g3
I0
sg4
VKeith L. T. Wright
p166
sg6
I328
sg7
I345
sa(dp167
g3
I0
sg4
VCity University of New
p168
sg6
I619
sg7
I640
sa(dp169
g3
I0
sg4
VUniversity of New York
p170
sg6
I624
sg7
I645
sasI5
(lp171
(dp172
g3
I1
sg4
VCity College of New York.
p173
sg6
I209
sg7
I233
sa(dp174
g3
I0
sg4
VAssemblyman Keith L. T. Wright
p175
sg6
I316
sg7
I345
sa(dp176
g3
I1
sg4
VCity University of New York
p177
sg6
I619
sg7
I645
sasI6
(lp178
s.