(dp0
I1
(lp1
(dp2
S'label'
p3
I0
sS'string'
p4
VBoudreau
p5
sS'start_index'
p6
I4
sS'end_index'
p7
I11
sa(dp8
g3
I0
sg4
VCity
p9
sg6
I61
sg7
I64
sa(dp10
g3
I0
sg4
VCollege.
p11
sg6
I66
sg7
I73
sasI2
(lp12
(dp13
g3
I1
sg4
VCity College.
p14
sg6
I61
sg7
I73
sasI3
(lp15
sI4
(lp16
sI5
(lp17
sI6
(lp18
s.