(dp0
I1
(lp1
(dp2
S'label'
p3
I0
sS'string'
p4
VBoudreau
p5
sS'start_index'
p6
I4
sS'end_index'
p7
I11
sa(dp8
g3
I1
sg4
VCUNY
p9
sg6
I66
sg7
I69
sa(dp10
g3
I1
sg4
VCUNY
p11
sg6
I258
sg7
I261
sa(dp12
g3
I0
sg4
VCity
p13
sg6
I270
sg7
I273
sasI2
(lp14
(dp15
g3
I1
sg4
VCity College
p16
sg6
I270
sg7
I281
sasI3
(lp17
sI4
(lp18
sI5
(lp19
sI6
(lp20
s.