(dp0
I1
(lp1
(dp2
S'label'
p3
I0
sS'string'
p4
VDeVos
p5
sS'start_index'
p6
I131
sS'end_index'
p7
I135
sa(dp8
g3
I0
sg4
VDeVos
p9
sg6
I175
sg7
I179
sa(dp10
g3
I0
sg4
VFamilies
p11
sg6
I283
sg7
I290
sa(dp12
g3
I0
sg4
VAdvocating
p13
sg6
I292
sg7
I301
sa(dp14
g3
I0
sg4
VCampus
p15
sg6
I307
sg7
I312
sa(dp16
g3
I0
sg4
VEquality
p17
sg6
I314
sg7
I321
sa(dp18
g3
I0
sg4
VFACE
p19
sg6
I326
sg7
I329
sa(dp20
g3
I0
sg4
VCynthia
p21
sg6
I444
sg7
I450
sa(dp22
g3
I0
sg4
VGarrett
p23
sg6
I452
sg7
I458
sa(dp24
g3
I0
sg4
VCongress
p25
sg6
I505
sg7
I512
sa(dp26
g3
I0
sg4
VCalifornia
p27
sg6
I643
sg7
I652
sa(dp28
g3
I0
sg4
VLegislature
p29
sg6
I654
sg7
I664
sa(dp30
g3
I0
sg4
VObama
p31
sg6
I725
sg7
I729
sa(dp32
g3
I0
sg4
VGov.
p33
sg6
I810
sg7
I813
sa(dp34
g3
I0
sg4
VJerry
p35
sg6
I815
sg7
I819
sa(dp36
g3
I0
sg4
VDemocrat
p37
sg6
I823
sg7
I830
sa(dp38
g3
I0
sg4
VSeefeld
p39
sg6
I1336
sg7
I1342
sa(dp40
g3
I0
sg4
VNorth
p41
sg6
I1495
sg7
I1499
sa(dp42
g3
I0
sg4
VDakota
p43
sg6
I1501
sg7
I1506
sa(dp44
g3
I0
sg4
VSeefeld
p45
sg6
I1647
sg7
I1653
sa(dp46
g3
I0
sg4
VCaleb
p47
sg6
I1669
sg7
I1673
sa(dp48
g3
I0
sg4
VWarner
p49
sg6
I1675
sg7
I1680
sasI2
(lp50
(dp51
g3
I0
sg4
VFamilies Advocating
p52
sg6
I283
sg7
I301
sa(dp53
g3
I0
sg4
VCampus Equality
p54
sg6
I307
sg7
I321
sa(dp55
g3
I0
sg4
VCynthia Garrett
p56
sg6
I444
sg7
I458
sa(dp57
g3
I0
sg4
VCalifornia Legislature
p58
sg6
I643
sg7
I664
sa(dp59
g3
I0
sg4
VNorth Dakota
p60
sg6
I1495
sg7
I1506
sa(dp61
g3
I0
sg4
VCaleb Warner
p62
sg6
I1669
sg7
I1680
sasI3
(lp63
(dp64
g3
I0
sg4
VUniversity of North
p65
sg6
I1481
sg7
I1499
sasI4
(lp66
(dp67
g3
I1
sg4
VUniversity of North Dakota
p68
sg6
I1481
sg7
I1506
sasI5
(lp69
sI6
(lp70
s.