(dp0
I1
(lp1
(dp2
S'label'
p3
I0
sS'string'
p4
VEducation
p5
sS'start_index'
p6
I0
sS'end_index'
p7
I8
sa(dp8
g3
I0
sg4
VSecretary
p9
sg6
I10
sg7
I18
sa(dp10
g3
I0
sg4
VBetsy
p11
sg6
I20
sg7
I24
sa(dp12
g3
I0
sg4
VDeVos
p13
sg6
I26
sg7
I30
sa(dp14
g3
I0
sg4
VGeorge
p15
sg6
I91
sg7
I96
sa(dp16
g3
I0
sg4
VMason
p17
sg6
I98
sg7
I102
sa(dp18
g3
I0
sg4
VVirginia
p19
sg6
I118
sg7
I125
sasI2
(lp20
(dp21
g3
I0
sg4
VEducation Secretary
p22
sg6
I0
sg7
I18
sa(dp23
g3
I0
sg4
VSecretary Betsy
p24
sg6
I10
sg7
I24
sa(dp25
g3
I0
sg4
VBetsy DeVos
p26
sg6
I20
sg7
I30
sa(dp27
g3
I0
sg4
VGeorge Mason
p28
sg6
I91
sg7
I102
sa(dp29
g3
I0
sg4
VMason University
p30
sg6
I98
sg7
I113
sasI3
(lp31
(dp32
g3
I0
sg4
VEducation Secretary Betsy
p33
sg6
I0
sg7
I24
sa(dp34
g3
I0
sg4
VSecretary Betsy DeVos
p35
sg6
I10
sg7
I30
sa(dp36
g3
I1
sg4
VGeorge Mason University
p37
sg6
I91
sg7
I113
sasI4
(lp38
(dp39
g3
I0
sg4
VEducation Secretary Betsy DeVos
p40
sg6
I0
sg7
I30
sasI5
(lp41
sI6
(lp42
s.