(dp0
I1
(lp1
(dp2
S'label'
p3
I0
sS'string'
p4
VCapitalism
p5
sS'start_index'
p6
I148
sS'end_index'
p7
I157
sa(dp8
g3
I0
sg4
VFreedom
p9
sg6
I163
sg7
I169
sa(dp10
g3
I0
sg4
VMilton
p11
sg6
I174
sg7
I179
sa(dp12
g3
I0
sg4
VFriedman
p13
sg6
I181
sg7
I188
sa(dp14
g3
I0
sg4
VChicago
p15
sg6
I216
sg7
I222
sa(dp16
g3
I0
sg4
VFriedman
p17
sg6
I353
sg7
I360
sa(dp18
g3
I0
sg4
VEconomic
p19
sg6
I413
sg7
I420
sa(dp20
g3
I0
sg4
VEquality
p21
sg6
I560
sg7
I567
sa(dp22
g3
I0
sg4
VEfficiency
p23
sg6
I573
sg7
I582
sa(dp24
g3
I0
sg4
VBig
p25
sg6
I588
sg7
I590
sa(dp26
g3
I0
sg4
VTradeoff
p27
sg6
I592
sg7
I599
sa(dp28
g3
I0
sg4
VArthur
p29
sg6
I604
sg7
I609
sa(dp30
g3
I0
sg4
VOkun
p31
sg6
I614
sg7
I617
sa(dp32
g3
I0
sg4
VBrookings
p33
sg6
I642
sg7
I650
sa(dp34
g3
I0
sg4
VInstitution
p35
sg6
I652
sg7
I662
sa(dp36
g3
I0
sg4
VPresident
p37
sg6
I686
sg7
I694
sa(dp38
g3
I0
sg4
VLyndon
p39
sg6
I696
sg7
I701
sa(dp40
g3
I0
sg4
VJohnson.
p41
sg6
I706
sg7
I713
sa(dp42
g3
I0
sg4
VAccording
p43
sg6
I715
sg7
I723
sa(dp44
g3
I0
sg4
VOkun
p45
sg6
I732
sg7
I735
sa(dp46
g3
I0
sg4
VThomas
p47
sg6
I943
sg7
I948
sa(dp48
g3
I0
sg4
VPiketty
p49
sg6
I950
sg7
I956
sa(dp50
g3
I0
sg4
VEconomics
p51
sg6
I974
sg7
I982
sa(dp52
g3
I0
sg4
VInequality
p53
sg6
I987
sg7
I996
sa(dp54
g3
I0
sg4
VCapital
p55
sg6
I1029
sg7
I1035
sa(dp56
g3
I0
sg4
VTwenty
p57
sg6
I1044
sg7
I1049
sa(dp58
g3
I0
sg4
VCentury
p59
sg6
I1057
sg7
I1063
sa(dp60
g3
I0
sg4
VFair
p61
sg6
I1152
sg7
I1155
sa(dp62
g3
I0
sg4
VPlay
p63
sg6
I1157
sg7
I1160
sa(dp64
g3
I0
sg4
VChild
p65
sg6
I1172
sg7
I1176
sa(dp66
g3
I0
sg4
VCan
p67
sg6
I1178
sg7
I1180
sa(dp68
g3
I0
sg4
VTeach
p69
sg6
I1182
sg7
I1186
sa(dp70
g3
I0
sg4
VEconomics
p71
sg6
I1198
sg7
I1206
sa(dp72
g3
I0
sg4
VValues
p73
sg6
I1208
sg7
I1213
sa(dp74
g3
I0
sg4
VMeaning
p75
sg6
I1223
sg7
I1229
sa(dp76
g3
I0
sg4
VLife
p77
sg6
I1234
sg7
I1237
sa(dp78
g3
I0
sg4
VRochester
p79
sg6
I1273
sg7
I1281
sa(dp80
g3
I0
sg4
VSteven
p81
sg6
I1293
sg7
I1298
sa(dp82
g3
I0
sg4
VLandsburg.
p83
sg6
I1303
sg7
I1312
sa(dp84
g3
I0
sg4
VNudge
p85
sg6
I1657
sg7
I1661
sa(dp86
g3
I0
sg4
VImproving
p87
sg6
I1663
sg7
I1671
sa(dp88
g3
I0
sg4
VDecisions
p89
sg6
I1673
sg7
I1681
sa(dp90
g3
I0
sg4
VHealth
p91
sg6
I1689
sg7
I1694
sa(dp92
g3
I0
sg4
VWealth
p93
sg6
I1696
sg7
I1701
sa(dp94
g3
I0
sg4
VHappiness
p95
sg6
I1707
sg7
I1715
sa(dp96
g3
I0
sg4
VChicago
p97
sg6
I1738
sg7
I1744
sa(dp98
g3
I0
sg4
VRichard
p99
sg6
I1756
sg7
I1762
sa(dp100
g3
I0
sg4
VThaler
p101
sg6
I1767
sg7
I1772
sa(dp102
g3
I1
sg4
VHarvard
p103
sg6
I1782
sg7
I1788
sa(dp104
g3
I0
sg4
VCass
p105
sg6
I1804
sg7
I1807
sa(dp106
g3
I0
sg4
VSunstein.
p107
sg6
I1812
sg7
I1820
sa(dp108
g3
I0
sg4
VScarcity
p109
sg6
I1846
sg7
I1853
sa(dp110
g3
I0
sg4
VNew
p111
sg6
I1859
sg7
I1861
sa(dp112
g3
I0
sg4
VScience
p113
sg6
I1863
sg7
I1869
sa(dp114
g3
I0
sg4
VHaving
p115
sg6
I1874
sg7
I1879
sa(dp116
g3
I0
sg4
VDefines
p117
sg6
I1897
sg7
I1903
sa(dp118
g3
I0
sg4
VLives
p119
sg6
I1909
sg7
I1913
sa(dp120
g3
I1
sg4
VHarvard
p121
sg6
I1943
sg7
I1949
sa(dp122
g3
I0
sg4
VSendhil
p123
sg6
I1961
sg7
I1967
sa(dp124
g3
I0
sg4
VMullainathan
p125
sg6
I1969
sg7
I1980
sa(dp126
g3
I1
sg4
VPrinceton
p127
sg6
I1990
sg7
I1998
sa(dp128
g3
I0
sg4
VEldar
p129
sg6
I2013
sg7
I2017
sa(dp130
g3
I0
sg4
VShafir.
p131
sg6
I2019
sg7
I2025
sa(dp132
g3
I0
sg4
VMyth
p133
sg6
I2058
sg7
I2061
sa(dp134
g3
I0
sg4
VRational
p135
sg6
I2070
sg7
I2077
sa(dp136
g3
I0
sg4
VVoter
p137
sg6
I2079
sg7
I2083
sa(dp138
g3
I0
sg4
VWhy
p139
sg6
I2085
sg7
I2087
sa(dp140
g3
I0
sg4
VDemocracies
p141
sg6
I2089
sg7
I2099
sa(dp142
g3
I0
sg4
VChoose
p143
sg6
I2101
sg7
I2106
sa(dp144
g3
I0
sg4
VBad
p145
sg6
I2108
sg7
I2110
sa(dp146
g3
I0
sg4
VPolicies
p147
sg6
I2112
sg7
I2119
sa(dp148
g3
I0
sg4
VBryan
p149
sg6
I2124
sg7
I2128
sa(dp150
g3
I0
sg4
VCaplan
p151
sg6
I2130
sg7
I2135
sa(dp152
g3
I0
sg4
VGeorge
p153
sg6
I2153
sg7
I2158
sa(dp154
g3
I0
sg4
VMason
p155
sg6
I2160
sg7
I2164
sa(dp156
g3
I0
sg4
VUniversity.
p157
sg6
I2166
sg7
I2176
sa(dp158
g3
I0
sg4
VWashington
p159
sg6
I2255
sg7
I2264
sasI2
(lp160
(dp161
g3
I0
sg4
VMilton Friedman
p162
sg6
I174
sg7
I188
sa(dp163
g3
I0
sg4
VBig Tradeoff
p164
sg6
I588
sg7
I599
sa(dp165
g3
I0
sg4
VArthur M.
p166
sg6
I604
sg7
I612
sa(dp167
g3
I0
sg4
VM. Okun
p168
sg6
I611
sg7
I617
sa(dp169
g3
I0
sg4
VBrookings Institution
p170
sg6
I642
sg7
I662
sa(dp171
g3
I0
sg4
VPresident Lyndon
p172
sg6
I686
sg7
I701
sa(dp173
g3
I0
sg4
VLyndon B.
p174
sg6
I696
sg7
I704
sa(dp175
g3
I0
sg4
VB. Johnson.
p176
sg6
I703
sg7
I713
sa(dp177
g3
I0
sg4
VThomas Piketty
p178
sg6
I943
sg7
I956
sa(dp179
g3
I0
sg4
VFair Play
p180
sg6
I1152
sg7
I1160
sa(dp181
g3
I0
sg4
VChild Can
p182
sg6
I1172
sg7
I1180
sa(dp183
g3
I0
sg4
VCan Teach
p184
sg6
I1178
sg7
I1186
sa(dp185
g3
I0
sg4
VEconomics Values
p186
sg6
I1198
sg7
I1213
sa(dp187
g3
I0
sg4
VSteven E.
p188
sg6
I1293
sg7
I1301
sa(dp189
g3
I0
sg4
VE. Landsburg.
p190
sg6
I1300
sg7
I1312
sa(dp191
g3
I0
sg4
VNudge Improving
p192
sg6
I1657
sg7
I1671
sa(dp193
g3
I0
sg4
VImproving Decisions
p194
sg6
I1663
sg7
I1681
sa(dp195
g3
I0
sg4
VHealth Wealth
p196
sg6
I1689
sg7
I1701
sa(dp197
g3
I0
sg4
VRichard H.
p198
sg6
I1756
sg7
I1765
sa(dp199
g3
I0
sg4
VH. Thaler
p200
sg6
I1764
sg7
I1772
sa(dp201
g3
I0
sg4
VCass R.
p202
sg6
I1804
sg7
I1810
sa(dp203
g3
I0
sg4
VR. Sunstein.
p204
sg6
I1809
sg7
I1820
sa(dp205
g3
I0
sg4
VNew Science
p206
sg6
I1859
sg7
I1869
sa(dp207
g3
I0
sg4
VSendhil Mullainathan
p208
sg6
I1961
sg7
I1980
sa(dp209
g3
I0
sg4
VEldar Shafir.
p210
sg6
I2013
sg7
I2025
sa(dp211
g3
I0
sg4
VRational Voter
p212
sg6
I2070
sg7
I2083
sa(dp213
g3
I0
sg4
VVoter Why
p214
sg6
I2079
sg7
I2087
sa(dp215
g3
I0
sg4
VWhy Democracies
p216
sg6
I2085
sg7
I2099
sa(dp217
g3
I0
sg4
VDemocracies Choose
p218
sg6
I2089
sg7
I2106
sa(dp219
g3
I0
sg4
VChoose Bad
p220
sg6
I2101
sg7
I2110
sa(dp221
g3
I0
sg4
VBad Policies
p222
sg6
I2108
sg7
I2119
sa(dp223
g3
I0
sg4
VBryan Caplan
p224
sg6
I2124
sg7
I2135
sa(dp225
g3
I0
sg4
VGeorge Mason
p226
sg6
I2153
sg7
I2164
sa(dp227
g3
I0
sg4
VMason University.
p228
sg6
I2160
sg7
I2176
sasI3
(lp229
(dp230
g3
I0
sg4
VCapitalism and Freedom
p231
sg6
I148
sg7
I169
sa(dp232
g3
I1
sg4
VUniversity of Chicago
p233
sg6
I202
sg7
I222
sa(dp234
g3
I0
sg4
VEquality and Efficiency
p235
sg6
I560
sg7
I582
sa(dp236
g3
I0
sg4
VArthur M. Okun
p237
sg6
I604
sg7
I617
sa(dp238
g3
I0
sg4
VPresident Lyndon B.
p239
sg6
I686
sg7
I704
sa(dp240
g3
I0
sg4
VLyndon B. Johnson.
p241
sg6
I696
sg7
I713
sa(dp242
g3
I0
sg4
VEconomics of Inequality
p243
sg6
I974
sg7
I996
sa(dp244
g3
I0
sg4
VChild Can Teach
p245
sg6
I1172
sg7
I1186
sa(dp246
g3
I0
sg4
VMeaning of Life
p247
sg6
I1223
sg7
I1237
sa(dp248
g3
I1
sg4
VUniversity of Rochester
p249
sg6
I1259
sg7
I1281
sa(dp250
g3
I0
sg4
VSteven E. Landsburg.
p251
sg6
I1293
sg7
I1312
sa(dp252
g3
I0
sg4
VNudge Improving Decisions
p253
sg6
I1657
sg7
I1681
sa(dp254
g3
I0
sg4
VWealth and Happiness
p255
sg6
I1696
sg7
I1715
sa(dp256
g3
I1
sg4
VUniversity of Chicago
p257
sg6
I1724
sg7
I1744
sa(dp258
g3
I0
sg4
VRichard H. Thaler
p259
sg6
I1756
sg7
I1772
sa(dp260
g3
I0
sg4
VCass R. Sunstein.
p261
sg6
I1804
sg7
I1820
sa(dp262
g3
I0
sg4
VScience of Having
p263
sg6
I1863
sg7
I1879
sa(dp264
g3
I0
sg4
VRational Voter Why
p265
sg6
I2070
sg7
I2087
sa(dp266
g3
I0
sg4
VVoter Why Democracies
p267
sg6
I2079
sg7
I2099
sa(dp268
g3
I0
sg4
VWhy Democracies Choose
p269
sg6
I2085
sg7
I2106
sa(dp270
g3
I0
sg4
VDemocracies Choose Bad
p271
sg6
I2089
sg7
I2110
sa(dp272
g3
I0
sg4
VChoose Bad Policies
p273
sg6
I2101
sg7
I2119
sa(dp274
g3
I1
sg4
VGeorge Mason University.
p275
sg6
I2153
sg7
I2176
sasI4
(lp276
(dp277
g3
I0
sg4
VPresident Lyndon B. Johnson.
p278
sg6
I686
sg7
I713
sa(dp279
g3
I0
sg4
VHealth Wealth and Happiness
p280
sg6
I1689
sg7
I1715
sa(dp281
g3
I0
sg4
VNew Science of Having
p282
sg6
I1859
sg7
I1879
sa(dp283
g3
I0
sg4
VRational Voter Why Democracies
p284
sg6
I2070
sg7
I2099
sa(dp285
g3
I0
sg4
VVoter Why Democracies Choose
p286
sg6
I2079
sg7
I2106
sa(dp287
g3
I0
sg4
VWhy Democracies Choose Bad
p288
sg6
I2085
sg7
I2110
sa(dp289
g3
I0
sg4
VDemocracies Choose Bad Policies
p290
sg6
I2089
sg7
I2119
sasI5
(lp291
(dp292
g3
I0
sg4
VRational Voter Why Democracies Choose
p293
sg6
I2070
sg7
I2106
sa(dp294
g3
I0
sg4
VVoter Why Democracies Choose Bad
p295
sg6
I2079
sg7
I2110
sa(dp296
g3
I0
sg4
VWhy Democracies Choose Bad Policies
p297
sg6
I2085
sg7
I2119
sasI6
(lp298
(dp299
g3
I0
sg4
VRational Voter Why Democracies Choose Bad
p300
sg6
I2070
sg7
I2110
sa(dp301
g3
I0
sg4
VVoter Why Democracies Choose Bad Policies
p302
sg6
I2079
sg7
I2119
sas.