(dp0
I1
(lp1
(dp2
S'label'
p3
I0
sS'string'
p4
VAlison
p5
sS'start_index'
p6
I124
sS'end_index'
p7
I129
sa(dp8
g3
I0
sg4
VDeVos
p9
sg6
I187
sg7
I191
sa(dp10
g3
I0
sg4
VJuly.
p11
sg6
I196
sg7
I200
sa(dp12
g3
I0
sg4
VAlison
p13
sg6
I221
sg7
I226
sa(dp14
g3
I0
sg4
VJudith
p15
sg6
I315
sg7
I320
sa(dp16
g3
I0
sg4
VDemocrat
p17
sg6
I548
sg7
I555
sa(dp18
g3
I0
sg4
VGloria
p19
sg6
I985
sg7
I990
sa(dp20
g3
I0
sg4
VDavidson
p21
sg6
I992
sg7
I999
sa(dp22
g3
I0
sg4
VJessica
p23
sg6
I1016
sg7
I1022
sa(dp24
g3
I0
sg4
VEnd
p25
sg6
I1029
sg7
I1031
sa(dp26
g3
I0
sg4
VRape
p27
sg6
I1033
sg7
I1036
sa(dp28
g3
I0
sg4
VCampus
p29
sg6
I1041
sg7
I1046
sa(dp30
g3
I0
sg4
VDavidson
p31
sg6
I1233
sg7
I1240
sa(dp32
g3
I0
sg4
VSeefeld.
p33
sg6
I1402
sg7
I1409
sa(dp34
g3
I0
sg4
VWarner
p35
sg6
I1431
sg7
I1436
sa(dp36
g3
I0
sg4
VNorth
p37
sg6
I1525
sg7
I1529
sa(dp38
g3
I0
sg4
VDakota.
p39
sg6
I1531
sg7
I1537
sa(dp40
g3
I0
sg4
VWarner
p41
sg6
I1543
sg7
I1548
sasI2
(lp42
(dp43
g3
I0
sg4
VGloria Davidson
p44
sg6
I985
sg7
I999
sa(dp45
g3
I0
sg4
VEnd Rape
p46
sg6
I1029
sg7
I1036
sa(dp47
g3
I0
sg4
VNorth Dakota.
p48
sg6
I1525
sg7
I1537
sasI3
(lp49
(dp50
g3
I0
sg4
VUniversity of North
p51
sg6
I1511
sg7
I1529
sasI4
(lp52
(dp53
g3
I1
sg4
VUniversity of North Dakota.
p54
sg6
I1511
sg7
I1537
sasI5
(lp55
sI6
(lp56
s.