(dp0
I1
(lp1
(dp2
S'label'
p3
I0
sS'string'
p4
VAmerican
p5
sS'start_index'
p6
I500
sS'end_index'
p7
I507
sa(dp8
g3
I0
sg4
VEconomic
p9
sg6
I509
sg7
I516
sa(dp10
g3
I0
sg4
VAssociation
p11
sg6
I518
sg7
I528
sa(dp12
g3
I0
sg4
VCommittee
p13
sg6
I532
sg7
I540
sa(dp14
g3
I0
sg4
VStatus
p15
sg6
I550
sg7
I555
sa(dp16
g3
I0
sg4
VWomen
p17
sg6
I560
sg7
I564
sa(dp18
g3
I0
sg4
VEconomics
p19
sg6
I573
sg7
I581
sa(dp20
g3
I0
sg4
VProfession
p21
sg6
I583
sg7
I592
sa(dp22
g3
I0
sg4
VPh.
p23
sg6
I719
sg7
I721
sa(dp24
g3
I0
sg4
VMargaret
p25
sg6
I1250
sg7
I1257
sa(dp26
g3
I0
sg4
VLevenstein
p27
sg6
I1259
sg7
I1268
sa(dp28
g3
I0
sg4
VMichigan.
p29
sg6
I1304
sg7
I1312
sa(dp30
g3
I0
sg4
VCensus
p31
sg6
I1347
sg7
I1352
sa(dp32
g3
I0
sg4
VBureau
p33
sg6
I1354
sg7
I1359
sa(dp34
g3
I0
sg4
VAmerican
p35
sg6
I1363
sg7
I1370
sa(dp36
g3
I0
sg4
VCommunity
p37
sg6
I1372
sg7
I1380
sa(dp38
g3
I0
sg4
VSurvey
p39
sg6
I1382
sg7
I1387
sa(dp40
g3
I0
sg4
VLevenstein
p41
sg6
I1432
sg7
I1441
sa(dp42
g3
I0
sg4
VCommittee
p43
sg6
I1542
sg7
I1550
sa(dp44
g3
I0
sg4
VStatus
p45
sg6
I1560
sg7
I1565
sa(dp46
g3
I0
sg4
VWomen
p47
sg6
I1570
sg7
I1574
sa(dp48
g3
I0
sg4
VEconomics
p49
sg6
I1583
sg7
I1591
sa(dp50
g3
I0
sg4
VProfession
p51
sg6
I1593
sg7
I1602
sasI2
(lp52
(dp53
g3
I0
sg4
VAmerican Economic
p54
sg6
I500
sg7
I516
sa(dp55
g3
I0
sg4
VEconomic Association
p56
sg6
I509
sg7
I528
sa(dp57
g3
I0
sg4
VEconomics Profession
p58
sg6
I573
sg7
I592
sa(dp59
g3
I0
sg4
VPh. D.
p60
sg6
I719
sg7
I724
sa(dp61
g3
I0
sg4
VMargaret Levenstein
p62
sg6
I1250
sg7
I1268
sa(dp63
g3
I0
sg4
VCensus Bureau
p64
sg6
I1347
sg7
I1359
sa(dp65
g3
I0
sg4
VAmerican Community
p66
sg6
I1363
sg7
I1380
sa(dp67
g3
I0
sg4
VCommunity Survey
p68
sg6
I1372
sg7
I1387
sa(dp69
g3
I0
sg4
VEconomics Profession
p70
sg6
I1583
sg7
I1602
sasI3
(lp71
(dp72
g3
I0
sg4
VAmerican Economic Association
p73
sg6
I500
sg7
I528
sa(dp74
g3
I0
sg4
VStatus of Women
p75
sg6
I550
sg7
I564
sa(dp76
g3
I1
sg4
VUniversity of Michigan.
p77
sg6
I1290
sg7
I1312
sa(dp78
g3
I0
sg4
VAmerican Community Survey
p79
sg6
I1363
sg7
I1387
sa(dp80
g3
I0
sg4
VStatus of Women
p81
sg6
I1560
sg7
I1574
sasI4
(lp82
sI5
(lp83
sI6
(lp84
s.