(dp0
I1
(lp1
(dp2
S'label'
p3
I0
sS'string'
p4
VJanet
p5
sS'start_index'
p6
I56
sS'end_index'
p7
I60
sa(dp8
g3
I0
sg4
VYellen
p9
sg6
I62
sg7
I67
sa(dp10
g3
I0
sg4
VFederal
p11
sg6
I105
sg7
I111
sa(dp12
g3
I0
sg4
VReserve
p13
sg6
I113
sg7
I119
sa(dp14
g3
I0
sg4
VYellen
p15
sg6
I143
sg7
I148
sa(dp16
g3
I1
sg4
VHarvard.
p17
sg6
I189
sg7
I196
sa(dp18
g3
I0
sg4
VTreasury
p19
sg6
I228
sg7
I235
sa(dp20
g3
I0
sg4
VCouncil
p21
sg6
I291
sg7
I297
sa(dp22
g3
I0
sg4
VEconomic
p23
sg6
I302
sg7
I309
sa(dp24
g3
I0
sg4
VAdvisers
p25
sg6
I311
sg7
I318
sa(dp26
g3
I0
sg4
VRepublican
p27
sg6
I344
sg7
I353
sa(dp28
g3
I0
sg4
VWomen
p29
sg6
I366
sg7
I370
sa(dp30
g3
I0
sg4
VChicago
p31
sg6
I500
sg7
I506
sa(dp32
g3
I1
sg4
VNorthwestern
p33
sg6
I551
sg7
I562
sa(dp34
g3
I0
sg4
VAmerican
p35
sg6
I890
sg7
I897
sa(dp36
g3
I0
sg4
VEconomic
p37
sg6
I899
sg7
I906
sa(dp38
g3
I0
sg4
VAssociation
p39
sg6
I908
sg7
I918
sa(dp40
g3
I0
sg4
VConsider
p41
sg6
I1232
sg7
I1239
sa(dp42
g3
I0
sg4
VFully
p43
sg6
I1328
sg7
I1332
sa(dp44
g3
I0
sg4
VUnited
p45
sg6
I1373
sg7
I1378
sa(dp46
g3
I0
sg4
VStates
p47
sg6
I1380
sg7
I1385
sa(dp48
g3
I0
sg4
VFemale
p49
sg6
I1460
sg7
I1465
sa(dp50
g3
I0
sg4
VUnited
p51
sg6
I1532
sg7
I1537
sa(dp52
g3
I0
sg4
VStates
p53
sg6
I1539
sg7
I1544
sa(dp54
g3
I0
sg4
VUnited
p55
sg6
I1614
sg7
I1619
sa(dp56
g3
I0
sg4
VStates
p57
sg6
I1621
sg7
I1626
sa(dp58
g3
I0
sg4
VPerhaps
p59
sg6
I1897
sg7
I1903
sa(dp60
g3
I0
sg4
VOther
p61
sg6
I2149
sg7
I2153
sa(dp62
g3
I0
sg4
VWomen
p63
sg6
I2303
sg7
I2307
sasI2
(lp64
(dp65
g3
I0
sg4
VJanet Yellen
p66
sg6
I56
sg7
I67
sa(dp67
g3
I0
sg4
VFederal Reserve
p68
sg6
I105
sg7
I119
sa(dp69
g3
I0
sg4
VEconomic Advisers
p70
sg6
I302
sg7
I318
sa(dp71
g3
I0
sg4
VAmerican Economic
p72
sg6
I890
sg7
I906
sa(dp73
g3
I0
sg4
VEconomic Association
p74
sg6
I899
sg7
I918
sa(dp75
g3
I0
sg4
VUnited States
p76
sg6
I1373
sg7
I1385
sa(dp77
g3
I0
sg4
VUnited States
p78
sg6
I1532
sg7
I1544
sa(dp79
g3
I0
sg4
VUnited States
p80
sg6
I1614
sg7
I1626
sasI3
(lp81
(dp82
g3
I0
sg4
VCouncil of Economic
p83
sg6
I291
sg7
I309
sa(dp84
g3
I1
sg4
VUniversity of Chicago
p85
sg6
I486
sg7
I506
sa(dp86
g3
I0
sg4
VAmerican Economic Association
p87
sg6
I890
sg7
I918
sasI4
(lp88
(dp89
g3
I0
sg4
VCouncil of Economic Advisers
p90
sg6
I291
sg7
I318
sasI5
(lp91
sI6
(lp92
s.