(dp0
I1
(lp1
(dp2
S'label'
p3
I0
sS'string'
p4
VANN
p5
sS'start_index'
p6
I0
sS'end_index'
p7
I2
sa(dp8
g3
I0
sg4
VARBOR
p9
sg6
I4
sg7
I8
sa(dp10
g3
I0
sg4
VMich.
p11
sg6
I10
sg7
I14
sa(dp12
g3
I0
sg4
VDonald
p13
sg6
I51
sg7
I56
sa(dp14
g3
I0
sg4
VTrump
p15
sg6
I58
sg7
I62
sa(dp16
g3
I0
sg4
VMichigan
p17
sg6
I245
sg7
I252
sa(dp18
g3
I0
sg4
VLatinos
p19
sg6
I367
sg7
I373
sa(dp20
g3
I0
sg4
VTrump
p21
sg6
I394
sg7
I398
sa(dp22
g3
I0
sg4
VMAGA
p23
sg6
I408
sg7
I411
sa(dp24
g3
I0
sg4
VMake
p25
sg6
I413
sg7
I416
sa(dp26
g3
I0
sg4
VAmerica
p27
sg6
I418
sg7
I424
sa(dp28
g3
I0
sg4
VGreat
p29
sg6
I426
sg7
I430
sa(dp30
g3
I0
sg4
VAgain
p31
sg6
I432
sg7
I436
sa(dp32
g3
I0
sg4
VAfrican
p33
sg6
I499
sg7
I505
sa(dp34
g3
I0
sg4
VAmerican
p35
sg6
I507
sg7
I514
sa(dp36
g3
I0
sg4
VFree
p37
sg6
I644
sg7
I647
sa(dp38
g3
I0
sg4
VDylann
p39
sg6
I649
sg7
I654
sa(dp40
g3
I0
sg4
VRoof
p41
sg6
I656
sg7
I659
sa(dp42
g3
I0
sg4
VCharleston
p43
sg6
I741
sg7
I750
sa(dp44
g3
I0
sg4
VMichigan
p45
sg6
I840
sg7
I847
sa(dp46
g3
I0
sg4
VMeanwhile
p47
sg6
I1330
sg7
I1338
sasI2
(lp48
(dp49
g3
I0
sg4
VANN ARBOR
p50
sg6
I0
sg7
I8
sa(dp51
g3
I0
sg4
VARBOR Mich.
p52
sg6
I4
sg7
I14
sa(dp53
g3
I0
sg4
VDonald Trump
p54
sg6
I51
sg7
I62
sa(dp55
g3
I0
sg4
VMAGA Make
p56
sg6
I408
sg7
I416
sa(dp57
g3
I0
sg4
VMake America
p58
sg6
I413
sg7
I424
sa(dp59
g3
I0
sg4
VAmerica Great
p60
sg6
I418
sg7
I430
sa(dp61
g3
I0
sg4
VGreat Again
p62
sg6
I426
sg7
I436
sa(dp63
g3
I0
sg4
VAfrican American
p64
sg6
I499
sg7
I514
sa(dp65
g3
I0
sg4
VFree Dylann
p66
sg6
I644
sg7
I654
sa(dp67
g3
I0
sg4
VDylann Roof
p68
sg6
I649
sg7
I659
sa(dp69
g3
I0
sg4
VCharleston S.
p70
sg6
I741
sg7
I753
sa(dp71
g3
I0
sg4
VS. C.
p72
sg6
I752
sg7
I756
sasI3
(lp73
(dp74
g3
I0
sg4
VANN ARBOR Mich.
p75
sg6
I0
sg7
I14
sa(dp76
g3
I1
sg4
VUniversity of Michigan
p77
sg6
I231
sg7
I252
sa(dp78
g3
I0
sg4
VMAGA Make America
p79
sg6
I408
sg7
I424
sa(dp80
g3
I0
sg4
VMake America Great
p81
sg6
I413
sg7
I430
sa(dp82
g3
I0
sg4
VAmerica Great Again
p83
sg6
I418
sg7
I436
sa(dp84
g3
I0
sg4
VFree Dylann Roof
p85
sg6
I644
sg7
I659
sa(dp86
g3
I0
sg4
VCharleston S. C.
p87
sg6
I741
sg7
I756
sasI4
(lp88
(dp89
g3
I0
sg4
VMAGA Make America Great
p90
sg6
I408
sg7
I430
sa(dp91
g3
I0
sg4
VMake America Great Again
p92
sg6
I413
sg7
I436
sasI5
(lp93
(dp94
g3
I0
sg4
VMAGA Make America Great Again
p95
sg6
I408
sg7
I436
sasI6
(lp96
s.