(dp0
I1
(lp1
(dp2
S'label'
p3
I1
sS'string'
p4
VMichigan
p5
sS'start_index'
p6
I3
sS'end_index'
p7
I10
sa(dp8
g3
I0
sg4
VRosa
p9
sg6
I98
sg7
I101
sa(dp10
g3
I0
sg4
VParks
p11
sg6
I103
sg7
I107
sa(dp12
g3
I0
sg4
VFrances
p13
sg6
I1015
sg7
I1021
sa(dp14
g3
I0
sg4
VFox
p15
sg6
I1023
sg7
I1025
sa(dp16
g3
I0
sg4
VPiven
p17
sg6
I1027
sg7
I1031
sa(dp18
g3
I0
sg4
VNation
p19
sg6
I1046
sg7
I1051
sa(dp20
g3
I0
sg4
VRosa
p21
sg6
I1335
sg7
I1338
sa(dp22
g3
I0
sg4
VParks
p23
sg6
I1340
sg7
I1344
sa(dp24
g3
I0
sg4
VJeanne
p25
sg6
I1371
sg7
I1376
sa(dp26
g3
I0
sg4
VTheoharis
p27
sg6
I1378
sg7
I1386
sa(dp28
g3
I0
sg4
VParks
p29
sg6
I1417
sg7
I1421
sasI2
(lp30
(dp31
g3
I0
sg4
VRosa Parks
p32
sg6
I98
sg7
I107
sa(dp33
g3
I0
sg4
VFrances Fox
p34
sg6
I1015
sg7
I1025
sa(dp35
g3
I0
sg4
VFox Piven
p36
sg6
I1023
sg7
I1031
sa(dp37
g3
I0
sg4
VRosa Parks
p38
sg6
I1335
sg7
I1344
sa(dp39
g3
I0
sg4
VJeanne Theoharis
p40
sg6
I1371
sg7
I1386
sasI3
(lp41
(dp42
g3
I0
sg4
VFrances Fox Piven
p43
sg6
I1015
sg7
I1031
sasI4
(lp44
sI5
(lp45
sI6
(lp46
s.