(dp0
I1
(lp1
(dp2
S'label'
p3
I0
sS'string'
p4
VTexas
p5
sS'start_index'
p6
I55
sS'end_index'
p7
I59
sa(dp8
g3
I0
sg4
VState
p9
sg6
I61
sg7
I65
sa(dp10
g3
I0
sg4
VAnother
p11
sg6
I108
sg7
I114
sa(dp12
g3
I0
sg4
VFlorida
p13
sg6
I136
sg7
I142
sa(dp14
g3
I0
sg4
VState
p15
sg6
I144
sg7
I148
sa(dp16
g3
I0
sg4
VPennsylvania
p17
sg6
I199
sg7
I210
sa(dp18
g3
I0
sg4
VState
p19
sg6
I212
sg7
I216
sa(dp20
g3
I0
sg4
VSecurity
p21
sg6
I248
sg7
I255
sa(dp22
g3
I0
sg4
VLouisiana
p23
sg6
I657
sg7
I665
sa(dp24
g3
I0
sg4
VState
p25
sg6
I667
sg7
I671
sa(dp26
g3
I0
sg4
VTexas
p27
sg6
I939
sg7
I943
sa(dp28
g3
I0
sg4
VFlorida
p29
sg6
I949
sg7
I955
sa(dp30
g3
I0
sg4
VHank
p31
sg6
I1109
sg7
I1112
sa(dp32
g3
I0
sg4
VNuwer
p33
sg6
I1114
sg7
I1118
sa(dp34
g3
I0
sg4
VHazing
p35
sg6
I1122
sg7
I1127
sa(dp36
g3
I0
sg4
VClearinghouse
p37
sg6
I1129
sg7
I1141
sasI2
(lp38
(dp39
g3
I0
sg4
VTexas State
p40
sg6
I55
sg7
I65
sa(dp41
g3
I0
sg4
VState University
p42
sg6
I61
sg7
I76
sa(dp43
g3
I0
sg4
VFlorida State
p44
sg6
I136
sg7
I148
sa(dp45
g3
I0
sg4
VState University
p46
sg6
I144
sg7
I159
sa(dp47
g3
I0
sg4
VPennsylvania State
p48
sg6
I199
sg7
I216
sa(dp49
g3
I0
sg4
VState University
p50
sg6
I212
sg7
I227
sa(dp51
g3
I0
sg4
VLouisiana State
p52
sg6
I657
sg7
I671
sa(dp53
g3
I0
sg4
VState University
p54
sg6
I667
sg7
I682
sa(dp55
g3
I0
sg4
VHank Nuwer
p56
sg6
I1109
sg7
I1118
sa(dp57
g3
I0
sg4
VHazing Clearinghouse
p58
sg6
I1122
sg7
I1141
sasI3
(lp59
(dp60
g3
I1
sg4
VTexas State University
p61
sg6
I55
sg7
I76
sa(dp62
g3
I1
sg4
VFlorida State University
p63
sg6
I136
sg7
I159
sa(dp64
g3
I1
sg4
VPennsylvania State University
p65
sg6
I199
sg7
I227
sa(dp66
g3
I1
sg4
VLouisiana State University
p67
sg6
I657
sg7
I682
sa(dp68
g3
I0
sg4
VTexas and Florida
p69
sg6
I939
sg7
I955
sasI4
(lp70
sI5
(lp71
sI6
(lp72
s.