(dp0
I1
(lp1
(dp2
S'label'
p3
I0
sS'string'
p4
VAlexander
p5
sS'start_index'
p6
I57
sS'end_index'
p7
I65
sa(dp8
g3
I0
sg4
VMcCormick
p9
sg6
I67
sg7
I75
sa(dp10
g3
I0
sg4
VIndiana
p11
sg6
I80
sg7
I86
sa(dp12
g3
I0
sg4
VNational
p13
sg6
I136
sg7
I143
sa(dp14
g3
I0
sg4
VSurvey
p15
sg6
I145
sg7
I150
sa(dp16
g3
I0
sg4
VEngagement
p17
sg6
I163
sg7
I172
sa(dp18
g3
I0
sg4
VAmerican
p19
sg6
I367
sg7
I374
sa(dp20
g3
I0
sg4
VPenn
p21
sg6
I954
sg7
I957
sa(dp22
g3
I0
sg4
VState
p23
sg6
I959
sg7
I963
sa(dp24
g3
I0
sg4
VGreek
p25
sg6
I1000
sg7
I1004
sa(dp26
g3
I0
sg4
VPride
p27
sg6
I1006
sg7
I1010
sa(dp28
g3
I0
sg4
VReturn
p29
sg6
I1014
sg7
I1019
sa(dp30
g3
I0
sg4
VGlory.
p31
sg6
I1024
sg7
I1029
sa(dp32
g3
I0
sg4
VBeta
p33
sg6
I1031
sg7
I1034
sa(dp34
g3
I0
sg4
VTheta
p35
sg6
I1036
sg7
I1040
sa(dp36
g3
I0
sg4
VTimothy
p37
sg6
I1274
sg7
I1280
sa(dp38
g3
I0
sg4
VPiazza.
p39
sg6
I1282
sg7
I1288
sa(dp40
g3
I0
sg4
VLisa
p41
sg6
I1401
sg7
I1404
sa(dp42
g3
I0
sg4
VWade
p43
sg6
I1406
sg7
I1409
sa(dp44
g3
I0
sg4
VOccidental
p45
sg6
I1414
sg7
I1423
sa(dp46
g3
I0
sg4
VAmerican
p47
sg6
I1471
sg7
I1478
sa(dp48
g3
I0
sg4
VHookup
p49
sg6
I1480
sg7
I1485
sa(dp50
g3
I0
sg4
VNew
p51
sg6
I1491
sg7
I1493
sa(dp52
g3
I0
sg4
VCulture
p53
sg6
I1495
sg7
I1501
sa(dp54
g3
I0
sg4
VSex
p55
sg6
I1506
sg7
I1508
sa(dp56
g3
I0
sg4
VCampus
p57
sg6
I1513
sg7
I1518
sa(dp58
g3
I0
sg4
VTime
p59
sg6
I1531
sg7
I1534
sa(dp60
g3
I0
sg4
VShy
p61
sg6
I1611
sg7
I1613
sa(dp62
g3
I0
sg4
VHechinger
p63
sg6
I1702
sg7
I1710
sa(dp64
g3
I0
sg4
VGreek
p65
sg6
I1790
sg7
I1794
sa(dp66
g3
I0
sg4
VWhy
p67
sg6
I1802
sg7
I1804
sa(dp68
g3
I0
sg4
VWade
p69
sg6
I2028
sg7
I2031
sa(dp70
g3
I0
sg4
VTime
p71
sg6
I2043
sg7
I2046
sa(dp72
g3
I0
sg4
VAmerican
p73
sg6
I2189
sg7
I2196
sa(dp74
g3
I0
sg4
VWade
p75
sg6
I2343
sg7
I2346
sasI2
(lp76
(dp77
g3
I0
sg4
VAlexander McCormick
p78
sg6
I57
sg7
I75
sa(dp79
g3
I1
sg4
VIndiana University
p80
sg6
I80
sg7
I97
sa(dp81
g3
I0
sg4
VNational Survey
p82
sg6
I136
sg7
I150
sa(dp83
g3
I0
sg4
VPenn State
p84
sg6
I954
sg7
I963
sa(dp85
g3
I0
sg4
VGreek Pride
p86
sg6
I1000
sg7
I1010
sa(dp87
g3
I0
sg4
VBeta Theta
p88
sg6
I1031
sg7
I1040
sa(dp89
g3
I0
sg4
VTheta Pi
p90
sg6
I1036
sg7
I1043
sa(dp91
g3
I0
sg4
VTimothy Piazza.
p92
sg6
I1274
sg7
I1288
sa(dp93
g3
I0
sg4
VLisa Wade
p94
sg6
I1401
sg7
I1409
sa(dp95
g3
I1
sg4
VOccidental College
p96
sg6
I1414
sg7
I1431
sa(dp97
g3
I0
sg4
VAmerican Hookup
p98
sg6
I1471
sg7
I1485
sa(dp99
g3
I0
sg4
VNew Culture
p100
sg6
I1491
sg7
I1501
sasI3
(lp101
(dp102
g3
I0
sg4
VBeta Theta Pi
p103
sg6
I1031
sg7
I1043
sa(dp104
g3
I0
sg4
VCulture of Sex
p105
sg6
I1495
sg7
I1508
sasI4
(lp106
(dp107
g3
I0
sg4
VNew Culture of Sex
p108
sg6
I1491
sg7
I1508
sasI5
(lp109
sI6
(lp110
s.