(dp0
I1
(lp1
(dp2
S'label'
p3
I0
sS'string'
p4
VRobert
p5
sS'start_index'
p6
I18
sS'end_index'
p7
I23
sa(dp8
g3
I0
sg4
VZimmer
p9
sg6
I25
sg7
I30
sa(dp10
g3
I0
sg4
VChina
p11
sg6
I60
sg7
I64
sa(dp12
g3
I0
sg4
VChicago
p13
sg6
I88
sg7
I94
sa(dp14
g3
I0
sg4
VNobel
p15
sg6
I139
sg7
I143
sa(dp16
g3
I0
sg4
VPrize
p17
sg6
I145
sg7
I149
sa(dp18
g3
I0
sg4
VRichard
p19
sg6
I215
sg7
I221
sa(dp20
g3
I0
sg4
VThaler.
p21
sg6
I223
sg7
I229
sa(dp22
g3
I0
sg4
VZimmer
p23
sg6
I231
sg7
I236
sa(dp24
g3
I0
sg4
VReflecting
p25
sg6
I374
sg7
I383
sa(dp26
g3
I0
sg4
VZimmer
p27
sg6
I411
sg7
I416
sa(dp28
g3
I0
sg4
VChinese
p29
sg6
I449
sg7
I455
sa(dp30
g3
I0
sg4
VAmerican
p31
sg6
I555
sg7
I562
sa(dp32
g3
I0
sg4
VChicago
p33
sg6
I683
sg7
I689
sa(dp34
g3
I0
sg4
VBig
p35
sg6
I785
sg7
I787
sa(dp36
g3
I0
sg4
VTen
p37
sg6
I789
sg7
I791
sa(dp38
g3
I0
sg4
VConference
p39
sg6
I793
sg7
I802
sa(dp40
g3
I0
sg4
VJay
p41
sg6
I923
sg7
I925
sa(dp42
g3
I0
sg4
VEllison
p43
sg6
I927
sg7
I933
sasI2
(lp44
(dp45
g3
I0
sg4
VRobert Zimmer
p46
sg6
I18
sg7
I30
sa(dp47
g3
I0
sg4
VNobel Prize
p48
sg6
I139
sg7
I149
sa(dp49
g3
I0
sg4
VRichard Thaler.
p50
sg6
I215
sg7
I229
sa(dp51
g3
I0
sg4
VBig Ten
p52
sg6
I785
sg7
I791
sa(dp53
g3
I0
sg4
VTen Conference
p54
sg6
I789
sg7
I802
sa(dp55
g3
I0
sg4
VJay Ellison
p56
sg6
I923
sg7
I933
sasI3
(lp57
(dp58
g3
I1
sg4
VUniversity of Chicago
p59
sg6
I74
sg7
I94
sa(dp60
g3
I1
sg4
VUniversity of Chicago
p61
sg6
I669
sg7
I689
sa(dp62
g3
I0
sg4
VBig Ten Conference
p63
sg6
I785
sg7
I802
sasI4
(lp64
sI5
(lp65
sI6
(lp66
s.