(dp0
I1
(lp1
(dp2
S'label'
p3
I0
sS'string'
p4
VConcerns
p5
sS'start_index'
p6
I0
sS'end_index'
p7
I7
sa(dp8
g3
I0
sg4
VRichard
p9
sg6
I422
sg7
I428
sa(dp10
g3
I0
sg4
VSpencer
p11
sg6
I430
sg7
I436
sa(dp12
g3
I0
sg4
VFlorida.
p13
sg6
I469
sg7
I476
sa(dp14
g3
I0
sg4
VAmendment
p15
sg6
I562
sg7
I570
sa(dp16
g3
I0
sg4
VAmendment
p17
sg6
I641
sg7
I649
sasI2
(lp18
(dp19
g3
I0
sg4
VRichard Spencer
p20
sg6
I422
sg7
I436
sasI3
(lp21
(dp22
g3
I1
sg4
VUniversity of Florida.
p23
sg6
I455
sg7
I476
sasI4
(lp24
sI5
(lp25
sI6
(lp26
s.