(dp0
I1
(lp1
(dp2
S'label'
p3
I0
sS'string'
p4
VBoudreau
p5
sS'start_index'
p6
I162
sS'end_index'
p7
I169
sa(dp8
g3
I0
sg4
VBoudreau
p9
sg6
I332
sg7
I339
sa(dp10
g3
I0
sg4
VJames
p11
sg6
I341
sg7
I345
sa(dp12
g3
I0
sg4
VMilliken
p13
sg6
I350
sg7
I357
sa(dp14
g3
I1
sg4
VCUNY
p15
sg6
I359
sg7
I362
sa(dp16
g3
I0
sg4
VBoudreau
p17
sg6
I493
sg7
I500
sa(dp18
g3
I0
sg4
VCity
p19
sg6
I572
sg7
I575
sa(dp20
g3
I0
sg4
VCity
p21
sg6
I742
sg7
I745
sa(dp22
g3
I1
sg4
VHarvard
p23
sg6
I786
sg7
I792
sa(dp24
g3
I0
sg4
VChronicle
p25
sg6
I1026
sg7
I1034
sa(dp26
g3
I0
sg4
VHigher
p27
sg6
I1039
sg7
I1044
sa(dp28
g3
I0
sg4
VEducation.
p29
sg6
I1046
sg7
I1055
sasI2
(lp30
(dp31
g3
I0
sg4
VBoudreau James
p32
sg6
I332
sg7
I345
sa(dp33
g3
I0
sg4
VJames B.
p34
sg6
I341
sg7
I348
sa(dp35
g3
I0
sg4
VB. Milliken
p36
sg6
I347
sg7
I357
sa(dp37
g3
I0
sg4
VMilliken CUNY
p38
sg6
I350
sg7
I362
sa(dp39
g3
I1
sg4
VCity College
p40
sg6
I572
sg7
I583
sa(dp41
g3
I1
sg4
VCity College
p42
sg6
I742
sg7
I753
sa(dp43
g3
I0
sg4
VHigher Education.
p44
sg6
I1039
sg7
I1055
sasI3
(lp45
(dp46
g3
I0
sg4
VBoudreau James B.
p47
sg6
I332
sg7
I348
sa(dp48
g3
I0
sg4
VJames B. Milliken
p49
sg6
I341
sg7
I357
sa(dp50
g3
I0
sg4
VB. Milliken CUNY
p51
sg6
I347
sg7
I362
sa(dp52
g3
I0
sg4
VChronicle of Higher
p53
sg6
I1026
sg7
I1044
sasI4
(lp54
(dp55
g3
I0
sg4
VBoudreau James B. Milliken
p56
sg6
I332
sg7
I357
sa(dp57
g3
I0
sg4
VJames B. Milliken CUNY
p58
sg6
I341
sg7
I362
sa(dp59
g3
I0
sg4
VChronicle of Higher Education.
p60
sg6
I1026
sg7
I1055
sasI5
(lp61
(dp62
g3
I0
sg4
VBoudreau James B. Milliken CUNY
p63
sg6
I332
sg7
I362
sasI6
(lp64
s.