(dp0
I1
(lp1
(dp2
S'label'
p3
I0
sS'string'
p4
VLEFT
p5
sS'start_index'
p6
I137
sS'end_index'
p7
I140
sa(dp8
g3
I0
sg4
VRIGHT
p9
sg6
I188
sg7
I192
sa(dp10
g3
I0
sg4
VPeople
p11
sg6
I333
sg7
I338
sa(dp12
g3
I1
sg4
VHarvard.
p13
sg6
I400
sg7
I407
sa(dp14
g3
I1
sg4
VHarvard
p15
sg6
I419
sg7
I425
sa(dp16
g3
I0
sg4
VAchieving
p17
sg6
I539
sg7
I547
sa(dp18
g3
I0
sg4
VDebating
p19
sg6
I876
sg7
I883
sa(dp20
g3
I0
sg4
VVirginia
p21
sg6
I1436
sg7
I1443
sa(dp22
g3
I0
sg4
VShaun
p23
sg6
I1452
sg7
I1456
sa(dp24
g3
I0
sg4
VHarper
p25
sg6
I1461
sg7
I1466
sa(dp26
g3
I0
sg4
VAlmost
p27
sg6
I1602
sg7
I1607
sa(dp28
g3
I0
sg4
VCharlottesville
p29
sg6
I1840
sg7
I1854
sa(dp30
g3
I0
sg4
VVa.
p31
sg6
I1856
sg7
I1858
sa(dp32
g3
I0
sg4
VAmerican
p33
sg6
I1926
sg7
I1933
sa(dp34
g3
I0
sg4
VAmendment.
p35
sg6
I2200
sg7
I2209
sa(dp36
g3
I0
sg4
VOthers
p37
sg6
I2211
sg7
I2216
sa(dp38
g3
I0
sg4
VJonathan
p39
sg6
I2462
sg7
I2469
sa(dp40
g3
I0
sg4
VGreenblatt
p41
sg6
I2471
sg7
I2480
sa(dp42
g3
I0
sg4
VAnti
p43
sg6
I2509
sg7
I2512
sa(dp44
g3
I0
sg4
VDefamation
p45
sg6
I2514
sg7
I2523
sa(dp46
g3
I0
sg4
VLeague.
p47
sg6
I2525
sg7
I2531
sa(dp48
g3
I0
sg4
VCharlottesville.
p49
sg6
I2556
sg7
I2571
sasI2
(lp50
(dp51
g3
I0
sg4
VShaun R.
p52
sg6
I1452
sg7
I1459
sa(dp53
g3
I0
sg4
VR. Harper
p54
sg6
I1458
sg7
I1466
sa(dp55
g3
I0
sg4
VCharlottesville Va.
p56
sg6
I1840
sg7
I1858
sa(dp57
g3
I0
sg4
VJonathan Greenblatt
p58
sg6
I2462
sg7
I2480
sa(dp59
g3
I0
sg4
VAnti Defamation
p60
sg6
I2509
sg7
I2523
sa(dp61
g3
I0
sg4
VDefamation League.
p62
sg6
I2514
sg7
I2531
sasI3
(lp63
(dp64
g3
I1
sg4
VUniversity of Virginia
p65
sg6
I1422
sg7
I1443
sa(dp66
g3
I0
sg4
VShaun R. Harper
p67
sg6
I1452
sg7
I1466
sa(dp68
g3
I0
sg4
VAnti Defamation League.
p69
sg6
I2509
sg7
I2531
sasI4
(lp70
sI5
(lp71
sI6
(lp72
s.