(dp0
I1
(lp1
(dp2
S'label'
p3
I0
sS'string'
p4
VBaruch
p5
sS'start_index'
p6
I21
sS'end_index'
p7
I26
sa(dp8
g3
I1
sg4
VCUNY
p9
sg6
I44
sg7
I47
sa(dp10
g3
I1
sg4
VCUNY
p11
sg6
I61
sg7
I64
sa(dp12
g3
I0
sg4
VCity
p13
sg6
I292
sg7
I295
sasI2
(lp14
(dp15
g3
I1
sg4
VBaruch College
p16
sg6
I21
sg7
I34
sa(dp17
g3
I1
sg4
VCity College
p18
sg6
I292
sg7
I303
sasI3
(lp19
sI4
(lp20
sI5
(lp21
sI6
(lp22
s.