(dp0
I1
(lp1
(dp2
S'label'
p3
I0
sS'string'
p4
VCoico
p5
sS'start_index'
p6
I4
sS'end_index'
p7
I8
sa(dp8
g3
I1
sg4
VCUNY
p9
sg6
I57
sg7
I60
sa(dp10
g3
I0
sg4
VCity
p11
sg6
I94
sg7
I97
sa(dp12
g3
I1
sg4
VCUNY
p13
sg6
I548
sg7
I551
sa(dp14
g3
I0
sg4
VLast
p15
sg6
I587
sg7
I590
sa(dp16
g3
I0
sg4
VNew
p17
sg6
I619
sg7
I621
sa(dp18
g3
I0
sg4
VYork
p19
sg6
I623
sg7
I626
sa(dp20
g3
I0
sg4
VTimes
p21
sg6
I628
sg7
I632
sa(dp22
g3
I0
sg4
VCoico.
p23
sg6
I818
sg7
I823
sa(dp24
g3
I0
sg4
VTimes
p25
sg6
I867
sg7
I871
sa(dp26
g3
I0
sg4
VWilliam
p27
sg6
I1013
sg7
I1019
sa(dp28
g3
I0
sg4
VThompson
p29
sg6
I1024
sg7
I1031
sa(dp30
g3
I1
sg4
VCUNY
p31
sg6
I1053
sg7
I1056
sa(dp32
g3
I0
sg4
VBoard
p33
sg6
I1060
sg7
I1064
sa(dp34
g3
I0
sg4
VTrustees
p35
sg6
I1069
sg7
I1076
sa(dp36
g3
I0
sg4
VNew
p37
sg6
I1091
sg7
I1093
sa(dp38
g3
I0
sg4
VYork
p39
sg6
I1095
sg7
I1098
sa(dp40
g3
I0
sg4
VCity
p41
sg6
I1100
sg7
I1103
sa(dp42
g3
I0
sg4
VCity
p43
sg6
I1236
sg7
I1239
sa(dp44
g3
I0
sg4
VCollege.
p45
sg6
I1241
sg7
I1248
sa(dp46
g3
I0
sg4
VCatherine
p47
sg6
I1269
sg7
I1277
sa(dp48
g3
I0
sg4
VLeahy
p49
sg6
I1279
sg7
I1283
sa(dp50
g3
I0
sg4
VScott
p51
sg6
I1285
sg7
I1289
sa(dp52
g3
I0
sg4
VNew
p53
sg6
I1295
sg7
I1297
sa(dp54
g3
I0
sg4
VYork
p55
sg6
I1299
sg7
I1302
sa(dp56
g3
I0
sg4
VState
p57
sg6
I1304
sg7
I1308
sa(dp58
g3
I1
sg4
VCUNY
p59
sg6
I1339
sg7
I1342
sa(dp60
g3
I0
sg4
VGov.
p61
sg6
I1423
sg7
I1426
sa(dp62
g3
I0
sg4
VAndrew
p63
sg6
I1428
sg7
I1433
sa(dp64
g3
I0
sg4
VCuomo
p65
sg6
I1438
sg7
I1442
sa(dp66
g3
I1
sg4
VCUNY
p67
sg6
I1480
sg7
I1483
sa(dp68
g3
I0
sg4
VCity
p69
sg6
I1580
sg7
I1583
sa(dp70
g3
I0
sg4
VMilliken
p71
sg6
I1631
sg7
I1638
sasI2
(lp72
(dp73
g3
I1
sg4
VCity College
p74
sg6
I94
sg7
I105
sa(dp75
g3
I0
sg4
VNew York
p76
sg6
I619
sg7
I626
sa(dp77
g3
I0
sg4
VYork Times
p78
sg6
I623
sg7
I632
sa(dp79
g3
I0
sg4
VWilliam C.
p80
sg6
I1013
sg7
I1022
sa(dp81
g3
I0
sg4
VC. Thompson
p82
sg6
I1021
sg7
I1031
sa(dp83
g3
I0
sg4
VNew York
p84
sg6
I1091
sg7
I1098
sa(dp85
g3
I0
sg4
VYork City
p86
sg6
I1095
sg7
I1103
sa(dp87
g3
I1
sg4
VCity College.
p88
sg6
I1236
sg7
I1248
sa(dp89
g3
I0
sg4
VCatherine Leahy
p90
sg6
I1269
sg7
I1283
sa(dp91
g3
I0
sg4
VLeahy Scott
p92
sg6
I1279
sg7
I1289
sa(dp93
g3
I0
sg4
VNew York
p94
sg6
I1295
sg7
I1302
sa(dp95
g3
I0
sg4
VYork State
p96
sg6
I1299
sg7
I1308
sa(dp97
g3
I0
sg4
VAndrew M.
p98
sg6
I1428
sg7
I1436
sa(dp99
g3
I0
sg4
VM. Cuomo
p100
sg6
I1435
sg7
I1442
sa(dp101
g3
I1
sg4
VCity College
p102
sg6
I1580
sg7
I1591
sasI3
(lp103
(dp104
g3
I0
sg4
VNew York Times
p105
sg6
I619
sg7
I632
sa(dp106
g3
I0
sg4
VWilliam C. Thompson
p107
sg6
I1013
sg7
I1031
sa(dp108
g3
I0
sg4
VBoard of Trustees
p109
sg6
I1060
sg7
I1076
sa(dp110
g3
I0
sg4
VNew York City
p111
sg6
I1091
sg7
I1103
sa(dp112
g3
I0
sg4
VCatherine Leahy Scott
p113
sg6
I1269
sg7
I1289
sa(dp114
g3
I0
sg4
VNew York State
p115
sg6
I1295
sg7
I1308
sa(dp116
g3
I0
sg4
VAndrew M. Cuomo
p117
sg6
I1428
sg7
I1442
sasI4
(lp118
sI5
(lp119
sI6
(lp120
s.