(dp0
I1
(lp1
(dp2
S'label'
p3
I0
sS'string'
p4
VGAINESVILLE
p5
sS'start_index'
p6
I0
sS'end_index'
p7
I10
sa(dp8
g3
I0
sg4
VFla.
p9
sg6
I12
sg7
I15
sa(dp10
g3
I0
sg4
VProtesters
p11
sg6
I17
sg7
I26
sa(dp12
g3
I0
sg4
VRichard
p13
sg6
I84
sg7
I90
sa(dp14
g3
I0
sg4
VSpencer
p15
sg6
I92
sg7
I98
sa(dp16
g3
I0
sg4
VFlorida
p17
sg6
I133
sg7
I139
sa(dp18
g3
I0
sg4
VSpencer
p19
sg6
I171
sg7
I177
sa(dp20
g3
I0
sg4
VCharlottesville
p21
sg6
I233
sg7
I247
sa(dp22
g3
I0
sg4
VVa.
p23
sg6
I249
sg7
I251
sa(dp24
g3
I0
sg4
VNazi
p25
sg6
I342
sg7
I345
sa(dp26
g3
I0
sg4
VSpencer
p27
sg6
I364
sg7
I370
sa(dp28
g3
I0
sg4
VSpencer.
p29
sg6
I388
sg7
I395
sasI2
(lp30
(dp31
g3
I0
sg4
VGAINESVILLE Fla.
p32
sg6
I0
sg7
I15
sa(dp33
g3
I0
sg4
VRichard Spencer
p34
sg6
I84
sg7
I98
sa(dp35
g3
I0
sg4
VCharlottesville Va.
p36
sg6
I233
sg7
I251
sasI3
(lp37
(dp38
g3
I1
sg4
VUniversity of Florida
p39
sg6
I119
sg7
I139
sasI4
(lp40
sI5
(lp41
sI6
(lp42
s.