(dp0
I1
(lp1
(dp2
S'label'
p3
I0
sS'string'
p4
VNazi
p5
sS'start_index'
p6
I74
sS'end_index'
p7
I77
sa(dp8
g3
I0
sg4
VRichard
p9
sg6
I520
sg7
I526
sa(dp10
g3
I0
sg4
VSpencer
p11
sg6
I528
sg7
I534
sa(dp12
g3
I0
sg4
VFlorida
p13
sg6
I587
sg7
I593
sa(dp14
g3
I0
sg4
VThursday.
p15
sg6
I598
sg7
I606
sa(dp16
g3
I0
sg4
VVirginia
p17
sg6
I721
sg7
I728
sa(dp18
g3
I0
sg4
VNazi
p19
sg6
I770
sg7
I773
sa(dp20
g3
I0
sg4
VSpencer
p21
sg6
I812
sg7
I818
sa(dp22
g3
I0
sg4
VCharlottesville
p23
sg6
I856
sg7
I870
sa(dp24
g3
I0
sg4
VSpencer
p25
sg6
I889
sg7
I895
sa(dp26
g3
I0
sg4
VSpencer
p27
sg6
I1075
sg7
I1081
sa(dp28
g3
I0
sg4
VSpencer
p29
sg6
I1178
sg7
I1184
sa(dp30
g3
I0
sg4
VAmendment
p31
sg6
I1231
sg7
I1239
sa(dp32
g3
I0
sg4
VSpencer
p33
sg6
I1456
sg7
I1462
sa(dp34
g3
I0
sg4
VSpencer
p35
sg6
I1513
sg7
I1519
sasI2
(lp36
(dp37
g3
I0
sg4
VRichard Spencer
p38
sg6
I520
sg7
I534
sasI3
(lp39
(dp40
g3
I1
sg4
VUniversity of Florida
p41
sg6
I573
sg7
I593
sa(dp42
g3
I1
sg4
VUniversity of Virginia
p43
sg6
I707
sg7
I728
sasI4
(lp44
sI5
(lp45
sI6
(lp46
s.