(dp0
I1
(lp1
(dp2
S'label'
p3
I0
sS'string'
p4
VSpencer
p5
sS'start_index'
p6
I20
sS'end_index'
p7
I26
sa(dp8
g3
I0
sg4
VAmendment
p9
sg6
I153
sg7
I161
sa(dp10
g3
I0
sg4
VHold
p11
sg6
I357
sg7
I360
sa(dp12
g3
I0
sg4
VSpencer
p13
sg6
I399
sg7
I405
sa(dp14
g3
I0
sg4
VAllen
p15
sg6
I520
sg7
I524
sa(dp16
g3
I0
sg4
VGinsberg
p17
sg6
I526
sg7
I533
sa(dp18
g3
I0
sg4
VCandor
p19
sg6
I541
sg7
I546
sa(dp20
g3
I0
sg4
VCounter
p21
sg6
I634
sg7
I640
sa(dp22
g3
I0
sg4
VRemember
p23
sg6
I874
sg7
I881
sa(dp24
g3
I0
sg4
VWestboro
p25
sg6
I1192
sg7
I1199
sa(dp26
g3
I0
sg4
VBaptist
p27
sg6
I1201
sg7
I1207
sa(dp28
g3
I0
sg4
VChurch
p29
sg6
I1209
sg7
I1214
sa(dp30
g3
I0
sg4
VComic
p31
sg6
I1233
sg7
I1237
sa(dp32
g3
I0
sg4
VCon.
p33
sg6
I1239
sg7
I1242
sa(dp34
g3
I0
sg4
VWestboro
p35
sg6
I1250
sg7
I1257
sa(dp36
g3
I0
sg4
VBaptist
p37
sg6
I1259
sg7
I1265
sa(dp38
g3
I0
sg4
VGod
p39
sg6
I1299
sg7
I1301
sa(dp40
g3
I0
sg4
VHates
p41
sg6
I1303
sg7
I1307
sa(dp42
g3
I0
sg4
VGlory
p43
sg6
I1354
sg7
I1358
sa(dp44
g3
I0
sg4
VHypnoToad
p45
sg6
I1367
sg7
I1375
sa(dp46
g3
I0
sg4
VMagnets
p47
sg6
I1381
sg7
I1387
sa(dp48
g3
I0
sg4
VWork
p49
sg6
I1405
sg7
I1408
sa(dp50
g3
I0
sg4
VHumorous
p51
sg6
I1410
sg7
I1417
sa(dp52
g3
I0
sg4
VWestboro
p53
sg6
I1479
sg7
I1486
sa(dp54
g3
I0
sg4
VBaptist
p55
sg6
I1488
sg7
I1494
sa(dp56
g3
I0
sg4
VChurch
p57
sg6
I1496
sg7
I1501
sa(dp58
g3
I0
sg4
VSpencer
p59
sg6
I1525
sg7
I1531
sa(dp60
g3
I0
sg4
VSpencer
p61
sg6
I1589
sg7
I1595
sa(dp62
g3
I0
sg4
VTrack
p63
sg6
I1658
sg7
I1662
sa(dp64
g3
I0
sg4
VCatalog
p65
sg6
I1704
sg7
I1710
sa(dp66
g3
I0
sg4
VAsk
p67
sg6
I1744
sg7
I1746
sa(dp68
g3
I0
sg4
VJustice
p69
sg6
I1773
sg7
I1779
sa(dp70
g3
I0
sg4
VLouis
p71
sg6
I1781
sg7
I1785
sa(dp72
g3
I0
sg4
VBrandeis
p73
sg6
I1787
sg7
I1794
sa(dp74
g3
I0
sg4
VSpencer
p75
sg6
I1822
sg7
I1828
sa(dp76
g3
I0
sg4
VPolling
p77
sg6
I1879
sg7
I1885
sa(dp78
g3
I0
sg4
VJonathan
p79
sg6
I1968
sg7
I1975
sa(dp80
g3
I0
sg4
VRauch
p81
sg6
I1977
sg7
I1981
sa(dp82
g3
I0
sg4
VFinally
p83
sg6
I2075
sg7
I2081
sa(dp84
g3
I0
sg4
VSpencer
p85
sg6
I2141
sg7
I2147
sa(dp86
g3
I0
sg4
VViolence
p87
sg6
I2202
sg7
I2209
sa(dp88
g3
I0
sg4
VErica
p89
sg6
I2580
sg7
I2584
sa(dp90
g3
I0
sg4
VChenoweth
p91
sg6
I2586
sg7
I2594
sa(dp92
g3
I0
sg4
VDenver
p93
sg6
I2639
sg7
I2644
sa(dp94
g3
I0
sg4
VRichard
p95
sg6
I2744
sg7
I2750
sa(dp96
g3
I0
sg4
VSpencer
p97
sg6
I2752
sg7
I2758
sa(dp98
g3
I0
sg4
VFlorida
p99
sg6
I2792
sg7
I2798
sa(dp100
g3
I0
sg4
VThursday.
p101
sg6
I2803
sg7
I2811
sasI2
(lp102
(dp103
g3
I0
sg4
VAllen Ginsberg
p104
sg6
I520
sg7
I533
sa(dp105
g3
I0
sg4
VWestboro Baptist
p106
sg6
I1192
sg7
I1207
sa(dp107
g3
I0
sg4
VBaptist Church
p108
sg6
I1201
sg7
I1214
sa(dp109
g3
I0
sg4
VComic Con.
p110
sg6
I1233
sg7
I1242
sa(dp111
g3
I0
sg4
VWestboro Baptist
p112
sg6
I1250
sg7
I1265
sa(dp113
g3
I0
sg4
VGod Hates
p114
sg6
I1299
sg7
I1307
sa(dp115
g3
I0
sg4
VWork Humorous
p116
sg6
I1405
sg7
I1417
sa(dp117
g3
I0
sg4
VWestboro Baptist
p118
sg6
I1479
sg7
I1494
sa(dp119
g3
I0
sg4
VBaptist Church
p120
sg6
I1488
sg7
I1501
sa(dp121
g3
I0
sg4
VJustice Louis
p122
sg6
I1773
sg7
I1785
sa(dp123
g3
I0
sg4
VLouis Brandeis
p124
sg6
I1781
sg7
I1794
sa(dp125
g3
I0
sg4
VJonathan Rauch
p126
sg6
I1968
sg7
I1981
sa(dp127
g3
I0
sg4
VErica Chenoweth
p128
sg6
I2580
sg7
I2594
sa(dp129
g3
I0
sg4
VRichard Spencer
p130
sg6
I2744
sg7
I2758
sasI3
(lp131
(dp132
g3
I0
sg4
VWestboro Baptist Church
p133
sg6
I1192
sg7
I1214
sa(dp134
g3
I0
sg4
VHypnoToad and Magnets
p135
sg6
I1367
sg7
I1387
sa(dp136
g3
I0
sg4
VWestboro Baptist Church
p137
sg6
I1479
sg7
I1501
sa(dp138
g3
I0
sg4
VJustice Louis Brandeis
p139
sg6
I1773
sg7
I1794
sa(dp140
g3
I1
sg4
VUniversity of Denver
p141
sg6
I2625
sg7
I2644
sa(dp142
g3
I1
sg4
VUniversity of Florida
p143
sg6
I2778
sg7
I2798
sasI4
(lp144
sI5
(lp145
sI6
(lp146
s.