(dp0
I1
(lp1
(dp2
S'label'
p3
I0
sS'string'
p4
VRichard
p5
sS'start_index'
p6
I0
sS'end_index'
p7
I6
sa(dp8
g3
I0
sg4
VSpencer
p9
sg6
I11
sg7
I17
sa(dp10
g3
I0
sg4
VFlorida
p11
sg6
I92
sg7
I98
sa(dp12
g3
I0
sg4
VSpencer
p13
sg6
I275
sg7
I281
sa(dp14
g3
I0
sg4
VSept.
p15
sg6
I314
sg7
I318
sa(dp16
g3
I0
sg4
VCharlottesville
p17
sg6
I417
sg7
I431
sa(dp18
g3
I0
sg4
VVa.
p19
sg6
I433
sg7
I435
sa(dp20
g3
I0
sg4
VSpencer
p21
sg6
I581
sg7
I587
sa(dp22
g3
I0
sg4
VGov.
p23
sg6
I609
sg7
I612
sa(dp24
g3
I0
sg4
VRick
p25
sg6
I614
sg7
I617
sa(dp26
g3
I0
sg4
VScott
p27
sg6
I619
sg7
I623
sa(dp28
g3
I0
sg4
VAlachua
p29
sg6
I658
sg7
I664
sa(dp30
g3
I0
sg4
VCounty
p31
sg6
I666
sg7
I671
sa(dp32
g3
I0
sg4
VNorth
p33
sg6
I676
sg7
I680
sa(dp34
g3
I0
sg4
VFlorida
p35
sg6
I682
sg7
I688
sa(dp36
g3
I0
sg4
VNational
p37
sg6
I818
sg7
I825
sa(dp38
g3
I0
sg4
VGuard
p39
sg6
I827
sg7
I831
sa(dp40
g3
I0
sg4
VFlorida
p41
sg6
I885
sg7
I891
sa(dp42
g3
I0
sg4
VKent
p43
sg6
I903
sg7
I906
sa(dp44
g3
I0
sg4
VFuchs
p45
sg6
I908
sg7
I912
sa(dp46
g3
I0
sg4
VYouTube
p47
sg6
I923
sg7
I929
sa(dp48
g3
I0
sg4
VSpencer
p49
sg6
I954
sg7
I960
sa(dp50
g3
I0
sg4
VSpencer
p51
sg6
I1055
sg7
I1061
sasI2
(lp52
(dp53
g3
I0
sg4
VRichard B.
p54
sg6
I0
sg7
I9
sa(dp55
g3
I0
sg4
VB. Spencer
p56
sg6
I8
sg7
I17
sa(dp57
g3
I0
sg4
VCharlottesville Va.
p58
sg6
I417
sg7
I435
sa(dp59
g3
I0
sg4
VRick Scott
p60
sg6
I614
sg7
I623
sa(dp61
g3
I0
sg4
VAlachua County
p62
sg6
I658
sg7
I671
sa(dp63
g3
I0
sg4
VNorth Florida
p64
sg6
I676
sg7
I688
sa(dp65
g3
I0
sg4
VNational Guard
p66
sg6
I818
sg7
I831
sa(dp67
g3
I0
sg4
VKent Fuchs
p68
sg6
I903
sg7
I912
sasI3
(lp69
(dp70
g3
I0
sg4
VRichard B. Spencer
p71
sg6
I0
sg7
I17
sa(dp72
g3
I1
sg4
VUniversity of Florida
p73
sg6
I78
sg7
I98
sa(dp74
g3
I1
sg4
VUniversity of Florida
p75
sg6
I871
sg7
I891
sasI4
(lp76
sI5
(lp77
sI6
(lp78
s.