(dp0
I1
(lp1
(dp2
S'label'
p3
I0
sS'string'
p4
VRichard
p5
sS'start_index'
p6
I19
sS'end_index'
p7
I25
sa(dp8
g3
I0
sg4
VSpencer
p9
sg6
I27
sg7
I33
sa(dp10
g3
I0
sg4
VNational
p11
sg6
I43
sg7
I50
sa(dp12
g3
I0
sg4
VPolicy
p13
sg6
I52
sg7
I57
sa(dp14
g3
I0
sg4
VVideo
p15
sg6
I98
sg7
I102
sa(dp16
g3
I0
sg4
VFlorida
p17
sg6
I121
sg7
I127
sasI2
(lp18
(dp19
g3
I0
sg4
VRichard Spencer
p20
sg6
I19
sg7
I33
sa(dp21
g3
I0
sg4
VNational Policy
p22
sg6
I43
sg7
I57
sa(dp23
g3
I0
sg4
VPolicy Institute
p24
sg6
I52
sg7
I67
sasI3
(lp25
(dp26
g3
I1
sg4
VNational Policy Institute
p27
sg6
I43
sg7
I67
sa(dp28
g3
I1
sg4
VUniversity of Florida
p29
sg6
I107
sg7
I127
sasI4
(lp30
sI5
(lp31
sI6
(lp32
s.