(dp0
I1
(lp1
(dp2
S'label'
p3
I0
sS'string'
p4
VAmerican
p5
sS'start_index'
p6
I99
sS'end_index'
p7
I106
sa(dp8
g3
I0
sg4
VAltright.
p9
sg6
I130
sg7
I138
sa(dp10
g3
I0
sg4
VSouthern
p11
sg6
I148
sg7
I155
sa(dp12
g3
I0
sg4
VPoverty
p13
sg6
I157
sg7
I163
sa(dp14
g3
I0
sg4
VLaw
p15
sg6
I165
sg7
I167
sa(dp16
g3
I0
sg4
VCenter
p17
sg6
I169
sg7
I174
sa(dp18
g3
I0
sg4
VSpencer
p19
sg6
I325
sg7
I331
sa(dp20
g3
I0
sg4
VNational
p21
sg6
I455
sg7
I462
sa(dp22
g3
I0
sg4
VPolicy
p23
sg6
I464
sg7
I469
sa(dp24
g3
I0
sg4
VWashington
p25
sg6
I504
sg7
I513
sa(dp26
g3
I0
sg4
VHail
p27
sg6
I528
sg7
I531
sa(dp28
g3
I0
sg4
VTrump
p29
sg6
I533
sg7
I537
sa(dp30
g3
I0
sg4
VNazi
p31
sg6
I616
sg7
I619
sa(dp32
g3
I0
sg4
VSpencer
p33
sg6
I640
sg7
I646
sa(dp34
g3
I0
sg4
VVirginia
p35
sg6
I664
sg7
I671
sa(dp36
g3
I0
sg4
VCharlottesville
p37
sg6
I711
sg7
I725
sa(dp38
g3
I0
sg4
VRobert
p39
sg6
I742
sg7
I747
sa(dp40
g3
I0
sg4
VLee
p41
sg6
I752
sg7
I754
sa(dp42
g3
I0
sg4
VBlood
p43
sg6
I853
sg7
I857
sa(dp44
g3
I0
sg4
VUnite
p45
sg6
I898
sg7
I902
sa(dp46
g3
I0
sg4
VRight
p47
sg6
I908
sg7
I912
sa(dp48
g3
I0
sg4
VCharlottesville
p49
sg6
I923
sg7
I937
sa(dp50
g3
I0
sg4
VSpencer
p51
sg6
I1100
sg7
I1106
sa(dp52
g3
I0
sg4
VCharlottesville
p53
sg6
I1126
sg7
I1140
sa(dp54
g3
I0
sg4
VOct.
p55
sg6
I1145
sg7
I1148
sa(dp56
g3
I0
sg4
VFlorida.
p57
sg6
I1261
sg7
I1268
sa(dp58
g3
I0
sg4
VWhy
p59
sg6
I1270
sg7
I1272
sa(dp60
g3
I0
sg4
VSpencer
p61
sg6
I1337
sg7
I1343
sa(dp62
g3
I0
sg4
VGary
p63
sg6
I1379
sg7
I1382
sa(dp64
g3
I0
sg4
VEdinger
p65
sg6
I1384
sg7
I1390
sa(dp66
g3
I0
sg4
VAmendment
p67
sg6
I1419
sg7
I1427
sa(dp68
g3
I0
sg4
VEdinger
p69
sg6
I1442
sg7
I1448
sa(dp70
g3
I0
sg4
VAmendment
p71
sg6
I1458
sg7
I1466
sa(dp72
g3
I0
sg4
VSpencer
p73
sg6
I1568
sg7
I1574
sa(dp74
g3
I0
sg4
VBernie
p75
sg6
I1615
sg7
I1620
sa(dp76
g3
I0
sg4
VSanders
p77
sg6
I1622
sg7
I1628
sa(dp78
g3
I0
sg4
VSpencer
p79
sg6
I1816
sg7
I1822
sa(dp80
g3
I0
sg4
VEdinger
p81
sg6
I1846
sg7
I1852
sa(dp82
g3
I0
sg4
VJanine
p83
sg6
I1859
sg7
I1864
sa(dp84
g3
I0
sg4
VSikes
p85
sg6
I1866
sg7
I1870
sasI2
(lp86
(dp87
g3
I0
sg4
VSouthern Poverty
p88
sg6
I148
sg7
I163
sa(dp89
g3
I0
sg4
VPoverty Law
p90
sg6
I157
sg7
I167
sa(dp91
g3
I0
sg4
VLaw Center
p92
sg6
I165
sg7
I174
sa(dp93
g3
I0
sg4
VNational Policy
p94
sg6
I455
sg7
I469
sa(dp95
g3
I0
sg4
VPolicy Institute
p96
sg6
I464
sg7
I479
sa(dp97
g3
I0
sg4
VHail Trump
p98
sg6
I528
sg7
I537
sa(dp99
g3
I0
sg4
VRobert E.
p100
sg6
I742
sg7
I750
sa(dp101
g3
I0
sg4
VE. Lee
p102
sg6
I749
sg7
I754
sa(dp103
g3
I0
sg4
VGary Edinger
p104
sg6
I1379
sg7
I1390
sa(dp105
g3
I0
sg4
VBernie Sanders
p106
sg6
I1615
sg7
I1628
sa(dp107
g3
I0
sg4
VJanine Sikes
p108
sg6
I1859
sg7
I1870
sasI3
(lp109
(dp110
g3
I0
sg4
VSouthern Poverty Law
p111
sg6
I148
sg7
I167
sa(dp112
g3
I0
sg4
VPoverty Law Center
p113
sg6
I157
sg7
I174
sa(dp114
g3
I1
sg4
VNational Policy Institute
p115
sg6
I455
sg7
I479
sa(dp116
g3
I1
sg4
VUniversity of Virginia
p117
sg6
I650
sg7
I671
sa(dp118
g3
I0
sg4
VRobert E. Lee
p119
sg6
I742
sg7
I754
sa(dp120
g3
I1
sg4
VUniversity of Florida.
p121
sg6
I1247
sg7
I1268
sasI4
(lp122
(dp123
g3
I0
sg4
VSouthern Poverty Law Center
p124
sg6
I148
sg7
I174
sasI5
(lp125
sI6
(lp126
s.