(dp0
I1
(lp1
(dp2
S'label'
p3
I0
sS'string'
p4
VEssentially
p5
sS'start_index'
p6
I0
sS'end_index'
p7
I10
sa(dp8
g3
I0
sg4
VSikes
p9
sg6
I220
sg7
I224
sa(dp10
g3
I0
sg4
VFlorida
p11
sg6
I367
sg7
I373
sa(dp12
g3
I0
sg4
VAmendment
p13
sg6
I433
sg7
I441
sasI2
(lp14
sI3
(lp15
(dp16
g3
I1
sg4
VUniversity of Florida
p17
sg6
I353
sg7
I373
sasI4
(lp18
sI5
(lp19
sI6
(lp20
s.