(dp0
I1
(lp1
(dp2
S'label'
p3
I0
sS'string'
p4
VFlorida
p5
sS'start_index'
p6
I18
sS'end_index'
p7
I24
sa(dp8
g3
I0
sg4
VRichard
p9
sg6
I146
sg7
I152
sa(dp10
g3
I0
sg4
VSpencer
p11
sg6
I154
sg7
I160
sa(dp12
g3
I0
sg4
VClay
p13
sg6
I172
sg7
I175
sa(dp14
g3
I0
sg4
VCalvert
p15
sg6
I177
sg7
I183
sa(dp16
g3
I0
sg4
VAmendment
p17
sg6
I218
sg7
I226
sa(dp18
g3
I0
sg4
VSpencer
p19
sg6
I302
sg7
I308
sa(dp20
g3
I0
sg4
VCalvert
p21
sg6
I378
sg7
I384
sa(dp22
g3
I0
sg4
VAmendment
p23
sg6
I423
sg7
I431
sa(dp24
g3
I0
sg4
VSpencer
p25
sg6
I615
sg7
I621
sa(dp26
g3
I0
sg4
VNational
p27
sg6
I735
sg7
I742
sa(dp28
g3
I0
sg4
VPolicy
p29
sg6
I744
sg7
I749
sa(dp30
g3
I0
sg4
VInstitute.
p31
sg6
I751
sg7
I760
sa(dp32
g3
I0
sg4
VCalifornia
p33
sg6
I893
sg7
I902
sa(dp34
g3
I0
sg4
VBerkeley
p35
sg6
I904
sg7
I911
sa(dp36
g3
I0
sg4
VEvergreen
p37
sg6
I913
sg7
I921
sa(dp38
g3
I0
sg4
VState
p39
sg6
I923
sg7
I927
sa(dp40
g3
I0
sg4
VWashington
p41
sg6
I940
sg7
I949
sa(dp42
g3
I0
sg4
VState
p43
sg6
I951
sg7
I955
sa(dp44
g3
I0
sg4
VVirginia.
p45
sg6
I979
sg7
I987
sa(dp46
g3
I0
sg4
VAntifa
p47
sg6
I1034
sg7
I1039
sa(dp48
g3
I0
sg4
VOrlando
p49
sg6
I1137
sg7
I1143
sa(dp50
g3
I0
sg4
VAntifa
p51
sg6
I1145
sg7
I1150
sa(dp52
g3
I0
sg4
VSpencer
p53
sg6
I1181
sg7
I1187
sa(dp54
g3
I0
sg4
VFlorida.
p55
sg6
I1223
sg7
I1230
sa(dp56
g3
I0
sg4
VNational
p57
sg6
I1272
sg7
I1279
sa(dp58
g3
I0
sg4
VGuard
p59
sg6
I1281
sg7
I1285
sa(dp60
g3
I0
sg4
VRemember
p61
sg6
I1320
sg7
I1327
sa(dp62
g3
I0
sg4
VNoNazisAtUF.
p63
sg6
I1397
sg7
I1408
sa(dp64
g3
I0
sg4
VKent
p65
sg6
I1508
sg7
I1511
sa(dp66
g3
I0
sg4
VState
p67
sg6
I1513
sg7
I1517
sa(dp68
g3
I0
sg4
VNational
p69
sg6
I1555
sg7
I1562
sa(dp70
g3
I0
sg4
VGuard
p71
sg6
I1564
sg7
I1568
sa(dp72
g3
I0
sg4
VVietnam
p73
sg6
I1599
sg7
I1605
sa(dp74
g3
I0
sg4
VWar
p75
sg6
I1607
sg7
I1609
sasI2
(lp76
(dp77
g3
I0
sg4
VRichard Spencer
p78
sg6
I146
sg7
I160
sa(dp79
g3
I0
sg4
VClay Calvert
p80
sg6
I172
sg7
I183
sa(dp81
g3
I0
sg4
VNational Policy
p82
sg6
I735
sg7
I749
sa(dp83
g3
I0
sg4
VPolicy Institute.
p84
sg6
I744
sg7
I760
sa(dp85
g3
I0
sg4
VCalifornia Berkeley
p86
sg6
I893
sg7
I911
sa(dp87
g3
I0
sg4
VBerkeley Evergreen
p88
sg6
I904
sg7
I921
sa(dp89
g3
I0
sg4
VEvergreen State
p90
sg6
I913
sg7
I927
sa(dp91
g3
I0
sg4
VState College
p92
sg6
I923
sg7
I935
sa(dp93
g3
I0
sg4
VWashington State
p94
sg6
I940
sg7
I955
sa(dp95
g3
I0
sg4
VOrlando Antifa
p96
sg6
I1137
sg7
I1150
sa(dp97
g3
I0
sg4
VNational Guard
p98
sg6
I1272
sg7
I1285
sa(dp99
g3
I0
sg4
VKent State
p100
sg6
I1508
sg7
I1517
sa(dp101
g3
I0
sg4
VState University
p102
sg6
I1513
sg7
I1528
sa(dp103
g3
I0
sg4
VNational Guard
p104
sg6
I1555
sg7
I1568
sa(dp105
g3
I0
sg4
VVietnam War
p106
sg6
I1599
sg7
I1609
sasI3
(lp107
(dp108
g3
I1
sg4
VUniversity of Florida
p109
sg6
I4
sg7
I24
sa(dp110
g3
I0
sg4
VNational Policy Institute.
p111
sg6
I735
sg7
I760
sa(dp112
g3
I0
sg4
VUniversity of California
p113
sg6
I879
sg7
I902
sa(dp114
g3
I0
sg4
VCalifornia Berkeley Evergreen
p115
sg6
I893
sg7
I921
sa(dp116
g3
I0
sg4
VBerkeley Evergreen State
p117
sg6
I904
sg7
I927
sa(dp118
g3
I1
sg4
VEvergreen State College
p119
sg6
I913
sg7
I935
sa(dp120
g3
I1
sg4
VUniversity of Virginia.
p121
sg6
I965
sg7
I987
sa(dp122
g3
I1
sg4
VUniversity of Florida.
p123
sg6
I1209
sg7
I1230
sa(dp124
g3
I1
sg4
VKent State University
p125
sg6
I1508
sg7
I1528
sasI4
(lp126
(dp127
g3
I1
sg4
VUniversity of California Berkeley
p128
sg6
I879
sg7
I911
sa(dp129
g3
I0
sg4
VCalifornia Berkeley Evergreen State
p130
sg6
I893
sg7
I927
sa(dp131
g3
I0
sg4
VBerkeley Evergreen State College
p132
sg6
I904
sg7
I935
sasI5
(lp133
(dp134
g3
I0
sg4
VUniversity of California Berkeley Evergreen
p135
sg6
I879
sg7
I921
sa(dp136
g3
I0
sg4
VCalifornia Berkeley Evergreen State College
p137
sg6
I893
sg7
I935
sasI6
(lp138
(dp139
g3
I0
sg4
VUniversity of California Berkeley Evergreen State
p140
sg6
I879
sg7
I927
sas.