(dp0
I1
(lp1
(dp2
S'label'
p3
I0
sS'string'
p4
VRichard
p5
sS'start_index'
p6
I0
sS'end_index'
p7
I6
sa(dp8
g3
I0
sg4
VSpencer
p9
sg6
I11
sg7
I17
sa(dp10
g3
I0
sg4
VTexas
p11
sg6
I31
sg7
I35
sa(dp12
g3
I0
sg4
VA&M
p13
sg6
I37
sg7
I39
sa(dp14
g3
I0
sg4
VStation
p15
sg6
I63
sg7
I69
sa(dp16
g3
I0
sg4
VDecember.
p17
sg6
I74
sg7
I82
sa(dp18
g3
I0
sg4
VGreenblatt
p19
sg6
I279
sg7
I288
sa(dp20
g3
I0
sg4
VLast
p21
sg6
I296
sg7
I299
sa(dp22
g3
I0
sg4
VTexas
p23
sg6
I310
sg7
I314
sa(dp24
g3
I0
sg4
VA&M
p25
sg6
I316
sg7
I318
sa(dp26
g3
I0
sg4
VRichard
p27
sg6
I361
sg7
I367
sa(dp28
g3
I0
sg4
VSpencer
p29
sg6
I372
sg7
I378
sa(dp30
g3
I0
sg4
VCharlottesville
p31
sg6
I414
sg7
I428
sa(dp32
g3
I0
sg4
VTexas
p33
sg6
I463
sg7
I467
sa(dp34
g3
I0
sg4
VA&M
p35
sg6
I469
sg7
I471
sa(dp36
g3
I0
sg4
VSpencer
p37
sg6
I538
sg7
I544
sa(dp38
g3
I0
sg4
VWhite
p39
sg6
I589
sg7
I593
sa(dp40
g3
I0
sg4
VLives
p41
sg6
I595
sg7
I599
sa(dp42
g3
I0
sg4
VMatter
p43
sg6
I601
sg7
I606
sa(dp44
g3
I0
sg4
VStation
p45
sg6
I629
sg7
I635
sa(dp46
g3
I0
sg4
VMichael
p47
sg6
I675
sg7
I681
sa(dp48
g3
I0
sg4
VYoung
p49
sg6
I686
sg7
I690
sa(dp50
g3
I0
sg4
VCharlottesville
p51
sg6
I751
sg7
I765
sa(dp52
g3
I0
sg4
VTexas
p53
sg6
I776
sg7
I780
sa(dp54
g3
I0
sg4
VA&M.
p55
sg6
I782
sg7
I785
sa(dp56
g3
I0
sg4
VSpencer
p57
sg6
I791
sg7
I797
sa(dp58
g3
I0
sg4
VPennsylvania
p59
sg6
I865
sg7
I876
sa(dp60
g3
I0
sg4
VState
p61
sg6
I878
sg7
I882
sa(dp62
g3
I0
sg4
VMichigan
p63
sg6
I895
sg7
I902
sa(dp64
g3
I0
sg4
VState
p65
sg6
I904
sg7
I908
sa(dp66
g3
I0
sg4
VLouisiana
p67
sg6
I921
sg7
I929
sa(dp68
g3
I0
sg4
VState
p69
sg6
I931
sg7
I935
sa(dp70
g3
I0
sg4
VNorth
p71
sg6
I966
sg7
I970
sa(dp72
g3
I0
sg4
VCarolina
p73
sg6
I972
sg7
I979
sa(dp74
g3
I0
sg4
VChapel
p75
sg6
I984
sg7
I989
sa(dp76
g3
I0
sg4
VHill
p77
sg6
I991
sg7
I994
sa(dp78
g3
I0
sg4
VFlorida.
p79
sg6
I1018
sg7
I1025
sa(dp80
g3
I0
sg4
VFlorida
p81
sg6
I1027
sg7
I1033
sa(dp82
g3
I0
sg4
VKent
p83
sg6
I1050
sg7
I1053
sa(dp84
g3
I0
sg4
VFuchs
p85
sg6
I1055
sg7
I1059
sa(dp86
g3
I0
sg4
VAmendment
p87
sg6
I1097
sg7
I1105
sasI2
(lp88
(dp89
g3
I0
sg4
VRichard B.
p90
sg6
I0
sg7
I9
sa(dp91
g3
I0
sg4
VB. Spencer
p92
sg6
I8
sg7
I17
sa(dp93
g3
I0
sg4
VTexas A&M
p94
sg6
I31
sg7
I39
sa(dp95
g3
I0
sg4
VA&M University
p96
sg6
I37
sg7
I50
sa(dp97
g3
I0
sg4
VCollege Station
p98
sg6
I55
sg7
I69
sa(dp99
g3
I0
sg4
VTexas A&M
p100
sg6
I310
sg7
I318
sa(dp101
g3
I0
sg4
VA&M University
p102
sg6
I316
sg7
I329
sa(dp103
g3
I0
sg4
VRichard B.
p104
sg6
I361
sg7
I370
sa(dp105
g3
I0
sg4
VB. Spencer
p106
sg6
I369
sg7
I378
sa(dp107
g3
I1
sg4
VTexas A&M
p108
sg6
I463
sg7
I471
sa(dp109
g3
I0
sg4
VWhite Lives
p110
sg6
I589
sg7
I599
sa(dp111
g3
I0
sg4
VLives Matter
p112
sg6
I595
sg7
I606
sa(dp113
g3
I0
sg4
VCollege Station
p114
sg6
I621
sg7
I635
sa(dp115
g3
I0
sg4
VMichael K.
p116
sg6
I675
sg7
I684
sa(dp117
g3
I0
sg4
VK. Young
p118
sg6
I683
sg7
I690
sa(dp119
g3
I1
sg4
VTexas A&M.
p120
sg6
I776
sg7
I785
sa(dp121
g3
I0
sg4
VPennsylvania State
p122
sg6
I865
sg7
I882
sa(dp123
g3
I0
sg4
VState University
p124
sg6
I878
sg7
I893
sa(dp125
g3
I0
sg4
VUniversity Michigan
p126
sg6
I884
sg7
I902
sa(dp127
g3
I0
sg4
VMichigan State
p128
sg6
I895
sg7
I908
sa(dp129
g3
I0
sg4
VState University
p130
sg6
I904
sg7
I919
sa(dp131
g3
I0
sg4
VUniversity Louisiana
p132
sg6
I910
sg7
I929
sa(dp133
g3
I0
sg4
VLouisiana State
p134
sg6
I921
sg7
I935
sa(dp135
g3
I0
sg4
VState University
p136
sg6
I931
sg7
I946
sa(dp137
g3
I0
sg4
VNorth Carolina
p138
sg6
I966
sg7
I979
sa(dp139
g3
I0
sg4
VChapel Hill
p140
sg6
I984
sg7
I994
sa(dp141
g3
I0
sg4
VW. Kent
p142
sg6
I1047
sg7
I1053
sa(dp143
g3
I0
sg4
VKent Fuchs
p144
sg6
I1050
sg7
I1059
sasI3
(lp145
(dp146
g3
I0
sg4
VRichard B. Spencer
p147
sg6
I0
sg7
I17
sa(dp148
g3
I1
sg4
VTexas A&M University
p149
sg6
I31
sg7
I50
sa(dp150
g3
I1
sg4
VTexas A&M University
p151
sg6
I310
sg7
I329
sa(dp152
g3
I0
sg4
VRichard B. Spencer
p153
sg6
I361
sg7
I378
sa(dp154
g3
I0
sg4
VWhite Lives Matter
p155
sg6
I589
sg7
I606
sa(dp156
g3
I0
sg4
VMichael K. Young
p157
sg6
I675
sg7
I690
sa(dp158
g3
I1
sg4
VPennsylvania State University
p159
sg6
I865
sg7
I893
sa(dp160
g3
I0
sg4
VState University Michigan
p161
sg6
I878
sg7
I902
sa(dp162
g3
I0
sg4
VUniversity Michigan State
p163
sg6
I884
sg7
I908
sa(dp164
g3
I1
sg4
VMichigan State University
p165
sg6
I895
sg7
I919
sa(dp166
g3
I0
sg4
VState University Louisiana
p167
sg6
I904
sg7
I929
sa(dp168
g3
I0
sg4
VUniversity Louisiana State
p169
sg6
I910
sg7
I935
sa(dp170
g3
I1
sg4
VLouisiana State University
p171
sg6
I921
sg7
I946
sa(dp172
g3
I0
sg4
VUniversity of North
p173
sg6
I952
sg7
I970
sa(dp174
g3
I1
sg4
VUniversity of Florida.
p175
sg6
I1004
sg7
I1025
sa(dp176
g3
I0
sg4
VW. Kent Fuchs
p177
sg6
I1047
sg7
I1059
sasI4
(lp178
(dp179
g3
I0
sg4
VPennsylvania State University Michigan
p180
sg6
I865
sg7
I902
sa(dp181
g3
I0
sg4
VState University Michigan State
p182
sg6
I878
sg7
I908
sa(dp183
g3
I0
sg4
VMichigan State University Louisiana
p184
sg6
I895
sg7
I929
sa(dp185
g3
I1
sg4
VUniversity of North Carolina
p186
sg6
I952
sg7
I979
sasI5
(lp187
(dp188
g3
I0
sg4
VPennsylvania State University Michigan State
p189
sg6
I865
sg7
I908
sasI6
(lp190
s.