(dp0
I1
(lp1
(dp2
S'label'
p3
I0
sS'string'
p4
VSpencer
p5
sS'start_index'
p6
I4
sS'end_index'
p7
I10
sa(dp8
g3
I0
sg4
VPhillips
p9
sg6
I46
sg7
I53
sa(dp10
g3
I0
sg4
VCenter
p11
sg6
I55
sg7
I60
sa(dp12
g3
I0
sg4
VPerforming
p13
sg6
I70
sg7
I79
sa(dp14
g3
I0
sg4
VArts.
p15
sg6
I81
sg7
I85
sa(dp16
g3
I0
sg4
VSpencer
p17
sg6
I346
sg7
I352
sa(dp18
g3
I0
sg4
VPennsylvania
p19
sg6
I396
sg7
I407
sa(dp20
g3
I0
sg4
VState
p21
sg6
I409
sg7
I413
sa(dp22
g3
I0
sg4
VMichigan
p23
sg6
I426
sg7
I433
sa(dp24
g3
I0
sg4
VState
p25
sg6
I435
sg7
I439
sa(dp26
g3
I0
sg4
VLouisiana
p27
sg6
I441
sg7
I449
sa(dp28
g3
I0
sg4
VState
p29
sg6
I451
sg7
I455
sa(dp30
g3
I0
sg4
VNorth
p31
sg6
I479
sg7
I483
sa(dp32
g3
I0
sg4
VCarolina
p33
sg6
I485
sg7
I492
sa(dp34
g3
I0
sg4
VChapel
p35
sg6
I497
sg7
I502
sa(dp36
g3
I0
sg4
VHill.
p37
sg6
I504
sg7
I508
sa(dp38
g3
I0
sg4
VCharlottesville
p39
sg6
I525
sg7
I539
sa(dp40
g3
I0
sg4
VTexas
p41
sg6
I550
sg7
I554
sa(dp42
g3
I0
sg4
VA&M
p43
sg6
I556
sg7
I558
sa(dp44
g3
I0
sg4
VSept.
p45
sg6
I581
sg7
I585
sa(dp46
g3
I0
sg4
VCincinnati
p47
sg6
I630
sg7
I639
sa(dp48
g3
I0
sg4
VSpencer
p49
sg6
I680
sg7
I686
sa(dp50
g3
I0
sg4
VSpencer
p51
sg6
I755
sg7
I761
sa(dp52
g3
I0
sg4
VMichigan
p53
sg6
I780
sg7
I787
sa(dp54
g3
I0
sg4
VState.
p55
sg6
I789
sg7
I794
sa(dp56
g3
I0
sg4
VAuburn
p57
sg6
I822
sg7
I827
sa(dp58
g3
I0
sg4
VFlorida
p59
sg6
I1046
sg7
I1052
sa(dp60
g3
I0
sg4
VFlorida
p61
sg6
I1294
sg7
I1300
sa(dp62
g3
I0
sg4
VAbbie
p63
sg6
I1315
sg7
I1319
sa(dp64
g3
I0
sg4
VHoffman
p65
sg6
I1321
sg7
I1327
sa(dp66
g3
I0
sg4
VYippie
p67
sg6
I1333
sg7
I1338
sa(dp68
g3
I0
sg4
VChicago
p69
sg6
I1365
sg7
I1371
sa(dp70
g3
I0
sg4
VCalvert
p71
sg6
I1401
sg7
I1407
sa(dp72
g3
I0
sg4
VLouis
p73
sg6
I1446
sg7
I1450
sa(dp74
g3
I0
sg4
VFarrakhan
p75
sg6
I1452
sg7
I1460
sa(dp76
g3
I0
sg4
VNation
p77
sg6
I1476
sg7
I1481
sa(dp78
g3
I0
sg4
VIslam
p79
sg6
I1486
sg7
I1490
sa(dp80
g3
I0
sg4
VAmendment
p81
sg6
I1567
sg7
I1575
sa(dp82
g3
I0
sg4
VCalvert
p83
sg6
I1581
sg7
I1587
sasI2
(lp84
(dp85
g3
I0
sg4
VPhillips Center
p86
sg6
I46
sg7
I60
sa(dp87
g3
I0
sg4
VPerforming Arts.
p88
sg6
I70
sg7
I85
sa(dp89
g3
I0
sg4
VPennsylvania State
p90
sg6
I396
sg7
I413
sa(dp91
g3
I0
sg4
VState University
p92
sg6
I409
sg7
I424
sa(dp93
g3
I0
sg4
VUniversity Michigan
p94
sg6
I415
sg7
I433
sa(dp95
g3
I1
sg4
VMichigan State
p96
sg6
I426
sg7
I439
sa(dp97
g3
I0
sg4
VState Louisiana
p98
sg6
I435
sg7
I449
sa(dp99
g3
I1
sg4
VLouisiana State
p100
sg6
I441
sg7
I455
sa(dp101
g3
I0
sg4
VNorth Carolina
p102
sg6
I479
sg7
I492
sa(dp103
g3
I0
sg4
VChapel Hill.
p104
sg6
I497
sg7
I508
sa(dp105
g3
I1
sg4
VTexas A&M
p106
sg6
I550
sg7
I558
sa(dp107
g3
I1
sg4
VMichigan State.
p108
sg6
I780
sg7
I794
sa(dp109
g3
I1
sg4
VAuburn University
p110
sg6
I822
sg7
I838
sa(dp111
g3
I0
sg4
VAbbie Hoffman
p112
sg6
I1315
sg7
I1327
sa(dp113
g3
I0
sg4
VLouis Farrakhan
p114
sg6
I1446
sg7
I1460
sasI3
(lp115
(dp116
g3
I1
sg4
VPennsylvania State University
p117
sg6
I396
sg7
I424
sa(dp118
g3
I0
sg4
VState University Michigan
p119
sg6
I409
sg7
I433
sa(dp120
g3
I0
sg4
VUniversity Michigan State
p121
sg6
I415
sg7
I439
sa(dp122
g3
I0
sg4
VMichigan State Louisiana
p123
sg6
I426
sg7
I449
sa(dp124
g3
I0
sg4
VUniversity of North
p125
sg6
I465
sg7
I483
sa(dp126
g3
I1
sg4
VUniversity of Cincinnati
p127
sg6
I616
sg7
I639
sa(dp128
g3
I1
sg4
VUniversity of Florida
p129
sg6
I1032
sg7
I1052
sa(dp130
g3
I1
sg4
VUniversity of Florida
p131
sg6
I1280
sg7
I1300
sa(dp132
g3
I0
sg4
VNation of Islam
p133
sg6
I1476
sg7
I1490
sasI4
(lp134
(dp135
g3
I0
sg4
VPennsylvania State University Michigan
p136
sg6
I396
sg7
I433
sa(dp137
g3
I0
sg4
VState University Michigan State
p138
sg6
I409
sg7
I439
sa(dp139
g3
I0
sg4
VUniversity Michigan State Louisiana
p140
sg6
I415
sg7
I449
sa(dp141
g3
I1
sg4
VUniversity of North Carolina
p142
sg6
I465
sg7
I492
sasI5
(lp143
(dp144
g3
I0
sg4
VPennsylvania State University Michigan State
p145
sg6
I396
sg7
I439
sa(dp146
g3
I0
sg4
VState University Michigan State Louisiana
p147
sg6
I409
sg7
I449
sasI6
(lp148
(dp149
g3
I0
sg4
VPennsylvania State University Michigan State Louisiana
p150
sg6
I396
sg7
I449
sas.