(dp0
I1
(lp1
(dp2
S'label'
p3
I0
sS'string'
p4
VWisconsin
p5
sS'start_index'
p6
I83
sS'end_index'
p7
I91
sa(dp8
g3
I0
sg4
VMadison
p9
sg6
I93
sg7
I99
sa(dp10
g3
I0
sg4
VPolaroid
p11
sg6
I278
sg7
I285
sa(dp12
g3
I0
sg4
VAbraham
p13
sg6
I336
sg7
I342
sa(dp14
g3
I0
sg4
VLincoln
p15
sg6
I344
sg7
I350
sa(dp16
g3
I0
sg4
VWisconsin
p17
sg6
I472
sg7
I480
sa(dp18
g3
I0
sg4
VRepublican
p19
sg6
I1075
sg7
I1084
sa(dp20
g3
I0
sg4
VBoard
p21
sg6
I1183
sg7
I1187
sa(dp22
g3
I0
sg4
VRegents
p23
sg6
I1192
sg7
I1198
sa(dp24
g3
I0
sg4
VRepublican
p25
sg6
I1233
sg7
I1242
sa(dp26
g3
I0
sg4
VScott
p27
sg6
I1253
sg7
I1257
sa(dp28
g3
I0
sg4
VWalker.
p29
sg6
I1259
sg7
I1265
sa(dp30
g3
I0
sg4
VRepublican
p31
sg6
I1339
sg7
I1348
sa(dp32
g3
I0
sg4
VState
p33
sg6
I1359
sg7
I1363
sa(dp34
g3
I0
sg4
VAssembly
p35
sg6
I1365
sg7
I1372
sa(dp36
g3
I0
sg4
VJune.
p37
sg6
I1379
sg7
I1383
sa(dp38
g3
I0
sg4
VCapitol
p39
sg6
I1537
sg7
I1543
sa(dp40
g3
I0
sg4
VApparently
p41
sg6
I1578
sg7
I1587
sa(dp42
g3
I0
sg4
VRepublican
p43
sg6
I1640
sg7
I1649
sasI2
(lp44
(dp45
g3
I0
sg4
VWisconsin Madison
p46
sg6
I83
sg7
I99
sa(dp47
g3
I0
sg4
VAbraham Lincoln
p48
sg6
I336
sg7
I350
sa(dp49
g3
I0
sg4
VScott Walker.
p50
sg6
I1253
sg7
I1265
sa(dp51
g3
I0
sg4
VState Assembly
p52
sg6
I1359
sg7
I1372
sasI3
(lp53
(dp54
g3
I0
sg4
VUniversity of Wisconsin
p55
sg6
I69
sg7
I91
sa(dp56
g3
I1
sg4
VUniversity of Wisconsin
p57
sg6
I458
sg7
I480
sa(dp58
g3
I0
sg4
VBoard of Regents
p59
sg6
I1183
sg7
I1198
sasI4
(lp60
(dp61
g3
I1
sg4
VUniversity of Wisconsin Madison
p62
sg6
I69
sg7
I99
sasI5
(lp63
sI6
(lp64
s.