(dp0
I1
(lp1
(dp2
S'label'
p3
I0
sS'string'
p4
VWisconsin
p5
sS'start_index'
p6
I52
sS'end_index'
p7
I60
sa(dp8
g3
I0
sg4
VMadison
p9
sg6
I354
sg7
I360
sa(dp10
g3
I0
sg4
VWisconsin
p11
sg6
I396
sg7
I404
sa(dp12
g3
I0
sg4
VPaul
p13
sg6
I411
sg7
I414
sa(dp14
g3
I0
sg4
VSoglin
p15
sg6
I416
sg7
I421
sa(dp16
g3
I0
sg4
VVietnam
p17
sg6
I488
sg7
I494
sa(dp18
g3
I0
sg4
VWar.
p19
sg6
I496
sg7
I499
sa(dp20
g3
I0
sg4
VDavid
p21
sg6
I592
sg7
I596
sa(dp22
g3
I0
sg4
VWard
p23
sg6
I598
sg7
I601
sasI2
(lp24
(dp25
g3
I0
sg4
VPaul Soglin
p26
sg6
I411
sg7
I421
sa(dp27
g3
I0
sg4
VVietnam War.
p28
sg6
I488
sg7
I499
sa(dp29
g3
I0
sg4
VDavid Ward
p30
sg6
I592
sg7
I601
sasI3
(lp31
(dp32
g3
I1
sg4
VUniversity of Wisconsin
p33
sg6
I38
sg7
I60
sa(dp34
g3
I1
sg4
VUniversity of Wisconsin
p35
sg6
I382
sg7
I404
sasI4
(lp36
sI5
(lp37
sI6
(lp38
s.