(dp0
I1
(lp1
(dp2
S'label'
p3
I0
sS'string'
p4
VWisconsin
p5
sS'start_index'
p6
I56
sS'end_index'
p7
I64
sa(dp8
g3
I1
sg4
VWisconsin
p9
sg6
I117
sg7
I125
sa(dp10
g3
I0
sg4
VWisconsin
p11
sg6
I409
sg7
I417
sa(dp12
g3
I1
sg4
VWisconsin
p13
sg6
I505
sg7
I513
sa(dp14
g3
I0
sg4
VBreitbart
p15
sg6
I993
sg7
I1001
sa(dp16
g3
I0
sg4
VBen
p17
sg6
I1010
sg7
I1012
sa(dp18
g3
I0
sg4
VShapiro
p19
sg6
I1014
sg7
I1020
sa(dp20
g3
I0
sg4
VRobert
p21
sg6
I1263
sg7
I1268
sa(dp22
g3
I0
sg4
VMcNutt
p23
sg6
I1270
sg7
I1275
sa(dp24
g3
I0
sg4
VMcElroy.
p25
sg6
I1277
sg7
I1284
sa(dp26
g3
I0
sg4
VWisconsin
p27
sg6
I1362
sg7
I1370
sa(dp28
g3
I0
sg4
VWisconsin
p29
sg6
I1439
sg7
I1447
sa(dp30
g3
I0
sg4
VSystem
p31
sg6
I1449
sg7
I1454
sasI2
(lp32
(dp33
g3
I0
sg4
VBen Shapiro
p34
sg6
I1010
sg7
I1020
sa(dp35
g3
I0
sg4
VRobert McNutt
p36
sg6
I1263
sg7
I1275
sa(dp37
g3
I0
sg4
VMcNutt McElroy.
p38
sg6
I1270
sg7
I1284
sa(dp39
g3
I0
sg4
VWisconsin System
p40
sg6
I1439
sg7
I1454
sasI3
(lp41
(dp42
g3
I1
sg4
VUniversity of Wisconsin
p43
sg6
I42
sg7
I64
sa(dp44
g3
I1
sg4
VUniversity of Wisconsin
p45
sg6
I395
sg7
I417
sa(dp46
g3
I0
sg4
VRobert McNutt McElroy.
p47
sg6
I1263
sg7
I1284
sa(dp48
g3
I1
sg4
VUniversity of Wisconsin
p49
sg6
I1425
sg7
I1447
sasI4
(lp50
(dp51
g3
I0
sg4
VUniversity of Wisconsin System
p52
sg6
I1425
sg7
I1454
sasI5
(lp53
sI6
(lp54
s.