(dp0
I1
(lp1
(dp2
S'label'
p3
I0
sS'string'
p4
VSantiago
p5
sS'start_index'
p6
I28
sS'end_index'
p7
I35
sa(dp8
g3
I0
sg4
VGonzalez
p9
sg6
I37
sg7
I44
sa(dp10
g3
I0
sg4
VMexican
p11
sg6
I94
sg7
I100
sa(dp12
g3
I0
sg4
VChristian
p13
sg6
I158
sg7
I166
sa(dp14
g3
I0
sg4
VAustin
p15
sg6
I250
sg7
I255
sa(dp16
g3
I0
sg4
VMcKinley.
p17
sg6
I257
sg7
I265
sa(dp18
g3
I0
sg4
VChristian
p19
sg6
I305
sg7
I313
sa(dp20
g3
I0
sg4
VSan
p21
sg6
I326
sg7
I328
sa(dp22
g3
I0
sg4
VDiego
p23
sg6
I330
sg7
I334
sa(dp24
g3
I0
sg4
VGonzalez
p25
sg6
I340
sg7
I347
sasI2
(lp26
(dp27
g3
I0
sg4
VSantiago Gonzalez
p28
sg6
I28
sg7
I44
sa(dp29
g3
I0
sg4
VGonzalez IV
p30
sg6
I37
sg7
I47
sa(dp31
g3
I0
sg4
VAustin McKinley.
p32
sg6
I250
sg7
I265
sa(dp33
g3
I1
sg4
VChristian College
p34
sg6
I305
sg7
I321
sa(dp35
g3
I0
sg4
VSan Diego
p36
sg6
I326
sg7
I334
sasI3
(lp37
(dp38
g3
I0
sg4
VSantiago Gonzalez IV
p39
sg6
I28
sg7
I47
sasI4
(lp40
sI5
(lp41
sI6
(lp42
s.