(dp0
I1
(lp1
(dp2
S'label'
p3
I0
sS'string'
p4
VColumbia
p5
sS'start_index'
p6
I27
sS'end_index'
p7
I34
sa(dp8
g3
I0
sg4
VF.A.
p9
sg6
I52
sg7
I55
sa(dp10
g3
I0
sg4
VMichigan
p11
sg6
I274
sg7
I281
sa(dp12
g3
I0
sg4
VCOOL
p13
sg6
I639
sg7
I642
sa(dp14
g3
I0
sg4
VCOME
p15
sg6
I648
sg7
I651
sa(dp16
g3
I0
sg4
VPERKS
p17
sg6
I658
sg7
I662
sa(dp18
g3
I0
sg4
VRecently
p19
sg6
I824
sg7
I831
sa(dp20
g3
I0
sg4
VDara
p21
sg6
I857
sg7
I860
sa(dp22
g3
I0
sg4
VNew
p23
sg6
I877
sg7
I879
sa(dp24
g3
I0
sg4
VYork
p25
sg6
I881
sg7
I884
sa(dp26
g3
I0
sg4
VP.A.
p27
sg6
I912
sg7
I915
sa(dp28
g3
I0
sg4
VBuenos
p29
sg6
I965
sg7
I970
sa(dp30
g3
I0
sg4
VAires
p31
sg6
I972
sg7
I976
sa(dp32
g3
I0
sg4
VP.A.
p33
sg6
I1061
sg7
I1064
sa(dp34
g3
I0
sg4
VSHOW
p35
sg6
I1407
sg7
I1410
sa(dp36
g3
I0
sg4
VSPEAK
p37
sg6
I1419
sg7
I1423
sa(dp38
g3
I0
sg4
VAttendance
p39
sg6
I1575
sg7
I1584
sa(dp40
g3
I0
sg4
VSnapchatting
p41
sg6
I1845
sg7
I1856
sa(dp42
g3
I0
sg4
VCLASS
p43
sg6
I2126
sg7
I2130
sa(dp44
g3
I0
sg4
VCONNECTIONS
p45
sg6
I2132
sg7
I2142
sa(dp46
g3
I0
sg4
VCAN
p47
sg6
I2144
sg7
I2146
sa(dp48
g3
I0
sg4
VLAUNCH
p49
sg6
I2148
sg7
I2153
sa(dp50
g3
I0
sg4
VCAREER
p51
sg6
I2160
sg7
I2165
sa(dp52
g3
I0
sg4
VEventually
p53
sg6
I2433
sg7
I2442
sa(dp54
g3
I0
sg4
VNew
p55
sg6
I2564
sg7
I2566
sa(dp56
g3
I0
sg4
VYorker
p57
sg6
I2568
sg7
I2573
sasI2
(lp58
(dp59
g3
I1
sg4
VColumbia University
p60
sg6
I27
sg7
I45
sa(dp61
g3
I0
sg4
VM. F.A.
p62
sg6
I49
sg7
I55
sa(dp63
g3
I0
sg4
VNew York
p64
sg6
I877
sg7
I884
sa(dp65
g3
I0
sg4
VYork University
p66
sg6
I881
sg7
I895
sa(dp67
g3
I0
sg4
VG. P.A.
p68
sg6
I909
sg7
I915
sa(dp69
g3
I0
sg4
VBuenos Aires
p70
sg6
I965
sg7
I976
sa(dp71
g3
I0
sg4
VG. P.A.
p72
sg6
I1058
sg7
I1064
sa(dp73
g3
I0
sg4
VCLASS CONNECTIONS
p74
sg6
I2126
sg7
I2142
sa(dp75
g3
I0
sg4
VCONNECTIONS CAN
p76
sg6
I2132
sg7
I2146
sa(dp77
g3
I0
sg4
VCAN LAUNCH
p78
sg6
I2144
sg7
I2153
sa(dp79
g3
I0
sg4
VNew Yorker
p80
sg6
I2564
sg7
I2573
sasI3
(lp81
(dp82
g3
I1
sg4
VUniversity of Michigan
p83
sg6
I260
sg7
I281
sa(dp84
g3
I0
sg4
VCOOL AND COME
p85
sg6
I639
sg7
I651
sa(dp86
g3
I1
sg4
VNew York University
p87
sg6
I877
sg7
I895
sa(dp88
g3
I0
sg4
VCLASS CONNECTIONS CAN
p89
sg6
I2126
sg7
I2146
sa(dp90
g3
I0
sg4
VCONNECTIONS CAN LAUNCH
p91
sg6
I2132
sg7
I2153
sasI4
(lp92
(dp93
g3
I0
sg4
VCLASS CONNECTIONS CAN LAUNCH
p94
sg6
I2126
sg7
I2153
sasI5
(lp95
sI6
(lp96
s.