(dp0
I1
(lp1
(dp2
S'label'
p3
I0
sS'string'
p4
VYears
p5
sS'start_index'
p6
I217
sS'end_index'
p7
I221
sa(dp8
g3
I0
sg4
VNew
p9
sg6
I286
sg7
I288
sa(dp10
g3
I0
sg4
VNew
p11
sg6
I301
sg7
I303
sa(dp12
g3
I0
sg4
VYork
p13
sg6
I305
sg7
I308
sasI2
(lp14
(dp15
g3
I1
sg4
VNew School
p16
sg6
I286
sg7
I295
sa(dp17
g3
I0
sg4
VNew York
p18
sg6
I301
sg7
I308
sa(dp19
g3
I0
sg4
VYork University
p20
sg6
I305
sg7
I319
sasI3
(lp21
(dp22
g3
I0
sg4
VSchool and New
p23
sg6
I290
sg7
I303
sa(dp24
g3
I1
sg4
VNew York University
p25
sg6
I301
sg7
I319
sasI4
(lp26
(dp27
g3
I0
sg4
VSchool and New York
p28
sg6
I290
sg7
I308
sasI5
(lp29
sI6
(lp30
s.