(dp0
I1
(lp1
(dp2
S'label'
p3
I0
sS'string'
p4
VSTUCK
p5
sS'start_index'
p6
I11
sS'end_index'
p7
I15
sa(dp8
g3
I0
sg4
VDon
p9
sg6
I17
sg7
I19
sa(dp10
g3
I0
sg4
VTherapy
p11
sg6
I200
sg7
I206
sa(dp12
g3
I0
sg4
VManhattan
p13
sg6
I485
sg7
I493
sa(dp14
g3
I0
sg4
VNew
p15
sg6
I555
sg7
I557
sa(dp16
g3
I0
sg4
VYork
p17
sg6
I559
sg7
I562
sasI2
(lp18
(dp19
g3
I0
sg4
VSTUCK Don
p20
sg6
I11
sg7
I19
sa(dp21
g3
I0
sg4
VNew York
p22
sg6
I555
sg7
I562
sa(dp23
g3
I0
sg4
VYork University
p24
sg6
I559
sg7
I573
sasI3
(lp25
(dp26
g3
I1
sg4
VNew York University
p27
sg6
I555
sg7
I573
sasI4
(lp28
sI5
(lp29
sI6
(lp30
s.