(dp0
I1
(lp1
(dp2
S'label'
p3
I0
sS'string'
p4
VSubmit
p5
sS'start_index'
p6
I76
sS'end_index'
p7
I81
sa(dp8
g3
I0
sg4
VHalloween.
p9
sg6
I135
sg7
I144
sa(dp10
g3
I0
sg4
VKenyon
p11
sg6
I340
sg7
I345
sa(dp12
g3
I0
sg4
VOhio
p13
sg6
I358
sg7
I361
sa(dp14
g3
I0
sg4
VEvery
p15
sg6
I424
sg7
I428
sa(dp16
g3
I1
sg4
VKenyon
p17
sg6
I639
sg7
I644
sasI2
(lp18
(dp19
g3
I1
sg4
VKenyon College
p20
sg6
I340
sg7
I353
sasI3
(lp21
sI4
(lp22
sI5
(lp23
sI6
(lp24
s.