(dp0
I1
(lp1
(dp2
S'label'
p3
I0
sS'string'
p4
VFeb.
p5
sS'start_index'
p6
I47
sS'end_index'
p7
I50
sa(dp8
g3
I0
sg4
VOld
p9
sg6
I99
sg7
I101
sa(dp10
g3
I1
sg4
VKenyon
p11
sg6
I103
sg7
I108
sasI2
(lp12
(dp13
g3
I0
sg4
VOld Kenyon
p14
sg6
I99
sg7
I108
sasI3
(lp15
sI4
(lp16
sI5
(lp17
sI6
(lp18
s.