(dp0
I1
(lp1
(dp2
S'label'
p3
I0
sS'string'
p4
VPew
p5
sS'start_index'
p6
I134
sS'end_index'
p7
I136
sa(dp8
g3
I0
sg4
VCharitable
p9
sg6
I138
sg7
I147
sa(dp10
g3
I0
sg4
VTrusts
p11
sg6
I149
sg7
I154
sa(dp12
g3
I0
sg4
VJust
p13
sg6
I254
sg7
I257
sa(dp14
g3
I0
sg4
VAmerican
p15
sg6
I334
sg7
I341
sa(dp16
g3
I0
sg4
VAssociation
p17
sg6
I343
sg7
I353
sa(dp18
g3
I0
sg4
VState
p19
sg6
I358
sg7
I362
sa(dp20
g3
I0
sg4
VUniversities.
p21
sg6
I377
sg7
I389
sa(dp22
g3
I0
sg4
VSuch
p23
sg6
I391
sg7
I394
sa(dp24
g3
I0
sg4
VMilo
p25
sg6
I510
sg7
I513
sa(dp26
g3
I0
sg4
VYiannopoulos
p27
sg6
I515
sg7
I526
sa(dp28
g3
I0
sg4
VCalifornia
p29
sg6
I549
sg7
I558
sa(dp30
g3
I0
sg4
VBerkeley.
p31
sg6
I560
sg7
I568
sa(dp32
g3
I0
sg4
VYiannopoulos
p33
sg6
I661
sg7
I672
sa(dp34
g3
I0
sg4
VRobert
p35
sg6
I929
sg7
I934
sa(dp36
g3
I0
sg4
VShibley
p37
sg6
I936
sg7
I942
sa(dp38
g3
I0
sg4
VFoundation
p39
sg6
I974
sg7
I983
sa(dp40
g3
I0
sg4
VIndividual
p41
sg6
I989
sg7
I998
sa(dp42
g3
I0
sg4
VRights
p43
sg6
I1000
sg7
I1005
sa(dp44
g3
I0
sg4
VEducation
p45
sg6
I1010
sg7
I1018
sa(dp46
g3
I0
sg4
VSpeakers
p47
sg6
I1041
sg7
I1048
sa(dp48
g3
I0
sg4
VSuch
p49
sg6
I1163
sg7
I1166
sa(dp50
g3
I0
sg4
VAuburn
p51
sg6
I1197
sg7
I1202
sa(dp52
g3
I0
sg4
VSpencer
p53
sg6
I1261
sg7
I1267
sa(dp54
g3
I0
sg4
VAmendment
p55
sg6
I1369
sg7
I1377
sa(dp56
g3
I0
sg4
VExperience
p57
sg6
I1473
sg7
I1482
sa(dp58
g3
I0
sg4
VTaffye
p59
sg6
I1506
sg7
I1511
sa(dp60
g3
I0
sg4
VBenson
p61
sg6
I1513
sg7
I1518
sa(dp62
g3
I0
sg4
VClayton
p63
sg6
I1520
sg7
I1526
sa(dp64
g3
I0
sg4
VSpencer
p65
sg6
I1735
sg7
I1741
sa(dp66
g3
I0
sg4
VCharlottesville
p67
sg6
I1747
sg7
I1761
sa(dp68
g3
I0
sg4
VDozens
p69
sg6
I1835
sg7
I1840
sa(dp70
g3
I0
sg4
VInternational
p71
sg6
I1951
sg7
I1963
sa(dp72
g3
I0
sg4
VAssociation
p73
sg6
I1965
sg7
I1975
sa(dp74
g3
I0
sg4
VCampus
p75
sg6
I1980
sg7
I1985
sa(dp76
g3
I0
sg4
VLaw
p77
sg6
I1987
sg7
I1989
sa(dp78
g3
I0
sg4
VEnforcement
p79
sg6
I1991
sg7
I2001
sa(dp80
g3
I0
sg4
VAdministrators
p81
sg6
I2003
sg7
I2016
sa(dp82
g3
I0
sg4
VTeresa
p83
sg6
I2141
sg7
I2146
sa(dp84
g3
I0
sg4
VSullivan
p85
sg6
I2151
sg7
I2158
sa(dp86
g3
I0
sg4
VVirginia
p87
sg6
I2195
sg7
I2202
sa(dp88
g3
I0
sg4
VCharlottesville
p89
sg6
I2407
sg7
I2421
sa(dp90
g3
I0
sg4
VSullivan
p91
sg6
I2481
sg7
I2488
sa(dp92
g3
I0
sg4
VHarper
p93
sg6
I2708
sg7
I2713
sa(dp94
g3
I0
sg4
VPresidents
p95
sg6
I2830
sg7
I2839
sasI2
(lp96
(dp97
g3
I0
sg4
VPew Charitable
p98
sg6
I134
sg7
I147
sa(dp99
g3
I0
sg4
VCharitable Trusts
p100
sg6
I138
sg7
I154
sa(dp101
g3
I0
sg4
VAmerican Association
p102
sg6
I334
sg7
I353
sa(dp103
g3
I0
sg4
VMilo Yiannopoulos
p104
sg6
I510
sg7
I526
sa(dp105
g3
I0
sg4
VCalifornia Berkeley.
p106
sg6
I549
sg7
I568
sa(dp107
g3
I0
sg4
VRobert Shibley
p108
sg6
I929
sg7
I942
sa(dp109
g3
I0
sg4
VIndividual Rights
p110
sg6
I989
sg7
I1005
sa(dp111
g3
I1
sg4
VAuburn University
p112
sg6
I1197
sg7
I1213
sa(dp113
g3
I0
sg4
VTaffye Benson
p114
sg6
I1506
sg7
I1518
sa(dp115
g3
I0
sg4
VBenson Clayton
p116
sg6
I1513
sg7
I1526
sa(dp117
g3
I0
sg4
VInternational Association
p118
sg6
I1951
sg7
I1975
sa(dp119
g3
I0
sg4
VCampus Law
p120
sg6
I1980
sg7
I1989
sa(dp121
g3
I0
sg4
VLaw Enforcement
p122
sg6
I1987
sg7
I2001
sa(dp123
g3
I0
sg4
VEnforcement Administrators
p124
sg6
I1991
sg7
I2016
sa(dp125
g3
I0
sg4
VTeresa A.
p126
sg6
I2141
sg7
I2149
sa(dp127
g3
I0
sg4
VA. Sullivan
p128
sg6
I2148
sg7
I2158
sasI3
(lp129
(dp130
g3
I0
sg4
VPew Charitable Trusts
p131
sg6
I134
sg7
I154
sa(dp132
g3
I0
sg4
VAssociation of State
p133
sg6
I343
sg7
I362
sa(dp134
g3
I0
sg4
VUniversity of California
p135
sg6
I535
sg7
I558
sa(dp136
g3
I0
sg4
VTaffye Benson Clayton
p137
sg6
I1506
sg7
I1526
sa(dp138
g3
I0
sg4
VSpencer and Charlottesville
p139
sg6
I1735
sg7
I1761
sa(dp140
g3
I0
sg4
VAssociation of Campus
p141
sg6
I1965
sg7
I1985
sa(dp142
g3
I0
sg4
VCampus Law Enforcement
p143
sg6
I1980
sg7
I2001
sa(dp144
g3
I0
sg4
VLaw Enforcement Administrators
p145
sg6
I1987
sg7
I2016
sa(dp146
g3
I0
sg4
VTeresa A. Sullivan
p147
sg6
I2141
sg7
I2158
sa(dp148
g3
I1
sg4
VUniversity of Virginia
p149
sg6
I2181
sg7
I2202
sasI4
(lp150
(dp151
g3
I0
sg4
VAmerican Association of State
p152
sg6
I334
sg7
I362
sa(dp153
g3
I1
sg4
VUniversity of California Berkeley.
p154
sg6
I535
sg7
I568
sa(dp155
g3
I0
sg4
VInternational Association of Campus
p156
sg6
I1951
sg7
I1985
sa(dp157
g3
I0
sg4
VAssociation of Campus Law
p158
sg6
I1965
sg7
I1989
sa(dp159
g3
I0
sg4
VCampus Law Enforcement Administrators
p160
sg6
I1980
sg7
I2016
sasI5
(lp161
(dp162
g3
I0
sg4
VInternational Association of Campus Law
p163
sg6
I1951
sg7
I1989
sa(dp164
g3
I0
sg4
VAssociation of Campus Law Enforcement
p165
sg6
I1965
sg7
I2001
sasI6
(lp166
(dp167
g3
I0
sg4
VInternational Association of Campus Law Enforcement
p168
sg6
I1951
sg7
I2001
sa(dp169
g3
I0
sg4
VAssociation of Campus Law Enforcement Administrators
p170
sg6
I1965
sg7
I2016
sas.