(dp0
I1
(lp1
(dp2
S'label'
p3
I0
sS'string'
p4
VAccording
p5
sS'start_index'
p6
I0
sS'end_index'
p7
I8
sa(dp8
g3
I0
sg4
VAllegedly
p9
sg6
I93
sg7
I101
sa(dp10
g3
I0
sg4
VOld
p11
sg6
I246
sg7
I248
sa(dp12
g3
I1
sg4
VKenyon
p13
sg6
I250
sg7
I255
sa(dp14
g3
I0
sg4
VKenyonite
p15
sg6
I345
sg7
I353
sa(dp16
g3
I0
sg4
VCampus
p17
sg6
I1350
sg7
I1355
sa(dp18
g3
I0
sg4
VHalloween.
p19
sg6
I1452
sg7
I1461
sa(dp20
g3
I0
sg4
VDid
p21
sg6
I1463
sg7
I1465
sa(dp22
g3
I0
sg4
VOld
p23
sg6
I1491
sg7
I1493
sa(dp24
g3
I1
sg4
VKenyon
p25
sg6
I1495
sg7
I1500
sa(dp26
g3
I0
sg4
VPlease
p27
sg6
I1578
sg7
I1583
sasI2
(lp28
(dp29
g3
I0
sg4
VOld Kenyon
p30
sg6
I246
sg7
I255
sa(dp31
g3
I0
sg4
VOld Kenyon
p32
sg6
I1491
sg7
I1500
sa(dp33
g3
I0
sg4
VKenyon Or
p34
sg6
I1495
sg7
I1503
sasI3
(lp35
(dp36
g3
I0
sg4
VOld Kenyon Or
p37
sg6
I1491
sg7
I1503
sasI4
(lp38
sI5
(lp39
sI6
(lp40
s.