(dp0
I1
(lp1
(dp2
S'label'
p3
I0
sS'string'
p4
VCHAPEL
p5
sS'start_index'
p6
I0
sS'end_index'
p7
I5
sa(dp8
g3
I0
sg4
VHILL
p9
sg6
I7
sg7
I10
sa(dp10
g3
I0
sg4
VNorth
p11
sg6
I75
sg7
I79
sa(dp12
g3
I0
sg4
VCarolina
p13
sg6
I81
sg7
I88
sa(dp14
g3
I0
sg4
VLate
p15
sg6
I106
sg7
I109
sa(dp16
g3
I0
sg4
VNight
p17
sg6
I111
sg7
I115
sa(dp18
g3
I0
sg4
VRoy
p19
sg6
I122
sg7
I124
sa(dp20
g3
I0
sg4
VRoy
p21
sg6
I159
sg7
I161
sa(dp22
g3
I0
sg4
VWilliams
p23
sg6
I163
sg7
I170
sa(dp24
g3
I0
sg4
VAsheville
p25
sg6
I190
sg7
I198
sa(dp26
g3
I0
sg4
VKansas
p27
sg6
I232
sg7
I237
sa(dp28
g3
I0
sg4
VTar
p29
sg6
I256
sg7
I258
sa(dp30
g3
I0
sg4
VHeels.
p31
sg6
I260
sg7
I265
sa(dp32
g3
I0
sg4
VTar
p33
sg6
I508
sg7
I510
sa(dp34
g3
I0
sg4
VHeels
p35
sg6
I512
sg7
I516
sa(dp36
g3
I0
sg4
VGonzaga
p37
sg6
I537
sg7
I543
sa(dp38
g3
I0
sg4
VApril.
p39
sg6
I548
sg7
I553
sa(dp40
g3
I0
sg4
VWilliams
p41
sg6
I594
sg7
I601
sa(dp42
g3
I0
sg4
VDean
p43
sg6
I698
sg7
I701
sa(dp44
g3
I0
sg4
VSmith
p45
sg6
I703
sg7
I707
sa(dp46
g3
I0
sg4
VCenter
p47
sg6
I709
sg7
I714
sa(dp48
g3
I0
sg4
VTar
p49
sg6
I728
sg7
I730
sa(dp50
g3
I0
sg4
VHeels
p51
sg6
I732
sg7
I736
sa(dp52
g3
I0
sg4
VC.A.
p53
sg6
I792
sg7
I795
sa(dp54
g3
I0
sg4
VNorth
p55
sg6
I939
sg7
I943
sa(dp56
g3
I0
sg4
VCarolina
p57
sg6
I945
sg7
I952
sa(dp58
g3
I0
sg4
VTar
p59
sg6
I1006
sg7
I1008
sa(dp60
g3
I0
sg4
VHeels
p61
sg6
I1010
sg7
I1014
sa(dp62
g3
I0
sg4
VAtlantic
p63
sg6
I1110
sg7
I1117
sa(dp64
g3
I0
sg4
VCoast
p65
sg6
I1119
sg7
I1123
sa(dp66
g3
I0
sg4
VConference
p67
sg6
I1125
sg7
I1134
sa(dp68
g3
I0
sg4
VC.A.
p69
sg6
I1217
sg7
I1220
sasI2
(lp70
(dp71
g3
I0
sg4
VCHAPEL HILL
p72
sg6
I0
sg7
I10
sa(dp73
g3
I0
sg4
VHILL N.
p74
sg6
I7
sg7
I13
sa(dp75
g3
I0
sg4
VN. C.
p76
sg6
I12
sg7
I16
sa(dp77
g3
I0
sg4
VNorth Carolina
p78
sg6
I75
sg7
I88
sa(dp79
g3
I0
sg4
VLate Night
p80
sg6
I106
sg7
I115
sa(dp81
g3
I0
sg4
VRoy Williams
p82
sg6
I159
sg7
I170
sa(dp83
g3
I0
sg4
VTar Heels.
p84
sg6
I256
sg7
I265
sa(dp85
g3
I0
sg4
VTar Heels
p86
sg6
I508
sg7
I516
sa(dp87
g3
I0
sg4
VDean Smith
p88
sg6
I698
sg7
I707
sa(dp89
g3
I0
sg4
VSmith Center
p90
sg6
I703
sg7
I714
sa(dp91
g3
I0
sg4
VTar Heels
p92
sg6
I728
sg7
I736
sa(dp93
g3
I0
sg4
VN. C.A.
p94
sg6
I789
sg7
I795
sa(dp95
g3
I0
sg4
VC.A. A.
p96
sg6
I792
sg7
I798
sa(dp97
g3
I1
sg4
VNorth Carolina
p98
sg6
I939
sg7
I952
sa(dp99
g3
I0
sg4
VTar Heels
p100
sg6
I1006
sg7
I1014
sa(dp101
g3
I0
sg4
VAtlantic Coast
p102
sg6
I1110
sg7
I1123
sa(dp103
g3
I0
sg4
VCoast Conference
p104
sg6
I1119
sg7
I1134
sa(dp105
g3
I0
sg4
VN. C.A.
p106
sg6
I1214
sg7
I1220
sa(dp107
g3
I0
sg4
VC.A. A.
p108
sg6
I1217
sg7
I1223
sasI3
(lp109
(dp110
g3
I0
sg4
VCHAPEL HILL N.
p111
sg6
I0
sg7
I13
sa(dp112
g3
I0
sg4
VHILL N. C.
p113
sg6
I7
sg7
I16
sa(dp114
g3
I0
sg4
VUniversity of North
p115
sg6
I61
sg7
I79
sa(dp116
g3
I1
sg4
VUniversity of Kansas
p117
sg6
I218
sg7
I237
sa(dp118
g3
I0
sg4
VDean Smith Center
p119
sg6
I698
sg7
I714
sa(dp120
g3
I0
sg4
VN. C.A. A.
p121
sg6
I789
sg7
I798
sa(dp122
g3
I0
sg4
VAtlantic Coast Conference
p123
sg6
I1110
sg7
I1134
sa(dp124
g3
I0
sg4
VN. C.A. A.
p125
sg6
I1214
sg7
I1223
sasI4
(lp126
(dp127
g3
I0
sg4
VCHAPEL HILL N. C.
p128
sg6
I0
sg7
I16
sa(dp129
g3
I1
sg4
VUniversity of North Carolina
p130
sg6
I61
sg7
I88
sasI5
(lp131
sI6
(lp132
s.