(dp0
I1
(lp1
(dp2
S'label'
p3
I0
sS'string'
p4
VNorth
p5
sS'start_index'
p6
I0
sS'end_index'
p7
I4
sa(dp8
g3
I0
sg4
VCarolina
p9
sg6
I6
sg7
I13
sa(dp10
g3
I0
sg4
VMiranda
p11
sg6
I140
sg7
I146
sa(dp12
g3
I0
sg4
VStone
p13
sg6
I148
sg7
I152
sa(dp14
g3
I0
sg4
VLate
p15
sg6
I189
sg7
I192
sa(dp16
g3
I0
sg4
VNight
p17
sg6
I194
sg7
I198
sa(dp18
g3
I0
sg4
VRoy
p19
sg6
I205
sg7
I207
sa(dp20
g3
I0
sg4
VNorth
p21
sg6
I350
sg7
I354
sa(dp22
g3
I0
sg4
VCarolina
p23
sg6
I356
sg7
I363
sa(dp24
g3
I0
sg4
VMatthew
p25
sg6
I481
sg7
I487
sa(dp26
g3
I0
sg4
VKinlaw
p27
sg6
I489
sg7
I494
sa(dp28
g3
I0
sg4
VSt.
p29
sg6
I514
sg7
I516
sa(dp30
g3
I0
sg4
VPauls
p31
sg6
I518
sg7
I522
sa(dp32
g3
I0
sg4
VDean
p33
sg6
I611
sg7
I614
sa(dp34
g3
I0
sg4
VDome
p35
sg6
I616
sg7
I619
sa(dp36
g3
I0
sg4
VSmith
p37
sg6
I628
sg7
I632
sa(dp38
g3
I0
sg4
VCenter
p39
sg6
I634
sg7
I639
sasI2
(lp40
(dp41
g3
I1
sg4
VNorth Carolina
p42
sg6
I0
sg7
I13
sa(dp43
g3
I0
sg4
VMiranda Stone
p44
sg6
I140
sg7
I152
sa(dp45
g3
I0
sg4
VLate Night
p46
sg6
I189
sg7
I198
sa(dp47
g3
I1
sg4
VNorth Carolina
p48
sg6
I350
sg7
I363
sa(dp49
g3
I0
sg4
VMatthew Kinlaw
p50
sg6
I481
sg7
I494
sa(dp51
g3
I0
sg4
VSt. Pauls
p52
sg6
I514
sg7
I522
sa(dp53
g3
I0
sg4
VPauls N.
p54
sg6
I518
sg7
I525
sa(dp55
g3
I0
sg4
VN. C.
p56
sg6
I524
sg7
I528
sa(dp57
g3
I0
sg4
VDean Dome
p58
sg6
I611
sg7
I619
sa(dp59
g3
I0
sg4
VSmith Center
p60
sg6
I628
sg7
I639
sasI3
(lp61
(dp62
g3
I0
sg4
VSt. Pauls N.
p63
sg6
I514
sg7
I525
sa(dp64
g3
I0
sg4
VPauls N. C.
p65
sg6
I518
sg7
I528
sasI4
(lp66
(dp67
g3
I0
sg4
VSt. Pauls N. C.
p68
sg6
I514
sg7
I528
sasI5
(lp69
sI6
(lp70
s.