(dp0
I1
(lp1
(dp2
S'label'
p3
I0
sS'string'
p4
VPantone
p5
sS'start_index'
p6
I72
sS'end_index'
p7
I78
sa(dp8
g3
I0
sg4
VCarolina
p9
sg6
I98
sg7
I105
sa(dp10
g3
I0
sg4
VBlue
p11
sg6
I107
sg7
I110
sa(dp12
g3
I0
sg4
VNorth
p13
sg6
I298
sg7
I302
sa(dp14
g3
I0
sg4
VCarolina
p15
sg6
I304
sg7
I311
sa(dp16
g3
I0
sg4
VTobacco
p17
sg6
I330
sg7
I336
sa(dp18
g3
I0
sg4
VNorth
p19
sg6
I430
sg7
I434
sa(dp20
g3
I0
sg4
VCarolina
p21
sg6
I436
sg7
I443
sa(dp22
g3
I0
sg4
VC.A.
p23
sg6
I712
sg7
I715
sa(dp24
g3
I0
sg4
VStone
p25
sg6
I821
sg7
I825
sasI2
(lp26
(dp27
g3
I0
sg4
VCarolina Blue
p28
sg6
I98
sg7
I110
sa(dp29
g3
I0
sg4
VNorth Carolina
p30
sg6
I298
sg7
I311
sa(dp31
g3
I1
sg4
VNorth Carolina
p32
sg6
I430
sg7
I443
sa(dp33
g3
I0
sg4
VN. C.A.
p34
sg6
I709
sg7
I715
sa(dp35
g3
I0
sg4
VC.A. A.
p36
sg6
I712
sg7
I718
sasI3
(lp37
(dp38
g3
I0
sg4
VN. C.A. A.
p39
sg6
I709
sg7
I718
sasI4
(lp40
sI5
(lp41
sI6
(lp42
s.