(dp0
I1
(lp1
(dp2
S'label'
p3
I0
sS'string'
p4
VArt
p5
sS'start_index'
p6
I11
sS'end_index'
p7
I13
sa(dp8
g3
I0
sg4
VChansky
p9
sg6
I15
sg7
I21
sa(dp10
g3
I0
sg4
VNorth
p11
sg6
I80
sg7
I84
sa(dp12
g3
I0
sg4
VCarolina
p13
sg6
I86
sg7
I93
sa(dp14
g3
I0
sg4
VNorth
p15
sg6
I131
sg7
I135
sa(dp16
g3
I0
sg4
VCarolina
p17
sg6
I137
sg7
I144
sa(dp18
g3
I0
sg4
VNorth
p19
sg6
I221
sg7
I225
sa(dp20
g3
I0
sg4
VCarolina
p21
sg6
I227
sg7
I234
sasI2
(lp22
(dp23
g3
I0
sg4
VArt Chansky
p24
sg6
I11
sg7
I21
sa(dp25
g3
I1
sg4
VNorth Carolina
p26
sg6
I80
sg7
I93
sa(dp27
g3
I1
sg4
VNorth Carolina
p28
sg6
I131
sg7
I144
sa(dp29
g3
I1
sg4
VNorth Carolina
p30
sg6
I221
sg7
I234
sasI3
(lp31
sI4
(lp32
sI5
(lp33
sI6
(lp34
s.