(dp0
I1
(lp1
(dp2
S'label'
p3
I0
sS'string'
p4
VChansky
p5
sS'start_index'
p6
I45
sS'end_index'
p7
I51
sa(dp8
g3
I0
sg4
VReturning
p9
sg6
I118
sg7
I126
sa(dp10
g3
I0
sg4
VKenny
p11
sg6
I187
sg7
I191
sa(dp12
g3
I0
sg4
VSmith
p13
sg6
I193
sg7
I197
sa(dp14
g3
I0
sg4
VNorth
p15
sg6
I210
sg7
I214
sa(dp16
g3
I0
sg4
VCarolina
p17
sg6
I216
sg7
I223
sa(dp18
g3
I0
sg4
VB.A.
p19
sg6
I232
sg7
I235
sa(dp20
g3
I0
sg4
VTNT
p21
sg6
I257
sg7
I259
sa(dp22
g3
I0
sg4
VB.A.
p23
sg6
I274
sg7
I277
sa(dp24
g3
I0
sg4
VSmith
p25
sg6
I293
sg7
I297
sa(dp26
g3
I0
sg4
VDrake
p27
sg6
I321
sg7
I325
sa(dp28
g3
I0
sg4
VFuture
p29
sg6
I331
sg7
I336
sa(dp30
g3
I0
sg4
VJumpman
p31
sg6
I343
sg7
I349
sa(dp32
g3
I0
sg4
VNike
p33
sg6
I376
sg7
I379
sa(dp34
g3
I0
sg4
VKentucky
p35
sg6
I486
sg7
I493
sa(dp36
g3
I0
sg4
VBig
p37
sg6
I510
sg7
I512
sa(dp38
g3
I0
sg4
VBlue
p39
sg6
I514
sg7
I517
sa(dp40
g3
I0
sg4
VMadness
p41
sg6
I519
sg7
I525
sa(dp42
g3
I0
sg4
VDrake
p43
sg6
I556
sg7
I560
sa(dp44
g3
I1
sg4
VKentucky
p45
sg6
I602
sg7
I609
sa(dp46
g3
I0
sg4
VDad
p47
sg6
I611
sg7
I613
sa(dp48
g3
I0
sg4
VTar
p49
sg6
I687
sg7
I689
sa(dp50
g3
I0
sg4
VHeels
p51
sg6
I691
sg7
I695
sa(dp52
g3
I0
sg4
VKennedy
p53
sg6
I774
sg7
I780
sa(dp54
g3
I0
sg4
VMeeks
p55
sg6
I782
sg7
I786
sa(dp56
g3
I0
sg4
VLuke
p57
sg6
I896
sg7
I899
sa(dp58
g3
I0
sg4
VMaye
p59
sg6
I901
sg7
I904
sa(dp60
g3
I1
sg4
VKentucky
p61
sg6
I938
sg7
I945
sasI2
(lp62
(dp63
g3
I0
sg4
VKenny Smith
p64
sg6
I187
sg7
I197
sa(dp65
g3
I1
sg4
VNorth Carolina
p66
sg6
I210
sg7
I223
sa(dp67
g3
I0
sg4
VN. B.A.
p68
sg6
I229
sg7
I235
sa(dp69
g3
I0
sg4
VN. B.A.
p70
sg6
I271
sg7
I277
sa(dp71
g3
I0
sg4
VBig Blue
p72
sg6
I510
sg7
I517
sa(dp73
g3
I0
sg4
VBlue Madness
p74
sg6
I514
sg7
I525
sa(dp75
g3
I0
sg4
VKentucky Dad
p76
sg6
I602
sg7
I613
sa(dp77
g3
I0
sg4
VTar Heels
p78
sg6
I687
sg7
I695
sa(dp79
g3
I0
sg4
VKennedy Meeks
p80
sg6
I774
sg7
I786
sa(dp81
g3
I0
sg4
VLuke Maye
p82
sg6
I896
sg7
I904
sasI3
(lp83
(dp84
g3
I0
sg4
VCarolina and N.
p85
sg6
I216
sg7
I230
sa(dp86
g3
I0
sg4
VDrake and Future
p87
sg6
I321
sg7
I336
sa(dp88
g3
I1
sg4
VUniversity of Kentucky
p89
sg6
I472
sg7
I493
sa(dp90
g3
I0
sg4
VBig Blue Madness
p91
sg6
I510
sg7
I525
sasI4
(lp92
(dp93
g3
I0
sg4
VNorth Carolina and N.
p94
sg6
I210
sg7
I230
sa(dp95
g3
I0
sg4
VCarolina and N. B.A.
p96
sg6
I216
sg7
I235
sasI5
(lp97
(dp98
g3
I0
sg4
VNorth Carolina and N. B.A.
p99
sg6
I210
sg7
I235
sasI6
(lp100
s.