(dp0
I1
(lp1
(dp2
S'label'
p3
I0
sS'string'
p4
VLast
p5
sS'start_index'
p6
I0
sS'end_index'
p7
I3
sa(dp8
g3
I0
sg4
VCharles
p9
sg6
I32
sg7
I38
sa(dp10
g3
I0
sg4
VMurray
p11
sg6
I40
sg7
I45
sa(dp12
g3
I0
sg4
VMichigan.
p13
sg6
I73
sg7
I81
sa(dp14
g3
I0
sg4
VGuess
p15
sg6
I83
sg7
I87
sa(dp16
g3
I0
sg4
VAmerican
p17
sg6
I126
sg7
I133
sa(dp18
g3
I0
sg4
VEnterprise
p19
sg6
I135
sg7
I144
sa(dp20
g3
I0
sg4
VMichigan
p21
sg6
I158
sg7
I165
sa(dp22
g3
I0
sg4
VExecutive
p23
sg6
I167
sg7
I175
sa(dp24
g3
I0
sg4
VCouncil
p25
sg6
I177
sg7
I183
sa(dp26
g3
I0
sg4
VMurray
p27
sg6
I263
sg7
I268
sa(dp28
g3
I0
sg4
VComing
p29
sg6
I366
sg7
I371
sa(dp30
g3
I0
sg4
VApart
p31
sg6
I373
sg7
I377
sa(dp32
g3
I0
sg4
VVarious
p33
sg6
I497
sg7
I503
sa(dp34
g3
I0
sg4
VMurray
p35
sg6
I774
sg7
I779
sa(dp36
g3
I0
sg4
VRepublican
p37
sg6
I879
sg7
I888
sa(dp38
g3
I0
sg4
VMichigan
p39
sg6
I1058
sg7
I1065
sa(dp40
g3
I0
sg4
VMurray
p41
sg6
I1264
sg7
I1269
sa(dp42
g3
I0
sg4
VMiddlebury
p43
sg6
I1294
sg7
I1303
sa(dp44
g3
I0
sg4
VMarch.
p45
sg6
I1316
sg7
I1321
sa(dp46
g3
I0
sg4
VAllison
p47
sg6
I1345
sg7
I1351
sa(dp48
g3
I0
sg4
VStanger
p49
sg6
I1353
sg7
I1359
sasI2
(lp50
(dp51
g3
I0
sg4
VCharles Murray
p52
sg6
I32
sg7
I45
sa(dp53
g3
I0
sg4
VAmerican Enterprise
p54
sg6
I126
sg7
I144
sa(dp55
g3
I0
sg4
VEnterprise Institute
p56
sg6
I135
sg7
I154
sa(dp57
g3
I0
sg4
VMichigan Executive
p58
sg6
I158
sg7
I175
sa(dp59
g3
I0
sg4
VExecutive Council
p60
sg6
I167
sg7
I183
sa(dp61
g3
I0
sg4
VComing Apart
p62
sg6
I366
sg7
I377
sa(dp63
g3
I1
sg4
VMiddlebury College
p64
sg6
I1294
sg7
I1311
sa(dp65
g3
I0
sg4
VAllison Stanger
p66
sg6
I1345
sg7
I1359
sasI3
(lp67
(dp68
g3
I1
sg4
VUniversity of Michigan.
p69
sg6
I59
sg7
I81
sa(dp70
g3
I1
sg4
VAmerican Enterprise Institute
p71
sg6
I126
sg7
I154
sa(dp72
g3
I0
sg4
VMichigan Executive Council
p73
sg6
I158
sg7
I183
sa(dp74
g3
I1
sg4
VUniversity of Michigan
p75
sg6
I1044
sg7
I1065
sasI4
(lp76
sI5
(lp77
sI6
(lp78
s.