(dp0
I1
(lp1
(dp2
S'label'
p3
I0
sS'string'
p4
VMurray.
p5
sS'start_index'
p6
I187
sS'end_index'
p7
I193
sa(dp8
g3
I0
sg4
VOthers
p9
sg6
I195
sg7
I200
sa(dp10
g3
I0
sg4
VNazis
p11
sg6
I245
sg7
I249
sa(dp12
g3
I0
sg4
VMichigan
p13
sg6
I287
sg7
I294
sa(dp14
g3
I0
sg4
VFinally
p15
sg6
I357
sg7
I363
sa(dp16
g3
I0
sg4
VMurray
p17
sg6
I501
sg7
I506
sa(dp18
g3
I0
sg4
VMurray
p19
sg6
I562
sg7
I567
sa(dp20
g3
I0
sg4
VPresident
p21
sg6
I693
sg7
I701
sa(dp22
g3
I0
sg4
VTrump
p23
sg6
I703
sg7
I707
sa(dp24
g3
I0
sg4
VMurray
p25
sg6
I718
sg7
I723
sa(dp26
g3
I0
sg4
VMurray
p27
sg6
I763
sg7
I768
sa(dp28
g3
I0
sg4
VAmerican
p29
sg6
I987
sg7
I994
sa(dp30
g3
I0
sg4
VMurray
p31
sg6
I1107
sg7
I1112
sa(dp32
g3
I0
sg4
VMurray
p33
sg6
I1392
sg7
I1397
sa(dp34
g3
I0
sg4
VMurray
p35
sg6
I1528
sg7
I1533
sa(dp36
g3
I0
sg4
VBell
p37
sg6
I1592
sg7
I1595
sa(dp38
g3
I0
sg4
VCurve.
p39
sg6
I1597
sg7
I1602
sa(dp40
g3
I0
sg4
VMiddlebury.
p41
sg6
I1629
sg7
I1639
sasI2
(lp42
(dp43
g3
I0
sg4
VPresident Trump
p44
sg6
I693
sg7
I707
sa(dp45
g3
I0
sg4
VBell Curve.
p46
sg6
I1592
sg7
I1602
sasI3
(lp47
(dp48
g3
I1
sg4
VUniversity of Michigan
p49
sg6
I273
sg7
I294
sasI4
(lp50
sI5
(lp51
sI6
(lp52
s.