(dp0
I1
(lp1
(dp2
S'label'
p3
I0
sS'string'
p4
VAmericans
p5
sS'start_index'
p6
I275
sS'end_index'
p7
I283
sa(dp8
g3
I0
sg4
VOften
p9
sg6
I344
sg7
I348
sa(dp10
g3
I0
sg4
VAccording
p11
sg6
I614
sg7
I622
sa(dp12
g3
I0
sg4
VGeneral
p13
sg6
I631
sg7
I637
sa(dp14
g3
I0
sg4
VSocial
p15
sg6
I639
sg7
I644
sa(dp16
g3
I0
sg4
VSurvey
p17
sg6
I646
sg7
I651
sa(dp18
g3
I0
sg4
VNational
p19
sg6
I670
sg7
I677
sa(dp20
g3
I0
sg4
VOpinion
p21
sg6
I679
sg7
I685
sa(dp22
g3
I0
sg4
VResearch
p23
sg6
I687
sg7
I694
sa(dp24
g3
I0
sg4
VCenter
p25
sg6
I696
sg7
I701
sa(dp26
g3
I0
sg4
VChicago
p27
sg6
I724
sg7
I730
sa(dp28
g3
I0
sg4
VRepublicans
p29
sg6
I752
sg7
I762
sa(dp30
g3
I0
sg4
VAfrican
p31
sg6
I777
sg7
I783
sa(dp32
g3
I0
sg4
VAmericans
p33
sg6
I785
sg7
I793
sa(dp34
g3
I0
sg4
VRepublicans
p35
sg6
I915
sg7
I925
sa(dp36
g3
I0
sg4
VAfrican
p37
sg6
I949
sg7
I955
sa(dp38
g3
I0
sg4
VAmericans
p39
sg6
I957
sg7
I965
sa(dp40
g3
I0
sg4
VF.L.
p41
sg6
I1022
sg7
I1025
sa(dp42
g3
I0
sg4
VBurgess
p43
sg6
I1034
sg7
I1040
sa(dp44
g3
I0
sg4
VOwens
p45
sg6
I1042
sg7
I1046
sa(dp46
g3
I0
sg4
VTucker
p47
sg6
I1053
sg7
I1058
sa(dp48
g3
I0
sg4
VCarlson
p49
sg6
I1060
sg7
I1066
sa(dp50
g3
I0
sg4
VOwens
p51
sg6
I1227
sg7
I1231
sa(dp52
g3
I0
sg4
VAfrican
p53
sg6
I1244
sg7
I1250
sa(dp54
g3
I0
sg4
VAmerican.
p55
sg6
I1252
sg7
I1260
sa(dp56
g3
I0
sg4
VG.B.
p57
sg6
I1285
sg7
I1288
sa(dp58
g3
I0
sg4
VYouGov
p59
sg6
I1334
sg7
I1339
sa(dp60
g3
I0
sg4
VAmericans
p61
sg6
I1355
sg7
I1363
sa(dp62
g3
I0
sg4
VShapiro
p63
sg6
I1380
sg7
I1386
sa(dp64
g3
I0
sg4
VDonald
p65
sg6
I1649
sg7
I1654
sa(dp66
g3
I0
sg4
VTrump
p67
sg6
I1656
sg7
I1660
sa(dp68
g3
I0
sg4
VAmerican
p69
sg6
I1759
sg7
I1766
sa(dp70
g3
I0
sg4
VAmerican
p71
sg6
I1787
sg7
I1794
sa(dp72
g3
I0
sg4
VAmerica
p73
sg6
I1862
sg7
I1868
sa(dp74
g3
I0
sg4
VAmerica
p75
sg6
I1973
sg7
I1979
sasI2
(lp76
(dp77
g3
I0
sg4
VGeneral Social
p78
sg6
I631
sg7
I644
sa(dp79
g3
I0
sg4
VSocial Survey
p80
sg6
I639
sg7
I651
sa(dp81
g3
I0
sg4
VNational Opinion
p82
sg6
I670
sg7
I685
sa(dp83
g3
I0
sg4
VOpinion Research
p84
sg6
I679
sg7
I694
sa(dp85
g3
I0
sg4
VResearch Center
p86
sg6
I687
sg7
I701
sa(dp87
g3
I0
sg4
VAfrican Americans
p88
sg6
I777
sg7
I793
sa(dp89
g3
I0
sg4
VAfrican Americans
p90
sg6
I949
sg7
I965
sa(dp91
g3
I0
sg4
VN. F.L.
p92
sg6
I1019
sg7
I1025
sa(dp93
g3
I0
sg4
VBurgess Owens
p94
sg6
I1034
sg7
I1046
sa(dp95
g3
I0
sg4
VTucker Carlson
p96
sg6
I1053
sg7
I1066
sa(dp97
g3
I0
sg4
VAfrican American.
p98
sg6
I1244
sg7
I1260
sa(dp99
g3
I0
sg4
VL. G.B.
p100
sg6
I1282
sg7
I1288
sa(dp101
g3
I0
sg4
VG.B. T.
p102
sg6
I1285
sg7
I1291
sa(dp103
g3
I0
sg4
VDonald Trump
p104
sg6
I1649
sg7
I1660
sasI3
(lp105
(dp106
g3
I0
sg4
VGeneral Social Survey
p107
sg6
I631
sg7
I651
sa(dp108
g3
I0
sg4
VNational Opinion Research
p109
sg6
I670
sg7
I694
sa(dp110
g3
I0
sg4
VOpinion Research Center
p111
sg6
I679
sg7
I701
sa(dp112
g3
I1
sg4
VUniversity of Chicago
p113
sg6
I710
sg7
I730
sa(dp114
g3
I0
sg4
VL. G.B. T.
p115
sg6
I1282
sg7
I1291
sasI4
(lp116
(dp117
g3
I0
sg4
VNational Opinion Research Center
p118
sg6
I670
sg7
I701
sasI5
(lp119
sI6
(lp120
s.