(dp0
I1
(lp1
(dp2
S'label'
p3
I0
sS'string'
p4
VJeremy
p5
sS'start_index'
p6
I33
sS'end_index'
p7
I38
sa(dp8
g3
I0
sg4
VFoley
p9
sg6
I40
sg7
I44
sa(dp10
g3
I1
sg4
VFlorida
p11
sg6
I71
sg7
I77
sa(dp12
g3
I0
sg4
VMary
p13
sg6
I99
sg7
I102
sa(dp14
g3
I0
sg4
VSue
p15
sg6
I104
sg7
I106
sa(dp16
g3
I0
sg4
VColeman
p17
sg6
I108
sg7
I114
sa(dp18
g3
I0
sg4
VAssociation
p19
sg6
I133
sg7
I143
sa(dp20
g3
I0
sg4
VAmerican
p21
sg6
I148
sg7
I155
sa(dp22
g3
I0
sg4
VGene
p23
sg6
I174
sg7
I177
sa(dp24
g3
I0
sg4
VSmith
p25
sg6
I179
sg7
I183
sa(dp26
g3
I0
sg4
VOhio
p27
sg6
I185
sg7
I188
sa(dp28
g3
I0
sg4
VState
p29
sg6
I190
sg7
I194
sa(dp30
g3
I0
sg4
VC.A.
p31
sg6
I278
sg7
I281
sa(dp32
g3
I0
sg4
VC.A.
p33
sg6
I293
sg7
I296
sa(dp34
g3
I0
sg4
VEmmert
p35
sg6
I430
sg7
I435
sa(dp36
g3
I0
sg4
VNike
p37
sg6
I685
sg7
I688
sa(dp38
g3
I0
sg4
VAdidas
p39
sg6
I690
sg7
I695
sa(dp40
g3
I0
sg4
VArmour
p41
sg6
I707
sg7
I712
sa(dp42
g3
I0
sg4
VPlayers
p43
sg6
I848
sg7
I854
sa(dp44
g3
I0
sg4
VA.U.
p45
sg6
I1067
sg7
I1070
sa(dp46
g3
I0
sg4
VAdidas
p47
sg6
I1108
sg7
I1113
sa(dp48
g3
I0
sg4
VAdidas.
p49
sg6
I1202
sg7
I1208
sa(dp50
g3
I0
sg4
VC.A.
p51
sg6
I1284
sg7
I1287
sa(dp52
g3
I0
sg4
VB.A.
p53
sg6
I1317
sg7
I1320
sa(dp54
g3
I0
sg4
VB.A.
p55
sg6
I1333
sg7
I1336
sasI2
(lp56
(dp57
g3
I0
sg4
VJeremy Foley
p58
sg6
I33
sg7
I44
sa(dp59
g3
I0
sg4
VMary Sue
p60
sg6
I99
sg7
I106
sa(dp61
g3
I0
sg4
VSue Coleman
p62
sg6
I104
sg7
I114
sa(dp63
g3
I0
sg4
VGene Smith
p64
sg6
I174
sg7
I183
sa(dp65
g3
I0
sg4
VSmith Ohio
p66
sg6
I179
sg7
I188
sa(dp67
g3
I0
sg4
VOhio State
p68
sg6
I185
sg7
I194
sa(dp69
g3
I0
sg4
VN. C.A.
p70
sg6
I275
sg7
I281
sa(dp71
g3
I0
sg4
VC.A. A.
p72
sg6
I278
sg7
I284
sa(dp73
g3
I0
sg4
VN. C.A.
p74
sg6
I290
sg7
I296
sa(dp75
g3
I0
sg4
VC.A. A.
p76
sg6
I293
sg7
I299
sa(dp77
g3
I0
sg4
VNike Adidas
p78
sg6
I685
sg7
I695
sa(dp79
g3
I0
sg4
VA. A.U.
p80
sg6
I1064
sg7
I1070
sa(dp81
g3
I0
sg4
VN. C.A.
p82
sg6
I1281
sg7
I1287
sa(dp83
g3
I0
sg4
VC.A. A.
p84
sg6
I1284
sg7
I1290
sa(dp85
g3
I0
sg4
VN. B.A.
p86
sg6
I1314
sg7
I1320
sa(dp87
g3
I0
sg4
VN. B.A.
p88
sg6
I1330
sg7
I1336
sasI3
(lp89
(dp90
g3
I0
sg4
VMary Sue Coleman
p91
sg6
I99
sg7
I114
sa(dp92
g3
I0
sg4
VAssociation of American
p93
sg6
I133
sg7
I155
sa(dp94
g3
I0
sg4
VGene Smith Ohio
p95
sg6
I174
sg7
I188
sa(dp96
g3
I0
sg4
VSmith Ohio State
p97
sg6
I179
sg7
I194
sa(dp98
g3
I0
sg4
VN. C.A. A.
p99
sg6
I275
sg7
I284
sa(dp100
g3
I0
sg4
VN. C.A. A.
p101
sg6
I290
sg7
I299
sa(dp102
g3
I0
sg4
VN. C.A. A.
p103
sg6
I1281
sg7
I1290
sasI4
(lp104
(dp105
g3
I0
sg4
VGene Smith Ohio State
p106
sg6
I174
sg7
I194
sasI5
(lp107
sI6
(lp108
s.