(dp0
I1
(lp1
(dp2
S'label'
p3
I0
sS'string'
p4
VARLINGTON
p5
sS'start_index'
p6
I0
sS'end_index'
p7
I8
sa(dp8
g3
I0
sg4
VVa.
p9
sg6
I10
sg7
I12
sa(dp10
g3
I0
sg4
VSaying
p11
sg6
I14
sg7
I19
sa(dp12
g3
I0
sg4
VObama
p13
sg6
I30
sg7
I34
sa(dp14
g3
I0
sg4
VEducation
p15
sg6
I125
sg7
I133
sa(dp16
g3
I0
sg4
VSecretary
p17
sg6
I135
sg7
I143
sa(dp18
g3
I0
sg4
VBetsy
p19
sg6
I145
sg7
I149
sa(dp20
g3
I0
sg4
VDeVos
p21
sg6
I151
sg7
I155
sa(dp22
g3
I0
sg4
VDeVos
p23
sg6
I302
sg7
I306
sa(dp24
g3
I0
sg4
VGeorge
p25
sg6
I708
sg7
I713
sa(dp26
g3
I0
sg4
VMason
p27
sg6
I715
sg7
I719
sa(dp28
g3
I0
sg4
VArlington
p29
sg6
I744
sg7
I752
sa(dp30
g3
I0
sg4
VVa.
p31
sg6
I754
sg7
I756
sa(dp32
g3
I0
sg4
VWashington
p33
sg6
I781
sg7
I790
sa(dp34
g3
I0
sg4
VLady
p35
sg6
I849
sg7
I852
sa(dp36
g3
I0
sg4
VJustice
p37
sg6
I854
sg7
I860
sa(dp38
g3
I0
sg4
VAdvocates
p39
sg6
I894
sg7
I902
sa(dp40
g3
I0
sg4
VArne
p41
sg6
I960
sg7
I963
sa(dp42
g3
I0
sg4
VDuncan
p43
sg6
I965
sg7
I970
sa(dp44
g3
I0
sg4
VObama
p45
sg6
I1019
sg7
I1023
sa(dp46
g3
I0
sg4
VDeVos
p47
sg6
I1049
sg7
I1053
sa(dp48
g3
I0
sg4
VFederalist
p49
sg6
I1103
sg7
I1112
sa(dp50
g3
I0
sg4
VSociety
p51
sg6
I1114
sg7
I1120
sa(dp52
g3
I0
sg4
VFrederick
p53
sg6
I1294
sg7
I1302
sa(dp54
g3
I0
sg4
VHess
p55
sg6
I1307
sg7
I1310
sa(dp56
g3
I0
sg4
VAmerican
p57
sg6
I1370
sg7
I1377
sa(dp58
g3
I0
sg4
VEnterprise
p59
sg6
I1379
sg7
I1388
sa(dp60
g3
I0
sg4
VDeVos
p61
sg6
I1495
sg7
I1499
sa(dp62
g3
I0
sg4
VBaylor
p63
sg6
I1759
sg7
I1764
sa(dp64
g3
I0
sg4
VKenneth
p65
sg6
I1847
sg7
I1853
sa(dp66
g3
I0
sg4
VStarr
p67
sg6
I1858
sg7
I1862
sa(dp68
g3
I0
sg4
VPresident
p69
sg6
I1913
sg7
I1921
sa(dp70
g3
I0
sg4
VBill
p71
sg6
I1923
sg7
I1926
sa(dp72
g3
I0
sg4
VClinton
p73
sg6
I1928
sg7
I1934
sa(dp74
g3
I0
sg4
VAssociation
p75
sg6
I2011
sg7
I2021
sa(dp76
g3
I0
sg4
VAmerican
p77
sg6
I2026
sg7
I2033
sa(dp78
g3
I0
sg4
VAdvocates
p79
sg6
I2139
sg7
I2147
sa(dp80
g3
I0
sg4
VDeVos
p81
sg6
I2333
sg7
I2337
sa(dp82
g3
I0
sg4
VDeVos
p83
sg6
I2550
sg7
I2554
sasI2
(lp84
(dp85
g3
I0
sg4
VARLINGTON Va.
p86
sg6
I0
sg7
I12
sa(dp87
g3
I0
sg4
VVa. Saying
p88
sg6
I10
sg7
I19
sa(dp89
g3
I0
sg4
VEducation Secretary
p90
sg6
I125
sg7
I143
sa(dp91
g3
I0
sg4
VSecretary Betsy
p92
sg6
I135
sg7
I149
sa(dp93
g3
I0
sg4
VBetsy DeVos
p94
sg6
I145
sg7
I155
sa(dp95
g3
I0
sg4
VGeorge Mason
p96
sg6
I708
sg7
I719
sa(dp97
g3
I0
sg4
VMason University
p98
sg6
I715
sg7
I730
sa(dp99
g3
I0
sg4
VArlington Va.
p100
sg6
I744
sg7
I756
sa(dp101
g3
I0
sg4
VLady Justice
p102
sg6
I849
sg7
I860
sa(dp103
g3
I0
sg4
VArne Duncan
p104
sg6
I960
sg7
I970
sa(dp105
g3
I0
sg4
VFederalist Society
p106
sg6
I1103
sg7
I1120
sa(dp107
g3
I0
sg4
VFrederick M.
p108
sg6
I1294
sg7
I1305
sa(dp109
g3
I0
sg4
VM. Hess
p110
sg6
I1304
sg7
I1310
sa(dp111
g3
I0
sg4
VAmerican Enterprise
p112
sg6
I1370
sg7
I1388
sa(dp113
g3
I0
sg4
VEnterprise Institute
p114
sg6
I1379
sg7
I1398
sa(dp115
g3
I1
sg4
VBaylor University
p116
sg6
I1759
sg7
I1775
sa(dp117
g3
I0
sg4
VKenneth W.
p118
sg6
I1847
sg7
I1856
sa(dp119
g3
I0
sg4
VW. Starr
p120
sg6
I1855
sg7
I1862
sa(dp121
g3
I0
sg4
VPresident Bill
p122
sg6
I1913
sg7
I1926
sa(dp123
g3
I0
sg4
VBill Clinton
p124
sg6
I1923
sg7
I1934
sasI3
(lp125
(dp126
g3
I0
sg4
VARLINGTON Va. Saying
p127
sg6
I0
sg7
I19
sa(dp128
g3
I0
sg4
VEducation Secretary Betsy
p129
sg6
I125
sg7
I149
sa(dp130
g3
I0
sg4
VSecretary Betsy DeVos
p131
sg6
I135
sg7
I155
sa(dp132
g3
I1
sg4
VGeorge Mason University
p133
sg6
I708
sg7
I730
sa(dp134
g3
I0
sg4
VFrederick M. Hess
p135
sg6
I1294
sg7
I1310
sa(dp136
g3
I1
sg4
VAmerican Enterprise Institute
p137
sg6
I1370
sg7
I1398
sa(dp138
g3
I0
sg4
VKenneth W. Starr
p139
sg6
I1847
sg7
I1862
sa(dp140
g3
I0
sg4
VPresident Bill Clinton
p141
sg6
I1913
sg7
I1934
sa(dp142
g3
I0
sg4
VAssociation of American
p143
sg6
I2011
sg7
I2033
sasI4
(lp144
(dp145
g3
I0
sg4
VEducation Secretary Betsy DeVos
p146
sg6
I125
sg7
I155
sasI5
(lp147
sI6
(lp148
s.