(dp0
I1
(lp1
(dp2
S'label'
p3
I1
sS'string'
p4
VNCAA
p5
sS'start_index'
p6
I23
sS'end_index'
p7
I26
sa(dp8
g3
I0
sg4
VB.A.
p9
sg6
I246
sg7
I249
sa(dp10
g3
I0
sg4
VEmmert
p11
sg6
I274
sg7
I279
sa(dp12
g3
I0
sg4
VB.A.
p13
sg6
I401
sg7
I404
sa(dp14
g3
I0
sg4
VCommissioner
p15
sg6
I406
sg7
I417
sa(dp16
g3
I0
sg4
VAdam
p17
sg6
I419
sg7
I422
sa(dp18
g3
I0
sg4
VSilver
p19
sg6
I424
sg7
I429
sa(dp20
g3
I0
sg4
VCommission
p21
sg6
I524
sg7
I533
sa(dp22
g3
I0
sg4
VB.A.
p23
sg6
I596
sg7
I599
sa(dp24
g3
I0
sg4
VEmmert
p25
sg6
I675
sg7
I680
sa(dp26
g3
I0
sg4
VB.A.
p27
sg6
I737
sg7
I740
sa(dp28
g3
I0
sg4
VDavid
p29
sg6
I748
sg7
I752
sa(dp30
g3
I0
sg4
VRobinson
p31
sg6
I754
sg7
I761
sa(dp32
g3
I0
sg4
VGrant
p33
sg6
I767
sg7
I771
sa(dp34
g3
I0
sg4
VHill
p35
sg6
I773
sg7
I776
sa(dp36
g3
I0
sg4
VB.A.
p37
sg6
I876
sg7
I879
sa(dp38
g3
I0
sg4
VRev.
p39
sg6
I1151
sg7
I1154
sa(dp40
g3
I0
sg4
VJohn
p41
sg6
I1156
sg7
I1159
sa(dp42
g3
I0
sg4
VJenkins
p43
sg6
I1164
sg7
I1170
sa(dp44
g3
I0
sg4
VNotre
p45
sg6
I1189
sg7
I1193
sa(dp46
g3
I0
sg4
VDame
p47
sg6
I1195
sg7
I1198
sasI2
(lp48
(dp49
g3
I0
sg4
VN. B.A.
p50
sg6
I243
sg7
I249
sa(dp51
g3
I0
sg4
VN. B.A.
p52
sg6
I398
sg7
I404
sa(dp53
g3
I0
sg4
VB.A. Commissioner
p54
sg6
I401
sg7
I417
sa(dp55
g3
I0
sg4
VCommissioner Adam
p56
sg6
I406
sg7
I422
sa(dp57
g3
I0
sg4
VAdam Silver
p58
sg6
I419
sg7
I429
sa(dp59
g3
I0
sg4
VN. B.A.
p60
sg6
I593
sg7
I599
sa(dp61
g3
I0
sg4
VN. B.A.
p62
sg6
I734
sg7
I740
sa(dp63
g3
I0
sg4
VDavid Robinson
p64
sg6
I748
sg7
I761
sa(dp65
g3
I0
sg4
VGrant Hill
p66
sg6
I767
sg7
I776
sa(dp67
g3
I0
sg4
VN. B.A.
p68
sg6
I873
sg7
I879
sa(dp69
g3
I0
sg4
VJohn I.
p70
sg6
I1156
sg7
I1162
sa(dp71
g3
I0
sg4
VI. Jenkins
p72
sg6
I1161
sg7
I1170
sa(dp73
g3
I1
sg4
VNotre Dame
p74
sg6
I1189
sg7
I1198
sasI3
(lp75
(dp76
g3
I0
sg4
VN. B.A. Commissioner
p77
sg6
I398
sg7
I417
sa(dp78
g3
I0
sg4
VB.A. Commissioner Adam
p79
sg6
I401
sg7
I422
sa(dp80
g3
I0
sg4
VCommissioner Adam Silver
p81
sg6
I406
sg7
I429
sa(dp82
g3
I0
sg4
VRobinson and Grant
p83
sg6
I754
sg7
I771
sa(dp84
g3
I0
sg4
VJohn I. Jenkins
p85
sg6
I1156
sg7
I1170
sasI4
(lp86
(dp87
g3
I0
sg4
VN. B.A. Commissioner Adam
p88
sg6
I398
sg7
I422
sa(dp89
g3
I0
sg4
VB.A. Commissioner Adam Silver
p90
sg6
I401
sg7
I429
sa(dp91
g3
I0
sg4
VDavid Robinson and Grant
p92
sg6
I748
sg7
I771
sa(dp93
g3
I0
sg4
VRobinson and Grant Hill
p94
sg6
I754
sg7
I776
sasI5
(lp95
(dp96
g3
I0
sg4
VN. B.A. Commissioner Adam Silver
p97
sg6
I398
sg7
I429
sa(dp98
g3
I0
sg4
VDavid Robinson and Grant Hill
p99
sg6
I748
sg7
I776
sasI6
(lp100
s.