(dp0
I1
(lp1
(dp2
S'label'
p3
I0
sS'string'
p4
VFordham
p5
sS'start_index'
p6
I46
sS'end_index'
p7
I52
sa(dp8
g3
I0
sg4
VManhattan
p9
sg6
I65
sg7
I73
sa(dp10
g3
I0
sg4
VLong
p11
sg6
I83
sg7
I86
sa(dp12
g3
I0
sg4
VIsland
p13
sg6
I88
sg7
I93
sa(dp14
g3
I0
sg4
VManhattan
p15
sg6
I203
sg7
I211
sa(dp16
g3
I0
sg4
VHofstra
p17
sg6
I259
sg7
I265
sa(dp18
g3
I0
sg4
VLong
p19
sg6
I281
sg7
I284
sa(dp20
g3
I0
sg4
VIsland
p21
sg6
I286
sg7
I291
sa(dp22
g3
I0
sg4
VOct.
p23
sg6
I296
sg7
I299
sa(dp24
g3
I0
sg4
VEmanuel
p25
sg6
I329
sg7
I335
sa(dp26
g3
I0
sg4
VDelacruz
p27
sg6
I337
sg7
I344
sa(dp28
g3
I0
sg4
VAmericans
p29
sg6
I463
sg7
I471
sa(dp30
g3
I0
sg4
VDisabilities
p31
sg6
I478
sg7
I489
sa(dp32
g3
I0
sg4
VAct.
p33
sg6
I491
sg7
I494
sa(dp34
g3
I0
sg4
VDelacruz
p35
sg6
I1206
sg7
I1213
sasI2
(lp36
(dp37
g3
I1
sg4
VFordham University
p38
sg6
I46
sg7
I63
sa(dp39
g3
I0
sg4
VUniversity Manhattan
p40
sg6
I54
sg7
I73
sa(dp41
g3
I1
sg4
VManhattan College
p42
sg6
I65
sg7
I81
sa(dp43
g3
I0
sg4
VCollege Long
p44
sg6
I75
sg7
I86
sa(dp45
g3
I0
sg4
VLong Island
p46
sg6
I83
sg7
I93
sa(dp47
g3
I0
sg4
VIsland University
p48
sg6
I88
sg7
I104
sa(dp49
g3
I1
sg4
VHofstra University
p50
sg6
I259
sg7
I276
sa(dp51
g3
I0
sg4
VLong Island
p52
sg6
I281
sg7
I291
sa(dp53
g3
I0
sg4
VEmanuel Delacruz
p54
sg6
I329
sg7
I344
sa(dp55
g3
I0
sg4
VDisabilities Act.
p56
sg6
I478
sg7
I494
sasI3
(lp57
(dp58
g3
I0
sg4
VFordham University Manhattan
p59
sg6
I46
sg7
I73
sa(dp60
g3
I0
sg4
VManhattan College Long
p61
sg6
I65
sg7
I86
sa(dp62
g3
I0
sg4
VCollege Long Island
p63
sg6
I75
sg7
I93
sa(dp64
g3
I1
sg4
VLong Island University
p65
sg6
I83
sg7
I104
sasI4
(lp66
(dp67
g3
I0
sg4
VManhattan College Long Island
p68
sg6
I65
sg7
I93
sasI5
(lp69
sI6
(lp70
s.