(dp0
I1
(lp1
(dp2
S'label'
p3
I0
sS'string'
p4
VArlene
p5
sS'start_index'
p6
I252
sS'end_index'
p7
I257
sa(dp8
g3
I0
sg4
VKanter
p9
sg6
I259
sg7
I264
sa(dp10
g3
I0
sg4
VDisability
p11
sg6
I282
sg7
I291
sa(dp12
g3
I0
sg4
VLaw
p13
sg6
I293
sg7
I295
sa(dp14
g3
I0
sg4
VPolicy
p15
sg6
I301
sg7
I306
sa(dp16
g3
I0
sg4
VProgram
p17
sg6
I308
sg7
I314
sa(dp18
g3
I0
sg4
VSyracuse
p19
sg6
I319
sg7
I326
sa(dp20
g3
I0
sg4
VAmericans
p21
sg6
I405
sg7
I413
sa(dp22
g3
I0
sg4
VDisabilities
p23
sg6
I420
sg7
I431
sa(dp24
g3
I0
sg4
VAct
p25
sg6
I433
sg7
I435
sa(dp26
g3
I0
sg4
VDepartment
p27
sg6
I491
sg7
I500
sa(dp28
g3
I0
sg4
VJustice
p29
sg6
I505
sg7
I511
sa(dp30
g3
I0
sg4
VCalifornia
p31
sg6
I895
sg7
I904
sa(dp32
g3
I0
sg4
VDomino
p33
sg6
I949
sg7
I954
sa(dp34
g3
I0
sg4
VPizza
p35
sg6
I958
sg7
I962
sa(dp36
g3
I0
sg4
VFlorida
p37
sg6
I1037
sg7
I1043
sa(dp38
g3
I0
sg4
VWinn
p39
sg6
I1080
sg7
I1083
sa(dp40
g3
I0
sg4
VDixie
p41
sg6
I1085
sg7
I1089
sa(dp42
g3
I0
sg4
VBrooklyn
p43
sg6
I1186
sg7
I1193
sa(dp44
g3
I0
sg4
VBlick
p45
sg6
I1222
sg7
I1226
sa(dp46
g3
I0
sg4
VArt
p47
sg6
I1228
sg7
I1230
sa(dp48
g3
I0
sg4
VMaterials
p49
sg6
I1232
sg7
I1240
sa(dp50
g3
I0
sg4
VTom
p51
sg6
I1507
sg7
I1509
sa(dp52
g3
I0
sg4
VStebbins
p53
sg6
I1511
sg7
I1518
sa(dp54
g3
I0
sg4
VLawsuit
p55
sg6
I1546
sg7
I1552
sa(dp56
g3
I0
sg4
VReform
p57
sg6
I1554
sg7
I1559
sa(dp58
g3
I0
sg4
VAlliance
p59
sg6
I1561
sg7
I1568
sa(dp60
g3
I0
sg4
VNew
p61
sg6
I1573
sg7
I1575
sa(dp62
g3
I0
sg4
VYork.
p63
sg6
I1577
sg7
I1581
sa(dp64
g3
I0
sg4
VAbsent
p65
sg6
I1583
sg7
I1588
sa(dp66
g3
I0
sg4
VStebbins
p67
sg6
I1630
sg7
I1637
sa(dp68
g3
I0
sg4
VNew
p69
sg6
I1945
sg7
I1947
sa(dp70
g3
I0
sg4
VYork
p71
sg6
I1949
sg7
I1952
sa(dp72
g3
I0
sg4
VDelacruz
p73
sg6
I1971
sg7
I1978
sa(dp74
g3
I0
sg4
VDana
p75
sg6
I2007
sg7
I2010
sa(dp76
g3
I0
sg4
VGottlieb
p77
sg6
I2012
sg7
I2019
sa(dp78
g3
I0
sg4
VDelacruz
p79
sg6
I2060
sg7
I2067
sasI2
(lp80
(dp81
g3
I0
sg4
VArlene Kanter
p82
sg6
I252
sg7
I264
sa(dp83
g3
I0
sg4
VDisability Law
p84
sg6
I282
sg7
I295
sa(dp85
g3
I0
sg4
VPolicy Program
p86
sg6
I301
sg7
I314
sa(dp87
g3
I1
sg4
VSyracuse University
p88
sg6
I319
sg7
I337
sa(dp89
g3
I0
sg4
VDisabilities Act
p90
sg6
I420
sg7
I435
sa(dp91
g3
I0
sg4
VWinn Dixie
p92
sg6
I1080
sg7
I1089
sa(dp93
g3
I0
sg4
VBlick Art
p94
sg6
I1222
sg7
I1230
sa(dp95
g3
I0
sg4
VArt Materials
p96
sg6
I1228
sg7
I1240
sa(dp97
g3
I0
sg4
VTom Stebbins
p98
sg6
I1507
sg7
I1518
sa(dp99
g3
I0
sg4
VLawsuit Reform
p100
sg6
I1546
sg7
I1559
sa(dp101
g3
I0
sg4
VReform Alliance
p102
sg6
I1554
sg7
I1568
sa(dp103
g3
I0
sg4
VNew York.
p104
sg6
I1573
sg7
I1581
sa(dp105
g3
I0
sg4
VNew York
p106
sg6
I1945
sg7
I1952
sa(dp107
g3
I0
sg4
VDana Gottlieb
p108
sg6
I2007
sg7
I2019
sasI3
(lp109
(dp110
g3
I0
sg4
VLaw and Policy
p111
sg6
I293
sg7
I306
sa(dp112
g3
I0
sg4
VDepartment of Justice
p113
sg6
I491
sg7
I511
sa(dp114
g3
I0
sg4
VBlick Art Materials
p115
sg6
I1222
sg7
I1240
sa(dp116
g3
I0
sg4
VLawsuit Reform Alliance
p117
sg6
I1546
sg7
I1568
sa(dp118
g3
I0
sg4
VAlliance of New
p119
sg6
I1561
sg7
I1575
sasI4
(lp120
(dp121
g3
I0
sg4
VDisability Law and Policy
p122
sg6
I282
sg7
I306
sa(dp123
g3
I0
sg4
VLaw and Policy Program
p124
sg6
I293
sg7
I314
sa(dp125
g3
I0
sg4
VReform Alliance of New
p126
sg6
I1554
sg7
I1575
sa(dp127
g3
I0
sg4
VAlliance of New York.
p128
sg6
I1561
sg7
I1581
sasI5
(lp129
(dp130
g3
I0
sg4
VDisability Law and Policy Program
p131
sg6
I282
sg7
I314
sa(dp132
g3
I0
sg4
VLawsuit Reform Alliance of New
p133
sg6
I1546
sg7
I1575
sa(dp134
g3
I0
sg4
VReform Alliance of New York.
p135
sg6
I1554
sg7
I1581
sasI6
(lp136
(dp137
g3
I0
sg4
VLawsuit Reform Alliance of New York.
p138
sg6
I1546
sg7
I1581
sas.