(dp0
I1
(lp1
(dp2
S'label'
p3
I0
sS'string'
p4
VHofstra
p5
sS'start_index'
p6
I37
sS'end_index'
p7
I43
sa(dp8
g3
I0
sg4
VNew
p9
sg6
I81
sg7
I83
sa(dp10
g3
I0
sg4
VRochelle.
p11
sg6
I85
sg7
I93
sa(dp12
g3
I0
sg4
VAccording
p13
sg6
I95
sg7
I103
sa(dp14
g3
I0
sg4
VGottlieb
p15
sg6
I126
sg7
I133
sasI2
(lp16
(dp17
g3
I0
sg4
VNew Rochelle.
p18
sg6
I81
sg7
I93
sasI3
(lp19
(dp20
g3
I0
sg4
VCollege of New
p21
sg6
I70
sg7
I83
sasI4
(lp22
(dp23
g3
I1
sg4
VCollege of New Rochelle.
p24
sg6
I70
sg7
I93
sasI5
(lp25
sI6
(lp26
s.