(dp0
I1
(lp1
(dp2
S'label'
p3
I0
sS'string'
p4
VGottlieb
p5
sS'start_index'
p6
I4
sS'end_index'
p7
I11
sa(dp8
g3
I0
sg4
VGottlieb
p9
sg6
I20
sg7
I27
sa(dp10
g3
I0
sg4
V&amp
p11
sg6
I29
sg7
I32
sa(dp12
g3
I0
sg4
VAssociates
p13
sg6
I34
sg7
I43
sa(dp14
g3
I0
sg4
VJeffrey
p15
sg6
I173
sg7
I179
sa(dp16
g3
I0
sg4
VGottlieb
p17
sg6
I184
sg7
I191
sa(dp18
g3
I0
sg4
VIona
p19
sg6
I731
sg7
I734
sa(dp20
g3
I0
sg4
VChris
p21
sg6
I1259
sg7
I1263
sa(dp22
g3
I0
sg4
VDanielson
p23
sg6
I1265
sg7
I1273
sa(dp24
g3
I0
sg4
VNational
p25
sg6
I1309
sg7
I1316
sa(dp26
g3
I0
sg4
VFederation
p27
sg6
I1318
sg7
I1327
sa(dp28
g3
I0
sg4
VBlind.
p29
sg6
I1336
sg7
I1341
sa(dp30
g3
I0
sg4
VCritics
p31
sg6
I1432
sg7
I1438
sa(dp32
g3
I0
sg4
VBerkeley
p33
sg6
I1465
sg7
I1472
sa(dp34
g3
I0
sg4
VDepartment
p35
sg6
I1532
sg7
I1541
sa(dp36
g3
I0
sg4
VJustice
p37
sg6
I1546
sg7
I1552
sa(dp38
g3
I0
sg4
VBerkeley
p39
sg6
I1618
sg7
I1625
sa(dp40
g3
I0
sg4
VKanter
p41
sg6
I1964
sg7
I1969
sa(dp42
g3
I1
sg4
VSyracuse
p43
sg6
I1975
sg7
I1982
sasI2
(lp44
(dp45
g3
I0
sg4
VGottlieb &amp
p46
sg6
I20
sg7
I32
sa(dp47
g3
I0
sg4
V&amp Associates
p48
sg6
I29
sg7
I43
sa(dp49
g3
I0
sg4
VJeffrey M.
p50
sg6
I173
sg7
I182
sa(dp51
g3
I0
sg4
VM. Gottlieb
p52
sg6
I181
sg7
I191
sa(dp53
g3
I1
sg4
VIona College
p54
sg6
I731
sg7
I742
sa(dp55
g3
I0
sg4
VChris Danielson
p56
sg6
I1259
sg7
I1273
sa(dp57
g3
I0
sg4
VNational Federation
p58
sg6
I1309
sg7
I1327
sasI3
(lp59
(dp60
g3
I0
sg4
VGottlieb &amp Associates
p61
sg6
I20
sg7
I43
sa(dp62
g3
I0
sg4
VJeffrey M. Gottlieb
p63
sg6
I173
sg7
I191
sa(dp64
g3
I0
sg4
VDepartment of Justice
p65
sg6
I1532
sg7
I1552
sasI4
(lp66
sI5
(lp67
sI6
(lp68
s.