(dp0
I1
(lp1
(dp2
S'label'
p3
I0
sS'string'
p4
VYale
p5
sS'start_index'
p6
I0
sS'end_index'
p7
I3
sa(dp8
g3
I0
sg4
VDavid
p9
sg6
I224
sg7
I228
sa(dp10
g3
I0
sg4
VSwensen.
p11
sg6
I233
sg7
I240
sa(dp12
g3
I1
sg4
VYale
p13
sg6
I385
sg7
I388
sa(dp14
g3
I0
sg4
VMassachusetts
p15
sg6
I539
sg7
I551
sa(dp16
g3
I0
sg4
VTechnology
p17
sg6
I566
sg7
I575
sa(dp18
g3
I0
sg4
VStanford
p19
sg6
I619
sg7
I626
sa(dp20
g3
I1
sg4
VPrinceton
p21
sg6
I671
sg7
I679
sa(dp22
g3
I1
sg4
VDartmouth
p23
sg6
I708
sg7
I716
sasI2
(lp24
(dp25
g3
I1
sg4
VYale University
p26
sg6
I0
sg7
I14
sa(dp27
g3
I0
sg4
VDavid F.
p28
sg6
I224
sg7
I231
sa(dp29
g3
I0
sg4
VF. Swensen.
p30
sg6
I230
sg7
I240
sa(dp31
g3
I0
sg4
VMassachusetts Institute
p32
sg6
I539
sg7
I561
sa(dp33
g3
I1
sg4
VStanford University
p34
sg6
I619
sg7
I637
sasI3
(lp35
(dp36
g3
I0
sg4
VDavid F. Swensen.
p37
sg6
I224
sg7
I240
sa(dp38
g3
I0
sg4
VInstitute of Technology
p39
sg6
I553
sg7
I575
sasI4
(lp40
(dp41
g3
I1
sg4
VMassachusetts Institute of Technology
p42
sg6
I539
sg7
I575
sasI5
(lp43
sI6
(lp44
s.