(dp0
I1
(lp1
(dp2
S'label'
p3
I0
sS'string'
p4
VDavid
p5
sS'start_index'
p6
I0
sS'end_index'
p7
I4
sa(dp8
g3
I0
sg4
VSwensen
p9
sg6
I9
sg7
I15
sa(dp10
g3
I1
sg4
VYale.
p11
sg6
I49
sg7
I53
sasI2
(lp12
(dp13
g3
I0
sg4
VDavid F.
p14
sg6
I0
sg7
I7
sa(dp15
g3
I0
sg4
VF. Swensen
p16
sg6
I6
sg7
I15
sasI3
(lp17
(dp18
g3
I0
sg4
VDavid F. Swensen
p19
sg6
I0
sg7
I15
sasI4
(lp20
sI5
(lp21
sI6
(lp22
s.