(dp0
I1
(lp1
(dp2
S'label'
p3
I1
sS'string'
p4
VYale
p5
sS'start_index'
p6
I4
sS'end_index'
p7
I7
sa(dp8
g3
I0
sg4
VCambridge
p9
sg6
I102
sg7
I110
sa(dp10
g3
I0
sg4
VAssociates
p11
sg6
I112
sg7
I121
sasI2
(lp12
(dp13
g3
I0
sg4
VCambridge Associates
p14
sg6
I102
sg7
I121
sasI3
(lp15
sI4
(lp16
sI5
(lp17
sI6
(lp18
s.