(dp0
I1
(lp1
(dp2
S'label'
p3
I0
sS'string'
p4
VSwensen
p5
sS'start_index'
p6
I29
sS'end_index'
p7
I35
sa(dp8
g3
I1
sg4
VYale
p9
sg6
I43
sg7
I46
sa(dp10
g3
I0
sg4
VLast
p11
sg6
I161
sg7
I164
sa(dp12
g3
I1
sg4
VYale
p13
sg6
I331
sg7
I334
sa(dp14
g3
I1
sg4
VYale
p15
sg6
I373
sg7
I376
sa(dp16
g3
I0
sg4
VSwensen
p17
sg6
I649
sg7
I655
sasI2
(lp18
sI3
(lp19
sI4
(lp20
sI5
(lp21
sI6
(lp22
s.