(dp0
I1
(lp1
(dp2
S'label'
p3
I0
sS'string'
p4
VIndeed
p5
sS'start_index'
p6
I0
sS'end_index'
p7
I5
sa(dp8
g3
I1
sg4
VMIT
p9
sg6
I26
sg7
I28
sa(dp10
g3
I1
sg4
VStanford
p11
sg6
I30
sg7
I37
sa(dp12
g3
I1
sg4
VPrinceton
p13
sg6
I43
sg7
I51
sa(dp14
g3
I0
sg4
VSeth
p15
sg6
I64
sg7
I67
sa(dp16
g3
I0
sg4
VAlexander
p17
sg6
I69
sg7
I77
sa(dp18
g3
I0
sg4
VRobert
p19
sg6
I79
sg7
I84
sa(dp20
g3
I0
sg4
VWallace
p21
sg6
I89
sg7
I95
sa(dp22
g3
I0
sg4
VAndrew
p23
sg6
I101
sg7
I106
sa(dp24
g3
I0
sg4
VGolden
p25
sg6
I108
sg7
I113
sa(dp26
g3
I1
sg4
VYale.
p27
sg6
I130
sg7
I134
sa(dp28
g3
I1
sg4
VHarvard
p29
sg6
I264
sg7
I270
sa(dp30
g3
I0
sg4
VNarvekar
p31
sg6
I363
sg7
I370
sa(dp32
g3
I1
sg4
VHarvard
p33
sg6
I427
sg7
I433
sa(dp34
g3
I1
sg4
VYale
p35
sg6
I637
sg7
I640
sa(dp36
g3
I0
sg4
VEndowments
p37
sg6
I848
sg7
I857
sa(dp38
g3
I0
sg4
VDistributions
p39
sg6
I1030
sg7
I1042
sa(dp40
g3
I1
sg4
VYale
p41
sg6
I1053
sg7
I1056
sasI2
(lp42
(dp43
g3
I0
sg4
VMIT Stanford
p44
sg6
I26
sg7
I37
sa(dp45
g3
I0
sg4
VSeth Alexander
p46
sg6
I64
sg7
I77
sa(dp47
g3
I0
sg4
VAlexander Robert
p48
sg6
I69
sg7
I84
sa(dp49
g3
I0
sg4
VRobert F.
p50
sg6
I79
sg7
I87
sa(dp51
g3
I0
sg4
VF. Wallace
p52
sg6
I86
sg7
I95
sa(dp53
g3
I0
sg4
VAndrew Golden
p54
sg6
I101
sg7
I113
sa(dp55
g3
I0
sg4
VN. P.
p56
sg6
I357
sg7
I361
sa(dp57
g3
I0
sg4
VP. Narvekar
p58
sg6
I360
sg7
I370
sasI3
(lp59
(dp60
g3
I0
sg4
VStanford and Princeton
p61
sg6
I30
sg7
I51
sa(dp62
g3
I0
sg4
VSeth Alexander Robert
p63
sg6
I64
sg7
I84
sa(dp64
g3
I0
sg4
VAlexander Robert F.
p65
sg6
I69
sg7
I87
sa(dp66
g3
I0
sg4
VRobert F. Wallace
p67
sg6
I79
sg7
I95
sa(dp68
g3
I0
sg4
VWallace and Andrew
p69
sg6
I89
sg7
I106
sa(dp70
g3
I0
sg4
VN. P. Narvekar
p71
sg6
I357
sg7
I370
sasI4
(lp72
(dp73
g3
I0
sg4
VMIT Stanford and Princeton
p74
sg6
I26
sg7
I51
sa(dp75
g3
I0
sg4
VSeth Alexander Robert F.
p76
sg6
I64
sg7
I87
sa(dp77
g3
I0
sg4
VAlexander Robert F. Wallace
p78
sg6
I69
sg7
I95
sa(dp79
g3
I0
sg4
VF. Wallace and Andrew
p80
sg6
I86
sg7
I106
sa(dp81
g3
I0
sg4
VWallace and Andrew Golden
p82
sg6
I89
sg7
I113
sasI5
(lp83
(dp84
g3
I0
sg4
VSeth Alexander Robert F. Wallace
p85
sg6
I64
sg7
I95
sa(dp86
g3
I0
sg4
VRobert F. Wallace and Andrew
p87
sg6
I79
sg7
I106
sa(dp88
g3
I0
sg4
VF. Wallace and Andrew Golden
p89
sg6
I86
sg7
I113
sasI6
(lp90
(dp91
g3
I0
sg4
VAlexander Robert F. Wallace and Andrew
p92
sg6
I69
sg7
I106
sa(dp93
g3
I0
sg4
VRobert F. Wallace and Andrew Golden
p94
sg6
I79
sg7
I113
sas.