(dp0
I1
(lp1
(dp2
S'label'
p3
I0
sS'string'
p4
VReferring
p5
sS'start_index'
p6
I379
sS'end_index'
p7
I387
sa(dp8
g3
I0
sg4
VSurvivors
p9
sg6
I447
sg7
I455
sa(dp10
g3
I0
sg4
VDeVos
p11
sg6
I733
sg7
I737
sa(dp12
g3
I0
sg4
VSouthern
p13
sg6
I779
sg7
I786
sa(dp14
g3
I0
sg4
VCalifornia
p15
sg6
I788
sg7
I797
sa(dp16
g3
I0
sg4
VMatt
p17
sg6
I835
sg7
I838
sa(dp18
g3
I0
sg4
VBoermeester
p19
sg6
I840
sg7
I850
sa(dp20
g3
I0
sg4
VBoermeester
p21
sg6
I1019
sg7
I1029
sa(dp22
g3
I0
sg4
VTitle
p23
sg6
I1269
sg7
I1273
sa(dp24
g3
I0
sg4
VPreviously
p25
sg6
I1575
sg7
I1584
sa(dp26
g3
I0
sg4
VCritics
p27
sg6
I1952
sg7
I1958
sa(dp28
g3
I0
sg4
VObama
p29
sg6
I1967
sg7
I1971
sa(dp30
g3
I0
sg4
VDeVos
p31
sg6
I2406
sg7
I2410
sa(dp32
g3
I0
sg4
VWashington
p33
sg6
I2474
sg7
I2483
sa(dp34
g3
I0
sg4
VObama
p35
sg6
I2746
sg7
I2750
sa(dp36
g3
I0
sg4
VNational
p37
sg6
I2905
sg7
I2912
sa(dp38
g3
I0
sg4
VWomen
p39
sg6
I2914
sg7
I2918
sa(dp40
g3
I0
sg4
VLaw
p41
sg6
I2922
sg7
I2924
sa(dp42
g3
I0
sg4
VCenter
p43
sg6
I2926
sg7
I2931
sa(dp44
g3
I0
sg4
VDeVos
p45
sg6
I2942
sg7
I2946
sa(dp46
g3
I0
sg4
VDeVos
p47
sg6
I3406
sg7
I3410
sa(dp48
g3
I0
sg4
VAmerican
p49
sg6
I3440
sg7
I3447
sa(dp50
g3
I0
sg4
VBar
p51
sg6
I3449
sg7
I3451
sa(dp52
g3
I0
sg4
VAssociation
p53
sg6
I3453
sg7
I3463
sa(dp54
g3
I0
sg4
VAmerican
p55
sg6
I3626
sg7
I3633
sa(dp56
g3
I0
sg4
VTrial
p57
sg6
I3646
sg7
I3650
sa(dp58
g3
I0
sg4
VLawyers
p59
sg6
I3652
sg7
I3658
sasI2
(lp60
(dp61
g3
I0
sg4
VSouthern California
p62
sg6
I779
sg7
I797
sa(dp63
g3
I0
sg4
VMatt Boermeester
p64
sg6
I835
sg7
I850
sa(dp65
g3
I0
sg4
VTitle IX
p66
sg6
I1269
sg7
I1276
sa(dp67
g3
I0
sg4
VNational Women
p68
sg6
I2905
sg7
I2918
sa(dp69
g3
I0
sg4
VLaw Center
p70
sg6
I2922
sg7
I2931
sa(dp71
g3
I0
sg4
VAmerican Bar
p72
sg6
I3440
sg7
I3451
sa(dp73
g3
I0
sg4
VBar Association
p74
sg6
I3449
sg7
I3463
sa(dp75
g3
I0
sg4
VAmerican College
p76
sg6
I3626
sg7
I3641
sa(dp77
g3
I0
sg4
VTrial Lawyers
p78
sg6
I3646
sg7
I3658
sasI3
(lp79
(dp80
g3
I0
sg4
VUniversity of Southern
p81
sg6
I765
sg7
I786
sa(dp82
g3
I0
sg4
VAmerican Bar Association
p83
sg6
I3440
sg7
I3463
sa(dp84
g3
I0
sg4
VCollege of Trial
p85
sg6
I3635
sg7
I3650
sasI4
(lp86
(dp87
g3
I1
sg4
VUniversity of Southern California
p88
sg6
I765
sg7
I797
sa(dp89
g3
I0
sg4
VAmerican College of Trial
p90
sg6
I3626
sg7
I3650
sa(dp91
g3
I0
sg4
VCollege of Trial Lawyers
p92
sg6
I3635
sg7
I3658
sasI5
(lp93
(dp94
g3
I1
sg4
VAmerican College of Trial Lawyers
p95
sg6
I3626
sg7
I3658
sasI6
(lp96
s.