(dp0
I1
(lp1
(dp2
S'label'
p3
I0
sS'string'
p4
VYale
p5
sS'start_index'
p6
I52
sS'end_index'
p7
I55
sa(dp8
g3
I1
sg4
VCambridge
p9
sg6
I188
sg7
I196
sa(dp10
g3
I0
sg4
VAssociates
p11
sg6
I198
sg7
I207
sa(dp12
g3
I1
sg4
VCambridge
p13
sg6
I213
sg7
I221
sa(dp14
g3
I0
sg4
VAssociations.
p15
sg6
I223
sg7
I235
sasI2
(lp16
(dp17
g3
I1
sg4
VYale University
p18
sg6
I52
sg7
I66
sa(dp19
g3
I0
sg4
VCambridge Associates
p20
sg6
I188
sg7
I207
sa(dp21
g3
I0
sg4
VCambridge Associations.
p22
sg6
I213
sg7
I235
sasI3
(lp23
sI4
(lp24
sI5
(lp25
sI6
(lp26
s.