(dp0
I1
(lp1
(dp2
S'label'
p3
I0
sS'string'
p4
VPennsylvania
p5
sS'start_index'
p6
I1026
sS'end_index'
p7
I1037
sa(dp8
g3
I0
sg4
VGroupMe.
p9
sg6
I1099
sg7
I1106
sasI2
(lp10
sI3
(lp11
(dp12
g3
I1
sg4
VUniversity of Pennsylvania
p13
sg6
I1012
sg7
I1037
sasI4
(lp14
sI5
(lp15
sI6
(lp16
s.