(dp0
I1
(lp1
(dp2
S'label'
p3
I0
sS'string'
p4
VGroupMe
p5
sS'start_index'
p6
I0
sS'end_index'
p7
I6
sa(dp8
g3
I0
sg4
VWhatsApp
p9
sg6
I48
sg7
I55
sa(dp10
g3
I0
sg4
VGroupMe
p11
sg6
I241
sg7
I247
sa(dp12
g3
I0
sg4
VFacebook
p13
sg6
I323
sg7
I330
sa(dp14
g3
I0
sg4
VGoogle
p15
sg6
I335
sg7
I340
sa(dp16
g3
I0
sg4
VFacebook
p17
sg6
I442
sg7
I449
sa(dp18
g3
I0
sg4
VGroupMe
p19
sg6
I468
sg7
I474
sa(dp20
g3
I0
sg4
VLast
p21
sg6
I503
sg7
I506
sa(dp22
g3
I0
sg4
VMud
p23
sg6
I529
sg7
I531
sa(dp24
g3
I0
sg4
VMen
p25
sg6
I533
sg7
I535
sa(dp26
g3
I0
sg4
VNov.
p27
sg6
I624
sg7
I627
sa(dp28
g3
I0
sg4
VTwitter
p29
sg6
I701
sg7
I707
sa(dp30
g3
I0
sg4
VFacebook
p31
sg6
I709
sg7
I716
sa(dp32
g3
I0
sg4
VSnapchat
p33
sg6
I722
sg7
I729
sa(dp34
g3
I1
sg4
VPenn
p35
sg6
I759
sg7
I762
sa(dp36
g3
I0
sg4
VBlack
p37
sg6
I814
sg7
I818
sa(dp38
g3
I0
sg4
VShaun
p39
sg6
I1049
sg7
I1053
sa(dp40
g3
I0
sg4
VKing
p41
sg6
I1055
sg7
I1058
sa(dp42
g3
I0
sg4
VDeRay
p43
sg6
I1064
sg7
I1068
sa(dp44
g3
I0
sg4
VMckesson.
p45
sg6
I1070
sg7
I1078
sa(dp46
g3
I0
sg4
VTwitter
p47
sg6
I1105
sg7
I1111
sa(dp48
g3
I1
sg4
VPenn
p49
sg6
I1290
sg7
I1293
sa(dp50
g3
I1
sg4
VPenn
p51
sg6
I1324
sg7
I1327
sasI2
(lp52
(dp53
g3
I0
sg4
VMud Men
p54
sg6
I529
sg7
I535
sa(dp55
g3
I0
sg4
VTwitter Facebook
p56
sg6
I701
sg7
I716
sa(dp57
g3
I0
sg4
VShaun King
p58
sg6
I1049
sg7
I1058
sa(dp59
g3
I0
sg4
VDeRay Mckesson.
p60
sg6
I1064
sg7
I1078
sasI3
(lp61
(dp62
g3
I0
sg4
VFacebook and Snapchat
p63
sg6
I709
sg7
I729
sa(dp64
g3
I0
sg4
VKing and DeRay
p65
sg6
I1055
sg7
I1068
sasI4
(lp66
(dp67
g3
I0
sg4
VTwitter Facebook and Snapchat
p68
sg6
I701
sg7
I729
sa(dp69
g3
I0
sg4
VShaun King and DeRay
p70
sg6
I1049
sg7
I1068
sa(dp71
g3
I0
sg4
VKing and DeRay Mckesson.
p72
sg6
I1055
sg7
I1078
sasI5
(lp73
(dp74
g3
I0
sg4
VShaun King and DeRay Mckesson.
p75
sg6
I1049
sg7
I1078
sasI6
(lp76
s.