(dp0
I1
(lp1
(dp2
S'label'
p3
I1
sS'string'
p4
VPenn
p5
sS'start_index'
p6
I72
sS'end_index'
p7
I75
sa(dp8
g3
I0
sg4
VPennsylvania
p9
sg6
I311
sg7
I322
sa(dp10
g3
I0
sg4
VDon
p11
sg6
I413
sg7
I415
sasI2
(lp12
sI3
(lp13
(dp14
g3
I1
sg4
VUniversity of Pennsylvania
p15
sg6
I297
sg7
I322
sasI4
(lp16
sI5
(lp17
sI6
(lp18
s.