(dp0
I1
(lp1
(dp2
S'label'
p3
I0
sS'string'
p4
VMaybe
p5
sS'start_index'
p6
I0
sS'end_index'
p7
I4
sa(dp8
g3
I1
sg4
VPenn
p9
sg6
I251
sg7
I254
sa(dp10
g3
I0
sg4
VBlack
p11
sg6
I326
sg7
I330
sa(dp12
g3
I0
sg4
VGroupMe
p13
sg6
I438
sg7
I444
sa(dp14
g3
I0
sg4
VOklahoma
p15
sg6
I637
sg7
I644
sa(dp16
g3
I1
sg4
VPenn.
p17
sg6
I761
sg7
I765
sa(dp18
g3
I0
sg4
VWould
p19
sg6
I1012
sg7
I1016
sa(dp20
g3
I0
sg4
VSigma
p21
sg6
I1178
sg7
I1182
sa(dp22
g3
I0
sg4
VAlpha
p23
sg6
I1184
sg7
I1188
sa(dp24
g3
I0
sg4
VEpsilon
p25
sg6
I1190
sg7
I1196
sa(dp26
g3
I1
sg4
VPenn
p27
sg6
I1284
sg7
I1287
sa(dp28
g3
I0
sg4
VA.E.
p29
sg6
I1292
sg7
I1295
sa(dp30
g3
I0
sg4
VWorking
p31
sg6
I1347
sg7
I1353
sa(dp32
g3
I0
sg4
VB.I.
p33
sg6
I1367
sg7
I1370
sa(dp34
g3
I0
sg4
VGroupMe
p35
sg6
I1431
sg7
I1437
sa(dp36
g3
I0
sg4
VOklahoma
p37
sg6
I1494
sg7
I1501
sa(dp38
g3
I1
sg4
VPenn
p39
sg6
I1528
sg7
I1531
sa(dp40
g3
I0
sg4
VPennsylvania
p41
sg6
I1611
sg7
I1622
sa(dp42
g3
I0
sg4
VOklahoma
p43
sg6
I1646
sg7
I1653
sa(dp44
g3
I0
sg4
VUltimately
p45
sg6
I1692
sg7
I1701
sa(dp46
g3
I1
sg4
VPenn
p47
sg6
I1735
sg7
I1738
sa(dp48
g3
I0
sg4
VGroupMe
p49
sg6
I1854
sg7
I1860
sa(dp50
g3
I0
sg4
VGroupMe
p51
sg6
I2089
sg7
I2095
sa(dp52
g3
I0
sg4
VJust
p53
sg6
I2162
sg7
I2165
sa(dp54
g3
I0
sg4
VNazi
p55
sg6
I2203
sg7
I2206
sa(dp56
g3
I0
sg4
VGroupMe
p57
sg6
I2328
sg7
I2334
sasI2
(lp58
(dp59
g3
I0
sg4
VSigma Alpha
p60
sg6
I1178
sg7
I1188
sa(dp61
g3
I0
sg4
VAlpha Epsilon
p62
sg6
I1184
sg7
I1196
sa(dp63
g3
I0
sg4
VPenn S.
p64
sg6
I1284
sg7
I1290
sa(dp65
g3
I0
sg4
VS. A.E.
p66
sg6
I1289
sg7
I1295
sa(dp67
g3
I0
sg4
VF. B.I.
p68
sg6
I1364
sg7
I1370
sasI3
(lp69
(dp70
g3
I0
sg4
VSigma Alpha Epsilon
p71
sg6
I1178
sg7
I1196
sa(dp72
g3
I0
sg4
VPenn S. A.E.
p73
sg6
I1284
sg7
I1295
sa(dp74
g3
I1
sg4
VUniversity of Oklahoma
p75
sg6
I1480
sg7
I1501
sa(dp76
g3
I1
sg4
VUniversity of Pennsylvania
p77
sg6
I1597
sg7
I1622
sa(dp78
g3
I1
sg4
VUniversity of Oklahoma
p79
sg6
I1632
sg7
I1653
sasI4
(lp80
sI5
(lp81
sI6
(lp82
s.