(dp0
I1
(lp1
(dp2
S'label'
p3
I0
sS'string'
p4
VWASHINGTON
p5
sS'start_index'
p6
I0
sS'end_index'
p7
I9
sa(dp8
g3
I0
sg4
VFred
p9
sg6
I34
sg7
I37
sa(dp10
g3
I0
sg4
VVautour
p11
sg6
I39
sg7
I45
sa(dp12
g3
I0
sg4
VBoston
p13
sg6
I92
sg7
I97
sa(dp14
g3
I0
sg4
VVautour
p15
sg6
I148
sg7
I154
sa(dp16
g3
I0
sg4
VVautour
p17
sg6
I458
sg7
I464
sa(dp18
g3
I0
sg4
VBoston
p19
sg6
I522
sg7
I527
sa(dp20
g3
I0
sg4
VHouse
p21
sg6
I708
sg7
I712
sa(dp22
g3
I0
sg4
VVautour
p23
sg6
I854
sg7
I860
sasI2
(lp24
(dp25
g3
I0
sg4
VFred Vautour
p26
sg6
I34
sg7
I45
sa(dp27
g3
I1
sg4
VBoston College
p28
sg6
I92
sg7
I105
sa(dp29
g3
I1
sg4
VBoston College
p30
sg6
I522
sg7
I535
sasI3
(lp31
sI4
(lp32
sI5
(lp33
sI6
(lp34
s.