(dp0
I1
(lp1
(dp2
S'label'
p3
I1
sS'string'
p4
VStanford
p5
sS'start_index'
p6
I280
sS'end_index'
p7
I287
sa(dp8
g3
I1
sg4
VHarvard
p9
sg6
I293
sg7
I299
sasI2
(lp10
sI3
(lp11
(dp12
g3
I0
sg4
VStanford and Harvard
p13
sg6
I280
sg7
I299
sasI4
(lp14
sI5
(lp15
sI6
(lp16
s.