(dp0
I1
(lp1
(dp2
S'label'
p3
I0
sS'string'
p4
VFred
p5
sS'start_index'
p6
I0
sS'end_index'
p7
I3
sa(dp8
g3
I0
sg4
VVautour
p9
sg6
I5
sg7
I11
sa(dp10
g3
I0
sg4
VBoston
p11
sg6
I97
sg7
I102
sasI2
(lp12
(dp13
g3
I0
sg4
VFred Vautour
p14
sg6
I0
sg7
I11
sa(dp15
g3
I1
sg4
VBoston College
p16
sg6
I97
sg7
I110
sasI3
(lp17
sI4
(lp18
sI5
(lp19
sI6
(lp20
s.