(dp0
I1
(lp1
(dp2
S'label'
p3
I0
sS'string'
p4
VDacen
p5
sS'start_index'
p6
I4
sS'end_index'
p7
I8
sa(dp8
g3
I0
sg4
VWaters
p9
sg6
I10
sg7
I15
sa(dp10
g3
I0
sg4
VCarnegie
p11
sg6
I84
sg7
I91
sa(dp12
g3
I0
sg4
VMellon
p13
sg6
I93
sg7
I98
sa(dp14
g3
I0
sg4
VHouse
p15
sg6
I115
sg7
I119
sa(dp16
g3
I0
sg4
VWaters
p17
sg6
I172
sg7
I177
sa(dp18
g3
I0
sg4
VMellon
p19
sg6
I193
sg7
I198
sa(dp20
g3
I0
sg4
VScience
p21
sg6
I211
sg7
I217
sa(dp22
g3
I0
sg4
VWaters
p23
sg6
I517
sg7
I522
sa(dp24
g3
I0
sg4
VWaters
p25
sg6
I876
sg7
I881
sasI2
(lp26
(dp27
g3
I0
sg4
VDacen Waters
p28
sg6
I4
sg7
I15
sa(dp29
g3
I0
sg4
VCarnegie Mellon
p30
sg6
I84
sg7
I98
sa(dp31
g3
I0
sg4
VMellon University
p32
sg6
I93
sg7
I109
sa(dp33
g3
I0
sg4
VMellon College
p34
sg6
I193
sg7
I206
sasI3
(lp35
(dp36
g3
I1
sg4
VCarnegie Mellon University
p37
sg6
I84
sg7
I109
sa(dp38
g3
I0
sg4
VCollege of Science
p39
sg6
I200
sg7
I217
sasI4
(lp40
(dp41
g3
I1
sg4
VMellon College of Science
p42
sg6
I193
sg7
I217
sasI5
(lp43
sI6
(lp44
s.