(dp0
I1
(lp1
(dp2
S'label'
p3
I0
sS'string'
p4
VAssociation
p5
sS'start_index'
p6
I4
sS'end_index'
p7
I14
sa(dp8
g3
I0
sg4
VAmerican
p9
sg6
I19
sg7
I26
sa(dp10
g3
I0
sg4
VCarnegie
p11
sg6
I93
sg7
I100
sa(dp12
g3
I0
sg4
VMellon
p13
sg6
I102
sg7
I107
sa(dp14
g3
I0
sg4
VAmerican
p15
sg6
I226
sg7
I233
sa(dp16
g3
I0
sg4
VMary
p17
sg6
I323
sg7
I326
sa(dp18
g3
I0
sg4
VSue
p19
sg6
I328
sg7
I330
sa(dp20
g3
I0
sg4
VColeman
p21
sg6
I332
sg7
I338
sa(dp22
g3
I0
sg4
VAmericans
p23
sg6
I395
sg7
I403
sa(dp24
g3
I0
sg4
VJan.
p25
sg6
I524
sg7
I527
sa(dp26
g3
I0
sg4
VVautour.
p27
sg6
I689
sg7
I696
sa(dp28
g3
I0
sg4
VBoston
p29
sg6
I717
sg7
I722
sa(dp30
g3
I0
sg4
VVautour
p31
sg6
I1010
sg7
I1016
sasI2
(lp32
(dp33
g3
I1
sg4
VCarnegie Mellon
p34
sg6
I93
sg7
I107
sa(dp35
g3
I0
sg4
VMary Sue
p36
sg6
I323
sg7
I330
sa(dp37
g3
I0
sg4
VSue Coleman
p38
sg6
I328
sg7
I338
sa(dp39
g3
I1
sg4
VBoston College
p40
sg6
I717
sg7
I730
sasI3
(lp41
(dp42
g3
I0
sg4
VAssociation of American
p43
sg6
I4
sg7
I26
sa(dp44
g3
I0
sg4
VMary Sue Coleman
p45
sg6
I323
sg7
I338
sasI4
(lp46
sI5
(lp47
sI6
(lp48
s.