(dp0
I1
(lp1
(dp2
S'label'
p3
I0
sS'string'
p4
VMichael
p5
sS'start_index'
p6
I385
sS'end_index'
p7
I391
sa(dp8
g3
I0
sg4
VRoth
p9
sg6
I393
sg7
I396
sa(dp10
g3
I0
sg4
VWesleyan
p11
sg6
I411
sg7
I418
sa(dp12
g3
I0
sg4
VDeVos
p13
sg6
I440
sg7
I444
sa(dp14
g3
I0
sg4
VObama
p15
sg6
I465
sg7
I469
sa(dp16
g3
I0
sg4
VRoth
p17
sg6
I738
sg7
I741
sa(dp18
g3
I0
sg4
VChanging
p19
sg6
I749
sg7
I756
sa(dp20
g3
I0
sg4
VObama
p21
sg6
I799
sg7
I803
sa(dp22
g3
I0
sg4
VRoth
p23
sg6
I866
sg7
I869
sa(dp24
g3
I0
sg4
VWesleyan
p25
sg6
I970
sg7
I977
sa(dp26
g3
I0
sg4
VJustin
p27
sg6
I1118
sg7
I1123
sa(dp28
g3
I0
sg4
VDillon
p29
sg6
I1125
sg7
I1130
sa(dp30
g3
I0
sg4
VWashington
p31
sg6
I1144
sg7
I1153
sa(dp32
g3
I0
sg4
VDeVos
p33
sg6
I1231
sg7
I1235
sa(dp34
g3
I0
sg4
VVirginia
p35
sg6
I1366
sg7
I1373
sa(dp36
g3
I0
sg4
VFundamentally
p37
sg6
I1641
sg7
I1653
sa(dp38
g3
I0
sg4
VDillon
p39
sg6
I1659
sg7
I1664
sa(dp40
g3
I0
sg4
VBLURRED
p41
sg6
I1811
sg7
I1817
sa(dp42
g3
I0
sg4
VLINESRethinking
p43
sg6
I1819
sg7
I1833
sa(dp44
g3
I0
sg4
VSex
p45
sg6
I1835
sg7
I1837
sa(dp46
g3
I0
sg4
VPower
p47
sg6
I1839
sg7
I1843
sa(dp48
g3
I0
sg4
VConsent
p49
sg6
I1849
sg7
I1855
sa(dp50
g3
I0
sg4
VCampusBy
p51
sg6
I1860
sg7
I1867
sa(dp52
g3
I0
sg4
VVanessa
p53
sg6
I1869
sg7
I1875
sa(dp54
g3
I0
sg4
VHoughton
p55
sg6
I1896
sg7
I1903
sa(dp56
g3
I0
sg4
VMifflin
p57
sg6
I1905
sg7
I1911
sa(dp58
g3
I0
sg4
VHarcourt.
p59
sg6
I1913
sg7
I1921
sa(dp60
g3
I0
sg4
VCandice
p61
sg6
I1934
sg7
I1940
sa(dp62
g3
I0
sg4
VJackson
p63
sg6
I1945
sg7
I1951
sa(dp64
g3
I0
sg4
VDonald
p65
sg6
I1986
sg7
I1991
sa(dp66
g3
I0
sg4
VTrump
p67
sg6
I1993
sg7
I1997
sa(dp68
g3
I0
sg4
VDepartment
p69
sg6
I2001
sg7
I2010
sa(dp70
g3
I0
sg4
VEducation
p71
sg6
I2015
sg7
I2023
sa(dp72
g3
I0
sg4
VNew
p73
sg6
I2034
sg7
I2036
sa(dp74
g3
I0
sg4
VYork
p75
sg6
I2038
sg7
I2041
sa(dp76
g3
I0
sg4
VTimes
p77
sg6
I2043
sg7
I2047
sa(dp78
g3
I0
sg4
VJackson
p79
sg6
I2204
sg7
I2210
sa(dp80
g3
I0
sg4
VBetsy
p81
sg6
I2228
sg7
I2232
sa(dp82
g3
I0
sg4
VDeVos
p83
sg6
I2234
sg7
I2238
sa(dp84
g3
I0
sg4
VNational
p85
sg6
I2368
sg7
I2375
sa(dp86
g3
I0
sg4
VCoalition
p87
sg6
I2377
sg7
I2385
sa(dp88
g3
I0
sg4
VMen
p89
sg6
I2391
sg7
I2393
sa(dp90
g3
I0
sg4
VCarolinas.
p91
sg6
I2395
sg7
I2404
sa(dp92
g3
I0
sg4
VSays
p93
sg6
I2406
sg7
I2409
sa(dp94
g3
I0
sg4
VDon
p95
sg6
I2443
sg7
I2445
sa(dp96
g3
I0
sg4
VEmbarrassed
p97
sg6
I2462
sg7
I2472
sa(dp98
g3
I0
sg4
VAngry
p99
sg6
I2486
sg7
I2490
sa(dp100
g3
I0
sg4
VWilling
p101
sg6
I2507
sg7
I2513
sa(dp102
g3
I0
sg4
VColumbia
p103
sg6
I2566
sg7
I2573
sa(dp104
g3
I0
sg4
VPaul
p105
sg6
I2637
sg7
I2640
sa(dp106
g3
I0
sg4
VNungesser
p107
sg6
I2642
sg7
I2650
sa(dp108
g3
I0
sg4
VEmma
p109
sg6
I2703
sg7
I2706
sa(dp110
g3
I0
sg4
VSulkowicz
p111
sg6
I2708
sg7
I2716
sa(dp112
g3
I1
sg4
VColumbia
p113
sg6
I2760
sg7
I2767
sa(dp114
g3
I0
sg4
VNungesser
p115
sg6
I2814
sg7
I2822
sa(dp116
g3
I0
sg4
VSulkowicz
p117
sg6
I2824
sg7
I2832
sa(dp118
g3
I0
sg4
VNungesser
p119
sg6
I2964
sg7
I2972
sa(dp120
g3
I1
sg4
VColumbia
p121
sg6
I2994
sg7
I3001
sa(dp122
g3
I0
sg4
VSulkowicz
p123
sg6
I3015
sg7
I3023
sa(dp124
g3
I0
sg4
VSulkowicz
p125
sg6
I3080
sg7
I3088
sa(dp126
g3
I0
sg4
VTrump
p127
sg6
I3269
sg7
I3273
sa(dp128
g3
I0
sg4
VBarack
p129
sg6
I3394
sg7
I3399
sa(dp130
g3
I0
sg4
VObama
p131
sg6
I3401
sg7
I3405
sa(dp132
g3
I0
sg4
VVanessa
p133
sg6
I3421
sg7
I3427
sa(dp134
g3
I0
sg4
VGrigoriadis
p135
sg6
I3429
sg7
I3439
sa(dp136
g3
I0
sg4
VBlurred
p137
sg6
I3528
sg7
I3534
sa(dp138
g3
I0
sg4
VLines
p139
sg6
I3536
sg7
I3540
sa(dp140
g3
I0
sg4
VRethinking
p141
sg6
I3542
sg7
I3551
sa(dp142
g3
I0
sg4
VSex
p143
sg6
I3553
sg7
I3555
sa(dp144
g3
I0
sg4
VPower
p145
sg6
I3557
sg7
I3561
sa(dp146
g3
I0
sg4
VConsent
p147
sg6
I3567
sg7
I3573
sa(dp148
g3
I0
sg4
VCampus
p149
sg6
I3578
sg7
I3583
sa(dp150
g3
I0
sg4
VObama
p151
sg6
I3596
sg7
I3600
sa(dp152
g3
I0
sg4
VBlurred
p153
sg6
I3758
sg7
I3764
sa(dp154
g3
I0
sg4
VLines
p155
sg6
I3766
sg7
I3770
sa(dp156
g3
I0
sg4
VEvery
p157
sg6
I3804
sg7
I3808
sa(dp158
g3
I0
sg4
VBlurred
p159
sg6
I4103
sg7
I4109
sa(dp160
g3
I0
sg4
VLines
p161
sg6
I4111
sg7
I4115
sasI2
(lp162
(dp163
g3
I0
sg4
VMichael Roth
p164
sg6
I385
sg7
I396
sa(dp165
g3
I1
sg4
VWesleyan University
p166
sg6
I411
sg7
I429
sa(dp167
g3
I0
sg4
VJustin Dillon
p168
sg6
I1118
sg7
I1130
sa(dp169
g3
I0
sg4
VBLURRED LINESRethinking
p170
sg6
I1811
sg7
I1833
sa(dp171
g3
I0
sg4
VLINESRethinking Sex
p172
sg6
I1819
sg7
I1837
sa(dp173
g3
I0
sg4
VSex Power
p174
sg6
I1835
sg7
I1843
sa(dp175
g3
I0
sg4
VCampusBy Vanessa
p176
sg6
I1860
sg7
I1875
sa(dp177
g3
I0
sg4
VHoughton Mifflin
p178
sg6
I1896
sg7
I1911
sa(dp179
g3
I0
sg4
VMifflin Harcourt.
p180
sg6
I1905
sg7
I1921
sa(dp181
g3
I0
sg4
VCandice E.
p182
sg6
I1934
sg7
I1943
sa(dp183
g3
I0
sg4
VE. Jackson
p184
sg6
I1942
sg7
I1951
sa(dp185
g3
I0
sg4
VDonald Trump
p186
sg6
I1986
sg7
I1997
sa(dp187
g3
I0
sg4
VNew York
p188
sg6
I2034
sg7
I2041
sa(dp189
g3
I0
sg4
VYork Times
p190
sg6
I2038
sg7
I2047
sa(dp191
g3
I0
sg4
VBetsy DeVos
p192
sg6
I2228
sg7
I2238
sa(dp193
g3
I0
sg4
VNational Coalition
p194
sg6
I2368
sg7
I2385
sa(dp195
g3
I0
sg4
VMen Carolinas.
p196
sg6
I2391
sg7
I2404
sa(dp197
g3
I1
sg4
VColumbia University
p198
sg6
I2566
sg7
I2584
sa(dp199
g3
I0
sg4
VPaul Nungesser
p200
sg6
I2637
sg7
I2650
sa(dp201
g3
I0
sg4
VEmma Sulkowicz
p202
sg6
I2703
sg7
I2716
sa(dp203
g3
I0
sg4
VNungesser Sulkowicz
p204
sg6
I2814
sg7
I2832
sa(dp205
g3
I0
sg4
VBarack Obama
p206
sg6
I3394
sg7
I3405
sa(dp207
g3
I0
sg4
VVanessa Grigoriadis
p208
sg6
I3421
sg7
I3439
sa(dp209
g3
I0
sg4
VBlurred Lines
p210
sg6
I3528
sg7
I3540
sa(dp211
g3
I0
sg4
VLines Rethinking
p212
sg6
I3536
sg7
I3551
sa(dp213
g3
I0
sg4
VRethinking Sex
p214
sg6
I3542
sg7
I3555
sa(dp215
g3
I0
sg4
VSex Power
p216
sg6
I3553
sg7
I3561
sa(dp217
g3
I0
sg4
VBlurred Lines
p218
sg6
I3758
sg7
I3770
sa(dp219
g3
I0
sg4
VBlurred Lines
p220
sg6
I4103
sg7
I4115
sasI3
(lp221
(dp222
g3
I1
sg4
VUniversity of Virginia
p223
sg6
I1352
sg7
I1373
sa(dp224
g3
I0
sg4
VBLURRED LINESRethinking Sex
p225
sg6
I1811
sg7
I1837
sa(dp226
g3
I0
sg4
VLINESRethinking Sex Power
p227
sg6
I1819
sg7
I1843
sa(dp228
g3
I0
sg4
VPower and Consent
p229
sg6
I1839
sg7
I1855
sa(dp230
g3
I0
sg4
VHoughton Mifflin Harcourt.
p231
sg6
I1896
sg7
I1921
sa(dp232
g3
I0
sg4
VCandice E. Jackson
p233
sg6
I1934
sg7
I1951
sa(dp234
g3
I0
sg4
VDepartment of Education
p235
sg6
I2001
sg7
I2023
sa(dp236
g3
I0
sg4
VNew York Times
p237
sg6
I2034
sg7
I2047
sa(dp238
g3
I0
sg4
VBlurred Lines Rethinking
p239
sg6
I3528
sg7
I3551
sa(dp240
g3
I0
sg4
VLines Rethinking Sex
p241
sg6
I3536
sg7
I3555
sa(dp242
g3
I0
sg4
VRethinking Sex Power
p243
sg6
I3542
sg7
I3561
sa(dp244
g3
I0
sg4
VPower and Consent
p245
sg6
I3557
sg7
I3573
sasI4
(lp246
(dp247
g3
I0
sg4
VBLURRED LINESRethinking Sex Power
p248
sg6
I1811
sg7
I1843
sa(dp249
g3
I0
sg4
VSex Power and Consent
p250
sg6
I1835
sg7
I1855
sa(dp251
g3
I0
sg4
VBlurred Lines Rethinking Sex
p252
sg6
I3528
sg7
I3555
sa(dp253
g3
I0
sg4
VLines Rethinking Sex Power
p254
sg6
I3536
sg7
I3561
sa(dp255
g3
I0
sg4
VSex Power and Consent
p256
sg6
I3553
sg7
I3573
sasI5
(lp257
(dp258
g3
I0
sg4
VLINESRethinking Sex Power and Consent
p259
sg6
I1819
sg7
I1855
sa(dp260
g3
I0
sg4
VBlurred Lines Rethinking Sex Power
p261
sg6
I3528
sg7
I3561
sa(dp262
g3
I0
sg4
VRethinking Sex Power and Consent
p263
sg6
I3542
sg7
I3573
sasI6
(lp264
(dp265
g3
I0
sg4
VBLURRED LINESRethinking Sex Power and Consent
p266
sg6
I1811
sg7
I1855
sa(dp267
g3
I0
sg4
VLines Rethinking Sex Power and Consent
p268
sg6
I3536
sg7
I3573
sas.