(dp0
I1
(lp1
(dp2
S'label'
p3
I0
sS'string'
p4
VMultiple
p5
sS'start_index'
p6
I0
sS'end_index'
p7
I7
sa(dp8
g3
I0
sg4
VPennsylvania
p9
sg6
I85
sg7
I96
sa(dp10
g3
I0
sg4
VBill
p11
sg6
I108
sg7
I111
sa(dp12
g3
I0
sg4
VCosby
p13
sg6
I113
sg7
I117
sa(dp14
g3
I0
sg4
VSteve
p15
sg6
I155
sg7
I159
sa(dp16
g3
I0
sg4
VWynn.
p17
sg6
I161
sg7
I165
sa(dp18
g3
I0
sg4
VCosby
p19
sg6
I208
sg7
I212
sa(dp20
g3
I0
sg4
VSteve
p21
sg6
I316
sg7
I320
sa(dp22
g3
I0
sg4
VWynn
p23
sg6
I322
sg7
I325
sa(dp24
g3
I0
sg4
VWynn
p25
sg6
I502
sg7
I505
sa(dp26
g3
I1
sg4
VPenn
p27
sg6
I509
sg7
I512
sa(dp28
g3
I0
sg4
VCosby
p29
sg6
I694
sg7
I698
sa(dp30
g3
I0
sg4
VWynn
p31
sg6
I708
sg7
I711
sasI2
(lp32
(dp33
g3
I0
sg4
VBill Cosby
p34
sg6
I108
sg7
I117
sa(dp35
g3
I0
sg4
VSteve Wynn.
p36
sg6
I155
sg7
I165
sa(dp37
g3
I0
sg4
VSteve Wynn
p38
sg6
I316
sg7
I325
sasI3
(lp39
(dp40
g3
I1
sg4
VUniversity of Pennsylvania
p41
sg6
I71
sg7
I96
sasI4
(lp42
sI5
(lp43
sI6
(lp44
s.