(dp0
I1
(lp1
(dp2
S'label'
p3
I0
sS'string'
p4
VCharlie
p5
sS'start_index'
p6
I101
sS'end_index'
p7
I107
sa(dp8
g3
I0
sg4
VRose.
p9
sg6
I109
sg7
I113
sa(dp10
g3
I0
sg4
VLarge
p11
sg6
I115
sg7
I119
sa(dp12
g3
I0
sg4
VWynn
p13
sg6
I280
sg7
I283
sa(dp14
g3
I1
sg4
VPenn
p15
sg6
I295
sg7
I298
sa(dp16
g3
I0
sg4
VPhiladelphia
p17
sg6
I324
sg7
I335
sa(dp18
g3
I0
sg4
VWynn
p19
sg6
I427
sg7
I430
sa(dp20
g3
I0
sg4
VCommons
p21
sg6
I432
sg7
I438
sa(dp22
g3
I0
sg4
VWynn
p23
sg6
I480
sg7
I483
sa(dp24
g3
I0
sg4
VWynn
p25
sg6
I594
sg7
I597
sa(dp26
g3
I0
sg4
VCommons
p27
sg6
I701
sg7
I707
sa(dp28
g3
I0
sg4
VAmy
p29
sg6
I789
sg7
I791
sa(dp30
g3
I0
sg4
VGutmann
p31
sg6
I793
sg7
I799
sa(dp32
g3
I0
sg4
VDavid
p33
sg6
I843
sg7
I847
sa(dp34
g3
I0
sg4
VCohen
p35
sg6
I852
sg7
I856
sa(dp36
g3
I1
sg4
VPenn
p37
sg6
I863
sg7
I866
sa(dp38
g3
I0
sg4
VCosby.
p39
sg6
I1113
sg7
I1118
sa(dp40
g3
I0
sg4
VAllegations
p41
sg6
I1120
sg7
I1130
sa(dp42
g3
I0
sg4
VCosby
p43
sg6
I1144
sg7
I1148
sa(dp44
g3
I1
sg4
VPenn
p45
sg6
I1304
sg7
I1307
sa(dp46
g3
I1
sg4
VPenn
p47
sg6
I1329
sg7
I1332
sa(dp48
g3
I0
sg4
VRelays
p49
sg6
I1334
sg7
I1339
sa(dp50
g3
I0
sg4
VCosby
p51
sg6
I1438
sg7
I1442
sa(dp52
g3
I0
sg4
VCosby
p53
sg6
I1535
sg7
I1539
sa(dp54
g3
I1
sg4
VPenn
p55
sg6
I1631
sg7
I1634
sa(dp56
g3
I0
sg4
VKaiser
p57
sg6
I1723
sg7
I1728
sa(dp58
g3
I0
sg4
VWilhelm
p59
sg6
I1730
sg7
I1736
sa(dp60
g3
I0
sg4
VAmbassador
p61
sg6
I1745
sg7
I1754
sa(dp62
g3
I0
sg4
VJohann
p63
sg6
I1756
sg7
I1761
sa(dp64
g3
I0
sg4
VHeinrich
p65
sg6
I1763
sg7
I1770
sa(dp66
g3
I0
sg4
VBernstorff
p67
sg6
I1776
sg7
I1785
sa(dp68
g3
I0
sg4
VGermany
p69
sg6
I1790
sg7
I1796
sa(dp70
g3
I0
sg4
VWorld
p71
sg6
I1805
sg7
I1809
sa(dp72
g3
I0
sg4
VWar
p73
sg6
I1811
sg7
I1813
sasI2
(lp74
(dp75
g3
I0
sg4
VCharlie Rose.
p76
sg6
I101
sg7
I113
sa(dp77
g3
I0
sg4
VWynn Commons
p78
sg6
I427
sg7
I438
sa(dp79
g3
I0
sg4
VAmy Gutmann
p80
sg6
I789
sg7
I799
sa(dp81
g3
I0
sg4
VDavid L.
p82
sg6
I843
sg7
I850
sa(dp83
g3
I0
sg4
VL. Cohen
p84
sg6
I849
sg7
I856
sa(dp85
g3
I0
sg4
VPenn Relays
p86
sg6
I1329
sg7
I1339
sa(dp87
g3
I0
sg4
VKaiser Wilhelm
p88
sg6
I1723
sg7
I1736
sa(dp89
g3
I0
sg4
VWilhelm II
p90
sg6
I1730
sg7
I1739
sa(dp91
g3
I0
sg4
VAmbassador Johann
p92
sg6
I1745
sg7
I1761
sa(dp93
g3
I0
sg4
VJohann Heinrich
p94
sg6
I1756
sg7
I1770
sa(dp95
g3
I0
sg4
VWorld War
p96
sg6
I1805
sg7
I1813
sa(dp97
g3
I0
sg4
VWar I.
p98
sg6
I1811
sg7
I1816
sasI3
(lp99
(dp100
g3
I0
sg4
VDavid L. Cohen
p101
sg6
I843
sg7
I856
sa(dp102
g3
I0
sg4
VKaiser Wilhelm II
p103
sg6
I1723
sg7
I1739
sa(dp104
g3
I0
sg4
VII and Ambassador
p105
sg6
I1738
sg7
I1754
sa(dp106
g3
I0
sg4
VAmbassador Johann Heinrich
p107
sg6
I1745
sg7
I1770
sa(dp108
g3
I0
sg4
VBernstorff of Germany
p109
sg6
I1776
sg7
I1796
sa(dp110
g3
I0
sg4
VWorld War I.
p111
sg6
I1805
sg7
I1816
sasI4
(lp112
(dp113
g3
I0
sg4
VWilhelm II and Ambassador
p114
sg6
I1730
sg7
I1754
sa(dp115
g3
I0
sg4
VII and Ambassador Johann
p116
sg6
I1738
sg7
I1761
sasI5
(lp117
(dp118
g3
I0
sg4
VKaiser Wilhelm II and Ambassador
p119
sg6
I1723
sg7
I1754
sa(dp120
g3
I0
sg4
VWilhelm II and Ambassador Johann
p121
sg6
I1730
sg7
I1761
sa(dp122
g3
I0
sg4
VII and Ambassador Johann Heinrich
p123
sg6
I1738
sg7
I1770
sasI6
(lp124
(dp125
g3
I0
sg4
VKaiser Wilhelm II and Ambassador Johann
p126
sg6
I1723
sg7
I1761
sa(dp127
g3
I0
sg4
VWilhelm II and Ambassador Johann Heinrich
p128
sg6
I1730
sg7
I1770
sas.