(dp0
I1
(lp1
(dp2
S'label'
p3
I0
sS'string'
p4
V&ldquo
p5
sS'start_index'
p6
I31
sS'end_index'
p7
I36
sa(dp8
g3
I0
sg4
VWynn&rdquo
p9
sg6
I38
sg7
I47
sa(dp10
g3
I0
sg4
VPennsylvania.
p11
sg6
I82
sg7
I94
sasI2
(lp12
(dp13
g3
I0
sg4
V&ldquo Wynn&rdquo
p14
sg6
I31
sg7
I47
sasI3
(lp15
(dp16
g3
I1
sg4
VUniversity of Pennsylvania.
p17
sg6
I68
sg7
I94
sasI4
(lp18
sI5
(lp19
sI6
(lp20
s.