(dp0
I1
(lp1
(dp2
S'label'
p3
I0
sS'string'
p4
VWynn
p5
sS'start_index'
p6
I32
sS'end_index'
p7
I35
sa(dp8
g3
I0
sg4
VCommons
p9
sg6
I37
sg7
I43
sa(dp10
g3
I0
sg4
VWynn
p11
sg6
I161
sg7
I164
sa(dp12
g3
I0
sg4
VWynn
p13
sg6
I251
sg7
I254
sa(dp14
g3
I1
sg4
VPenn
p15
sg6
I299
sg7
I302
sa(dp16
g3
I0
sg4
VBill
p17
sg6
I426
sg7
I429
sa(dp18
g3
I0
sg4
VCosby
p19
sg6
I431
sg7
I435
sasI2
(lp20
(dp21
g3
I0
sg4
VWynn Commons
p22
sg6
I32
sg7
I43
sa(dp23
g3
I0
sg4
VBill Cosby
p24
sg6
I426
sg7
I435
sasI3
(lp25
sI4
(lp26
sI5
(lp27
sI6
(lp28
s.