(dp0
I1
(lp1
(dp2
S'label'
p3
I0
sS'string'
p4
VCosby
p5
sS'start_index'
p6
I20
sS'end_index'
p7
I24
sa(dp8
g3
I1
sg4
VPennsylvania
p9
sg6
I75
sg7
I86
sa(dp10
g3
I0
sg4
VWynn
p11
sg6
I168
sg7
I171
sa(dp12
g3
I0
sg4
VWynn
p13
sg6
I214
sg7
I217
sa(dp14
g3
I0
sg4
VWall
p15
sg6
I278
sg7
I281
sa(dp16
g3
I0
sg4
VStreet
p17
sg6
I283
sg7
I288
sa(dp18
g3
I0
sg4
VJournal
p19
sg6
I290
sg7
I296
sa(dp20
g3
I0
sg4
VRepublican
p21
sg6
I351
sg7
I360
sa(dp22
g3
I0
sg4
VNational
p23
sg6
I362
sg7
I369
sa(dp24
g3
I0
sg4
VCommittee.
p25
sg6
I371
sg7
I380
sa(dp26
g3
I0
sg4
VWynn
p27
sg6
I394
sg7
I397
sa(dp28
g3
I0
sg4
VResorts
p29
sg6
I399
sg7
I405
sa(dp30
g3
I0
sg4
VNevada
p31
sg6
I491
sg7
I496
sa(dp32
g3
I0
sg4
VMassachusetts
p33
sg6
I502
sg7
I514
sa(dp34
g3
I0
sg4
VRepublican
p35
sg6
I544
sg7
I553
sa(dp36
g3
I0
sg4
VNational
p37
sg6
I555
sg7
I562
sa(dp38
g3
I0
sg4
VCommittee
p39
sg6
I564
sg7
I572
sa(dp40
g3
I0
sg4
VWynn
p41
sg6
I603
sg7
I606
sa(dp42
g3
I0
sg4
VRepublican
p43
sg6
I682
sg7
I691
sa(dp44
g3
I0
sg4
VGovernors
p45
sg6
I693
sg7
I701
sa(dp46
g3
I0
sg4
VAssociation
p47
sg6
I703
sg7
I713
sa(dp48
g3
I0
sg4
VRepublican
p49
sg6
I727
sg7
I736
sa(dp50
g3
I0
sg4
VCongress
p51
sg6
I749
sg7
I756
sa(dp52
g3
I0
sg4
VIowa
p53
sg6
I835
sg7
I838
sa(dp54
g3
I0
sg4
VWynn
p55
sg6
I880
sg7
I883
sa(dp56
g3
I0
sg4
VVision
p57
sg6
I924
sg7
I929
sa(dp58
g3
I0
sg4
VResearch
p59
sg6
I931
sg7
I938
sa(dp60
g3
I0
sg4
VWynn
p61
sg6
I950
sg7
I953
sa(dp62
g3
I0
sg4
VCommons
p63
sg6
I1073
sg7
I1079
sa(dp64
g3
I0
sg4
VWynn
p65
sg6
I1165
sg7
I1168
sa(dp66
g3
I0
sg4
VAmanda
p67
sg6
I1178
sg7
I1183
sa(dp68
g3
I0
sg4
VSilberling
p69
sg6
I1185
sg7
I1194
sa(dp70
g3
I0
sg4
VBoca
p71
sg6
I1213
sg7
I1216
sa(dp72
g3
I0
sg4
VRaton
p73
sg6
I1218
sg7
I1222
sa(dp74
g3
I0
sg4
VFla.
p75
sg6
I1224
sg7
I1227
sasI2
(lp76
(dp77
g3
I0
sg4
VWall Street
p78
sg6
I278
sg7
I288
sa(dp79
g3
I0
sg4
VStreet Journal
p80
sg6
I283
sg7
I296
sa(dp81
g3
I0
sg4
VRepublican National
p82
sg6
I351
sg7
I369
sa(dp83
g3
I0
sg4
VNational Committee.
p84
sg6
I362
sg7
I380
sa(dp85
g3
I0
sg4
VWynn Resorts
p86
sg6
I394
sg7
I405
sa(dp87
g3
I0
sg4
VRepublican National
p88
sg6
I544
sg7
I562
sa(dp89
g3
I0
sg4
VNational Committee
p90
sg6
I555
sg7
I572
sa(dp91
g3
I0
sg4
VRepublican Governors
p92
sg6
I682
sg7
I701
sa(dp93
g3
I0
sg4
VGovernors Association
p94
sg6
I693
sg7
I713
sa(dp95
g3
I0
sg4
VVision Research
p96
sg6
I924
sg7
I938
sa(dp97
g3
I0
sg4
VAmanda Silberling
p98
sg6
I1178
sg7
I1194
sa(dp99
g3
I0
sg4
VBoca Raton
p100
sg6
I1213
sg7
I1222
sa(dp101
g3
I0
sg4
VRaton Fla.
p102
sg6
I1218
sg7
I1227
sasI3
(lp103
(dp104
g3
I0
sg4
VWall Street Journal
p105
sg6
I278
sg7
I296
sa(dp106
g3
I0
sg4
VRepublican National Committee.
p107
sg6
I351
sg7
I380
sa(dp108
g3
I0
sg4
VNevada and Massachusetts
p109
sg6
I491
sg7
I514
sa(dp110
g3
I0
sg4
VRepublican National Committee
p111
sg6
I544
sg7
I572
sa(dp112
g3
I0
sg4
VRepublican Governors Association
p113
sg6
I682
sg7
I713
sa(dp114
g3
I1
sg4
VUniversity of Iowa
p115
sg6
I821
sg7
I838
sa(dp116
g3
I0
sg4
VBoca Raton Fla.
p117
sg6
I1213
sg7
I1227
sasI4
(lp118
sI5
(lp119
sI6
(lp120
s.