(dp0
I1
(lp1
(dp2
S'label'
p3
I0
sS'string'
p4
VPuerto
p5
sS'start_index'
p6
I14
sS'end_index'
p7
I19
sa(dp8
g3
I0
sg4
VRico
p9
sg6
I21
sg7
I24
sa(dp10
g3
I0
sg4
VUnited
p11
sg6
I34
sg7
I39
sa(dp12
g3
I0
sg4
VStates
p13
sg6
I41
sg7
I46
sa(dp14
g3
I0
sg4
VVirgin
p15
sg6
I48
sg7
I53
sa(dp16
g3
I0
sg4
VIslands
p17
sg6
I55
sg7
I61
sa(dp18
g3
I0
sg4
VState
p19
sg6
I78
sg7
I82
sa(dp20
g3
I0
sg4
VNew
p21
sg6
I98
sg7
I100
sa(dp22
g3
I0
sg4
VYork
p23
sg6
I102
sg7
I105
sa(dp24
g3
I1
sg4
VSUNY
p25
sg6
I154
sg7
I157
sa(dp26
g3
I0
sg4
VFriday.
p27
sg6
I182
sg7
I188
sa(dp28
g3
I1
sg4
VSUNY
p29
sg6
I209
sg7
I212
sa(dp30
g3
I0
sg4
VPuerto
p31
sg6
I452
sg7
I457
sa(dp32
g3
I0
sg4
VRico
p33
sg6
I459
sg7
I462
sa(dp34
g3
I0
sg4
VGov.
p35
sg6
I519
sg7
I522
sa(dp36
g3
I0
sg4
VRick
p37
sg6
I524
sg7
I527
sa(dp38
g3
I0
sg4
VScott
p39
sg6
I529
sg7
I533
sa(dp40
g3
I0
sg4
VFlorida
p41
sg6
I538
sg7
I544
sa(dp42
g3
I0
sg4
VPuerto
p43
sg6
I599
sg7
I604
sa(dp44
g3
I0
sg4
VRico
p45
sg6
I606
sg7
I609
sa(dp46
g3
I0
sg4
VMiami
p47
sg6
I626
sg7
I630
sa(dp48
g3
I0
sg4
VOrlando
p49
sg6
I632
sg7
I638
sa(dp50
g3
I0
sg4
VFort
p51
sg6
I644
sg7
I647
sa(dp52
g3
I0
sg4
VLauderdale.
p53
sg6
I649
sg7
I659
sa(dp54
g3
I1
sg4
VSUNY
p55
sg6
I665
sg7
I668
sa(dp56
g3
I0
sg4
VPuerto
p57
sg6
I848
sg7
I853
sa(dp58
g3
I0
sg4
VRico
p59
sg6
I855
sg7
I858
sa(dp60
g3
I0
sg4
VVirgin
p61
sg6
I868
sg7
I873
sa(dp62
g3
I0
sg4
VIslands
p63
sg6
I875
sg7
I881
sa(dp64
g3
I0
sg4
VCarl
p65
sg6
I912
sg7
I915
sa(dp66
g3
I0
sg4
VMcCall
p67
sg6
I917
sg7
I922
sa(dp68
g3
I1
sg4
VSUNY
p69
sg6
I944
sg7
I947
sasI2
(lp70
(dp71
g3
I0
sg4
VPuerto Rico
p72
sg6
I14
sg7
I24
sa(dp73
g3
I0
sg4
VUnited States
p74
sg6
I34
sg7
I46
sa(dp75
g3
I0
sg4
VStates Virgin
p76
sg6
I41
sg7
I53
sa(dp77
g3
I0
sg4
VVirgin Islands
p78
sg6
I48
sg7
I61
sa(dp79
g3
I0
sg4
VState University
p80
sg6
I78
sg7
I93
sa(dp81
g3
I0
sg4
VNew York
p82
sg6
I98
sg7
I105
sa(dp83
g3
I0
sg4
VPuerto Rico
p84
sg6
I452
sg7
I462
sa(dp85
g3
I0
sg4
VRick Scott
p86
sg6
I524
sg7
I533
sa(dp87
g3
I0
sg4
VPuerto Rico
p88
sg6
I599
sg7
I609
sa(dp89
g3
I0
sg4
VMiami Orlando
p90
sg6
I626
sg7
I638
sa(dp91
g3
I0
sg4
VFort Lauderdale.
p92
sg6
I644
sg7
I659
sa(dp93
g3
I0
sg4
VPuerto Rico
p94
sg6
I848
sg7
I858
sa(dp95
g3
I0
sg4
VVirgin Islands
p96
sg6
I868
sg7
I881
sa(dp97
g3
I0
sg4
VH. Carl
p98
sg6
I909
sg7
I915
sa(dp99
g3
I0
sg4
VCarl McCall
p100
sg6
I912
sg7
I922
sasI3
(lp101
(dp102
g3
I0
sg4
VUnited States Virgin
p103
sg6
I34
sg7
I53
sa(dp104
g3
I0
sg4
VStates Virgin Islands
p105
sg6
I41
sg7
I61
sa(dp106
g3
I0
sg4
VUniversity of New
p107
sg6
I84
sg7
I100
sa(dp108
g3
I0
sg4
VScott of Florida
p109
sg6
I529
sg7
I544
sa(dp110
g3
I0
sg4
VOrlando and Fort
p111
sg6
I632
sg7
I647
sa(dp112
g3
I0
sg4
VH. Carl McCall
p113
sg6
I909
sg7
I922
sasI4
(lp114
(dp115
g3
I0
sg4
VUnited States Virgin Islands
p116
sg6
I34
sg7
I61
sa(dp117
g3
I0
sg4
VState University of New
p118
sg6
I78
sg7
I100
sa(dp119
g3
I0
sg4
VUniversity of New York
p120
sg6
I84
sg7
I105
sa(dp121
g3
I0
sg4
VRick Scott of Florida
p122
sg6
I524
sg7
I544
sa(dp123
g3
I0
sg4
VMiami Orlando and Fort
p124
sg6
I626
sg7
I647
sa(dp125
g3
I0
sg4
VOrlando and Fort Lauderdale.
p126
sg6
I632
sg7
I659
sasI5
(lp127
(dp128
g3
I1
sg4
VState University of New York
p129
sg6
I78
sg7
I105
sa(dp130
g3
I0
sg4
VMiami Orlando and Fort Lauderdale.
p131
sg6
I626
sg7
I659
sasI6
(lp132
s.