(dp0
I1
(lp1
(dp2
S'label'
p3
I1
sS'string'
p4
VSUNY
p5
sS'start_index'
p6
I0
sS'end_index'
p7
I3
sa(dp8
g3
I0
sg4
VHurricane
p9
sg6
I129
sg7
I137
sa(dp10
g3
I0
sg4
VKatrina
p11
sg6
I139
sg7
I145
sa(dp12
g3
I1
sg4
VSUNY
p13
sg6
I180
sg7
I183
sa(dp14
g3
I0
sg4
VHaiti
p15
sg6
I243
sg7
I247
sa(dp16
g3
I1
sg4
VSUNY
p17
sg6
I286
sg7
I289
sa(dp18
g3
I0
sg4
VOther
p19
sg6
I351
sg7
I355
sa(dp20
g3
I0
sg4
VBoard
p21
sg6
I407
sg7
I411
sa(dp22
g3
I0
sg4
VRegents
p23
sg6
I416
sg7
I422
sa(dp24
g3
I0
sg4
VConnecticut
p25
sg6
I427
sg7
I437
sa(dp26
g3
I0
sg4
VCity
p27
sg6
I543
sg7
I546
sa(dp28
g3
I0
sg4
VNew
p29
sg6
I562
sg7
I564
sa(dp30
g3
I0
sg4
VYork
p31
sg6
I566
sg7
I569
sa(dp32
g3
I0
sg4
VPuerto
p33
sg6
I632
sg7
I637
sa(dp34
g3
I0
sg4
VRican
p35
sg6
I639
sg7
I643
sa(dp36
g3
I1
sg4
VCUNY
p37
sg6
I668
sg7
I671
sa(dp38
g3
I1
sg4
VSUNY
p39
sg6
I742
sg7
I745
sa(dp40
g3
I1
sg4
VCUNY
p41
sg6
I751
sg7
I754
sa(dp42
g3
I0
sg4
VGov.
p43
sg6
I786
sg7
I789
sa(dp44
g3
I0
sg4
VAndrew
p45
sg6
I791
sg7
I796
sa(dp46
g3
I0
sg4
VCuomo
p47
sg6
I801
sg7
I805
sa(dp48
g3
I0
sg4
VDemocrat
p49
sg6
I809
sg7
I816
sa(dp50
g3
I0
sg4
VPuerto
p51
sg6
I852
sg7
I857
sa(dp52
g3
I0
sg4
VRicans
p53
sg6
I859
sg7
I864
sa(dp54
g3
I0
sg4
VNew
p55
sg6
I874
sg7
I876
sa(dp56
g3
I0
sg4
VYork
p57
sg6
I878
sg7
I881
sa(dp58
g3
I0
sg4
VState.
p59
sg6
I883
sg7
I888
sa(dp60
g3
I0
sg4
VFlorida
p61
sg6
I893
sg7
I899
sa(dp62
g3
I0
sg4
VPuerto
p63
sg6
I930
sg7
I935
sa(dp64
g3
I0
sg4
VRican
p65
sg6
I937
sg7
I941
sa(dp66
g3
I0
sg4
VScott
p67
sg6
I958
sg7
I962
sa(dp68
g3
I0
sg4
VRepublican
p69
sg6
I966
sg7
I975
sa(dp70
g3
I0
sg4
VPuerto
p71
sg6
I1051
sg7
I1056
sa(dp72
g3
I0
sg4
VRican
p73
sg6
I1058
sg7
I1062
sa(dp74
g3
I0
sg4
VAccording
p75
sg6
I1074
sg7
I1082
sasI2
(lp76
(dp77
g3
I0
sg4
VHurricane Katrina
p78
sg6
I129
sg7
I145
sa(dp79
g3
I0
sg4
VCity University
p80
sg6
I543
sg7
I557
sa(dp81
g3
I0
sg4
VNew York
p82
sg6
I562
sg7
I569
sa(dp83
g3
I0
sg4
VPuerto Rican
p84
sg6
I632
sg7
I643
sa(dp85
g3
I0
sg4
VAndrew M.
p86
sg6
I791
sg7
I799
sa(dp87
g3
I0
sg4
VM. Cuomo
p88
sg6
I798
sg7
I805
sa(dp89
g3
I0
sg4
VPuerto Ricans
p90
sg6
I852
sg7
I864
sa(dp91
g3
I0
sg4
VNew York
p92
sg6
I874
sg7
I881
sa(dp93
g3
I0
sg4
VYork State.
p94
sg6
I878
sg7
I888
sa(dp95
g3
I0
sg4
VPuerto Rican
p96
sg6
I930
sg7
I941
sa(dp97
g3
I0
sg4
VPuerto Rican
p98
sg6
I1051
sg7
I1062
sasI3
(lp99
(dp100
g3
I0
sg4
VBoard of Regents
p101
sg6
I407
sg7
I422
sa(dp102
g3
I0
sg4
VUniversity of New
p103
sg6
I548
sg7
I564
sa(dp104
g3
I0
sg4
VSUNY and CUNY
p105
sg6
I742
sg7
I754
sa(dp106
g3
I0
sg4
VAndrew M. Cuomo
p107
sg6
I791
sg7
I805
sa(dp108
g3
I0
sg4
VNew York State.
p109
sg6
I874
sg7
I888
sasI4
(lp110
(dp111
g3
I0
sg4
VCity University of New
p112
sg6
I543
sg7
I564
sa(dp113
g3
I0
sg4
VUniversity of New York
p114
sg6
I548
sg7
I569
sasI5
(lp115
(dp116
g3
I1
sg4
VCity University of New York
p117
sg6
I543
sg7
I569
sasI6
(lp118
s.