(dp0
I1
(lp1
(dp2
S'label'
p3
I0
sS'string'
p4
VScott
p5
sS'start_index'
p6
I194
sS'end_index'
p7
I198
sa(dp8
g3
I0
sg4
VPuerto
p9
sg6
I214
sg7
I219
sa(dp10
g3
I0
sg4
VRican
p11
sg6
I221
sg7
I225
sa(dp12
g3
I0
sg4
VFlorida
p13
sg6
I260
sg7
I266
sa(dp14
g3
I0
sg4
VNew
p15
sg6
I275
sg7
I277
sa(dp16
g3
I0
sg4
VYork
p17
sg6
I279
sg7
I282
sa(dp18
g3
I0
sg4
VCity
p19
sg6
I284
sg7
I287
sa(dp20
g3
I0
sg4
VDepartment
p21
sg6
I311
sg7
I320
sa(dp22
g3
I0
sg4
VEducation
p23
sg6
I325
sg7
I333
sa(dp24
g3
I0
sg4
VNew
p25
sg6
I434
sg7
I436
sa(dp26
g3
I0
sg4
VYork
p27
sg6
I438
sg7
I441
sa(dp28
g3
I0
sg4
VCity
p29
sg6
I443
sg7
I446
sa(dp30
g3
I0
sg4
VRev.
p31
sg6
I556
sg7
I559
sa(dp32
g3
I0
sg4
VSamuel
p33
sg6
I561
sg7
I566
sa(dp34
g3
I0
sg4
VCruz
p35
sg6
I568
sg7
I571
sa(dp36
g3
I0
sg4
VTrinity
p37
sg6
I587
sg7
I593
sa(dp38
g3
I0
sg4
VLutheran
p39
sg6
I595
sg7
I602
sa(dp40
g3
I0
sg4
VChurch
p41
sg6
I604
sg7
I609
sa(dp42
g3
I0
sg4
VSunset
p43
sg6
I614
sg7
I619
sa(dp44
g3
I0
sg4
VPark
p45
sg6
I621
sg7
I624
sa(dp46
g3
I0
sg4
VBrooklyn
p47
sg6
I626
sg7
I633
sa(dp48
g3
I0
sg4
VPuerto
p49
sg6
I651
sg7
I656
sa(dp50
g3
I0
sg4
VRican
p51
sg6
I658
sg7
I662
sa(dp52
g3
I0
sg4
VPuerto
p53
sg6
I797
sg7
I802
sa(dp54
g3
I0
sg4
VRico.
p55
sg6
I804
sg7
I808
sa(dp56
g3
I0
sg4
VHurricane
p57
sg6
I962
sg7
I970
sa(dp58
g3
I0
sg4
VMaria
p59
sg6
I972
sg7
I976
sa(dp60
g3
I0
sg4
VCruz
p61
sg6
I1070
sg7
I1073
sa(dp62
g3
I0
sg4
VJames
p63
sg6
I1507
sg7
I1511
sa(dp64
g3
I0
sg4
VMilliken
p65
sg6
I1516
sg7
I1523
sa(dp66
g3
I1
sg4
VCUNY
p67
sg6
I1543
sg7
I1546
sa(dp68
g3
I1
sg4
VCUNY
p69
sg6
I1560
sg7
I1563
sa(dp70
g3
I0
sg4
VPuerto
p71
sg6
I1607
sg7
I1612
sa(dp72
g3
I0
sg4
VRico
p73
sg6
I1614
sg7
I1617
sa(dp74
g3
I0
sg4
VPuerto
p75
sg6
I1869
sg7
I1874
sa(dp76
g3
I0
sg4
VRico
p77
sg6
I1876
sg7
I1879
sa(dp78
g3
I0
sg4
VMilliken
p79
sg6
I1924
sg7
I1931
sasI2
(lp80
(dp81
g3
I0
sg4
VPuerto Rican
p82
sg6
I214
sg7
I225
sa(dp83
g3
I0
sg4
VNew York
p84
sg6
I275
sg7
I282
sa(dp85
g3
I0
sg4
VYork City
p86
sg6
I279
sg7
I287
sa(dp87
g3
I0
sg4
VNew York
p88
sg6
I434
sg7
I441
sa(dp89
g3
I0
sg4
VYork City
p90
sg6
I438
sg7
I446
sa(dp91
g3
I0
sg4
VSamuel Cruz
p92
sg6
I561
sg7
I571
sa(dp93
g3
I0
sg4
VTrinity Lutheran
p94
sg6
I587
sg7
I602
sa(dp95
g3
I0
sg4
VLutheran Church
p96
sg6
I595
sg7
I609
sa(dp97
g3
I0
sg4
VSunset Park
p98
sg6
I614
sg7
I624
sa(dp99
g3
I0
sg4
VPark Brooklyn
p100
sg6
I621
sg7
I633
sa(dp101
g3
I0
sg4
VPuerto Rican
p102
sg6
I651
sg7
I662
sa(dp103
g3
I0
sg4
VPuerto Rico.
p104
sg6
I797
sg7
I808
sa(dp105
g3
I0
sg4
VHurricane Maria
p106
sg6
I962
sg7
I976
sa(dp107
g3
I0
sg4
VJames B.
p108
sg6
I1507
sg7
I1514
sa(dp109
g3
I0
sg4
VB. Milliken
p110
sg6
I1513
sg7
I1523
sa(dp111
g3
I0
sg4
VPuerto Rico
p112
sg6
I1607
sg7
I1617
sa(dp113
g3
I0
sg4
VPuerto Rico
p114
sg6
I1869
sg7
I1879
sasI3
(lp115
(dp116
g3
I0
sg4
VNew York City
p117
sg6
I275
sg7
I287
sa(dp118
g3
I0
sg4
VDepartment of Education
p119
sg6
I311
sg7
I333
sa(dp120
g3
I0
sg4
VNew York City
p121
sg6
I434
sg7
I446
sa(dp122
g3
I0
sg4
VTrinity Lutheran Church
p123
sg6
I587
sg7
I609
sa(dp124
g3
I0
sg4
VSunset Park Brooklyn
p125
sg6
I614
sg7
I633
sa(dp126
g3
I0
sg4
VUniversity of Puerto
p127
sg6
I783
sg7
I802
sa(dp128
g3
I0
sg4
VJames B. Milliken
p129
sg6
I1507
sg7
I1523
sa(dp130
g3
I0
sg4
VUniversity of Puerto
p131
sg6
I1593
sg7
I1612
sa(dp132
g3
I0
sg4
VUniversity of Puerto
p133
sg6
I1855
sg7
I1874
sasI4
(lp134
(dp135
g3
I1
sg4
VUniversity of Puerto Rico.
p136
sg6
I783
sg7
I808
sa(dp137
g3
I1
sg4
VUniversity of Puerto Rico
p138
sg6
I1593
sg7
I1617
sa(dp139
g3
I1
sg4
VUniversity of Puerto Rico
p140
sg6
I1855
sg7
I1879
sasI5
(lp141
sI6
(lp142
s.