(dp0
I1
(lp1
(dp2
S'label'
p3
I0
sS'string'
p4
VSept.
p5
sS'start_index'
p6
I3
sS'end_index'
p7
I7
sa(dp8
g3
I0
sg4
VBlack
p9
sg6
I83
sg7
I87
sa(dp10
g3
I0
sg4
VLives
p11
sg6
I89
sg7
I93
sa(dp12
g3
I0
sg4
VMatter
p13
sg6
I95
sg7
I100
sa(dp14
g3
I0
sg4
VWilliam
p15
sg6
I128
sg7
I134
sa(dp16
g3
I0
sg4
VMary
p17
sg6
I140
sg7
I143
sa(dp18
g3
I0
sg4
VAmerican
p19
sg6
I185
sg7
I192
sa(dp20
g3
I0
sg4
VCivil
p21
sg6
I194
sg7
I198
sa(dp22
g3
I0
sg4
VLiberties
p23
sg6
I200
sg7
I208
sa(dp24
g3
I0
sg4
VUnion
p25
sg6
I210
sg7
I214
sa(dp26
g3
I0
sg4
VVirginia
p27
sg6
I219
sg7
I226
sa(dp28
g3
I0
sg4
VAmendment.
p29
sg6
I254
sg7
I263
sa(dp30
g3
I0
sg4
VC.L.
p31
sg6
I664
sg7
I667
sa(dp32
g3
I0
sg4
VClaire
p33
sg6
I674
sg7
I679
sa(dp34
g3
I0
sg4
VGasta
p35
sg6
I681
sg7
I685
sa(dp36
g3
I0
sg4
VC.L.
p37
sg6
I936
sg7
I939
sa(dp38
g3
I0
sg4
VHitler
p39
sg6
I958
sg7
I963
sa(dp40
g3
I0
sg4
VC.L.
p41
sg6
I1013
sg7
I1016
sa(dp42
g3
I0
sg4
VCharlottesville
p43
sg6
I1079
sg7
I1093
sa(dp44
g3
I0
sg4
VVa.
p45
sg6
I1095
sg7
I1097
sa(dp46
g3
I0
sg4
VShame
p47
sg6
I1125
sg7
I1129
sa(dp48
g3
I0
sg4
VShame
p49
sg6
I1131
sg7
I1135
sa(dp50
g3
I0
sg4
VShame
p51
sg6
I1137
sg7
I1141
sa(dp52
g3
I0
sg4
VGame
p53
sg6
I1216
sg7
I1219
sa(dp54
g3
I0
sg4
VThrones.
p55
sg6
I1224
sg7
I1231
sa(dp56
g3
I0
sg4
VGasta
p57
sg6
I1233
sg7
I1237
sa(dp58
g3
I0
sg4
VLast
p59
sg6
I1706
sg7
I1709
sa(dp60
g3
I0
sg4
VMilo
p61
sg6
I1740
sg7
I1743
sa(dp62
g3
I0
sg4
VYiannopoulos
p63
sg6
I1745
sg7
I1756
sa(dp64
g3
I0
sg4
VFree
p65
sg6
I1808
sg7
I1811
sa(dp66
g3
I0
sg4
VSpeech
p67
sg6
I1813
sg7
I1818
sa(dp68
g3
I0
sg4
VWeek
p69
sg6
I1820
sg7
I1823
sa(dp70
g3
I0
sg4
VCalifornia
p71
sg6
I1846
sg7
I1855
sa(dp72
g3
I0
sg4
VBerkeley
p73
sg6
I1857
sg7
I1864
sa(dp74
g3
I1
sg4
VBerkeley
p75
sg6
I1996
sg7
I2003
sa(dp76
g3
I0
sg4
VYiannopoulos
p77
sg6
I2039
sg7
I2050
sa(dp78
g3
I0
sg4
VMaoist
p79
sg6
I2152
sg7
I2157
sa(dp80
g3
I0
sg4
VWilliam
p81
sg6
I2255
sg7
I2261
sa(dp82
g3
I0
sg4
VMary
p83
sg6
I2267
sg7
I2270
sa(dp84
g3
I0
sg4
VAmendment.
p85
sg6
I2324
sg7
I2333
sasI2
(lp86
(dp87
g3
I0
sg4
VBlack Lives
p88
sg6
I83
sg7
I93
sa(dp89
g3
I0
sg4
VLives Matter
p90
sg6
I89
sg7
I100
sa(dp91
g3
I0
sg4
VAmerican Civil
p92
sg6
I185
sg7
I198
sa(dp93
g3
I0
sg4
VCivil Liberties
p94
sg6
I194
sg7
I208
sa(dp95
g3
I0
sg4
VLiberties Union
p96
sg6
I200
sg7
I214
sa(dp97
g3
I0
sg4
VA. C.L.
p98
sg6
I661
sg7
I667
sa(dp99
g3
I0
sg4
VC.L. U.
p100
sg6
I664
sg7
I670
sa(dp101
g3
I0
sg4
VClaire Gasta
p102
sg6
I674
sg7
I685
sa(dp103
g3
I0
sg4
VA. C.L.
p104
sg6
I933
sg7
I939
sa(dp105
g3
I0
sg4
VC.L. U.
p106
sg6
I936
sg7
I942
sa(dp107
g3
I0
sg4
VA. C.L.
p108
sg6
I1010
sg7
I1016
sa(dp109
g3
I0
sg4
VC.L. U.
p110
sg6
I1013
sg7
I1019
sa(dp111
g3
I0
sg4
VCharlottesville Va.
p112
sg6
I1079
sg7
I1097
sa(dp113
g3
I0
sg4
VShame Shame
p114
sg6
I1125
sg7
I1135
sa(dp115
g3
I0
sg4
VMilo Yiannopoulos
p116
sg6
I1740
sg7
I1756
sa(dp117
g3
I0
sg4
VFree Speech
p118
sg6
I1808
sg7
I1818
sa(dp119
g3
I0
sg4
VSpeech Week
p120
sg6
I1813
sg7
I1823
sa(dp121
g3
I0
sg4
VCalifornia Berkeley
p122
sg6
I1846
sg7
I1864
sasI3
(lp123
(dp124
g3
I0
sg4
VBlack Lives Matter
p125
sg6
I83
sg7
I100
sa(dp126
g3
I0
sg4
VCollege of William
p127
sg6
I117
sg7
I134
sa(dp128
g3
I0
sg4
VWilliam and Mary
p129
sg6
I128
sg7
I143
sa(dp130
g3
I0
sg4
VAmerican Civil Liberties
p131
sg6
I185
sg7
I208
sa(dp132
g3
I0
sg4
VCivil Liberties Union
p133
sg6
I194
sg7
I214
sa(dp134
g3
I0
sg4
VUnion of Virginia
p135
sg6
I210
sg7
I226
sa(dp136
g3
I0
sg4
VA. C.L. U.
p137
sg6
I661
sg7
I670
sa(dp138
g3
I0
sg4
VA. C.L. U.
p139
sg6
I933
sg7
I942
sa(dp140
g3
I0
sg4
VA. C.L. U.
p141
sg6
I1010
sg7
I1019
sa(dp142
g3
I0
sg4
VGame of Thrones.
p143
sg6
I1216
sg7
I1231
sa(dp144
g3
I0
sg4
VFree Speech Week
p145
sg6
I1808
sg7
I1823
sa(dp146
g3
I0
sg4
VUniversity of California
p147
sg6
I1832
sg7
I1855
sa(dp148
g3
I0
sg4
VWilliam and Mary
p149
sg6
I2255
sg7
I2270
sasI4
(lp150
(dp151
g3
I0
sg4
VAmerican Civil Liberties Union
p152
sg6
I185
sg7
I214
sa(dp153
g3
I0
sg4
VLiberties Union of Virginia
p154
sg6
I200
sg7
I226
sa(dp155
g3
I1
sg4
VUniversity of California Berkeley
p156
sg6
I1832
sg7
I1864
sasI5
(lp157
(dp158
g3
I1
sg4
VCollege of William and Mary
p159
sg6
I117
sg7
I143
sa(dp160
g3
I0
sg4
VCivil Liberties Union of Virginia
p161
sg6
I194
sg7
I226
sasI6
(lp162
(dp163
g3
I0
sg4
VAmerican Civil Liberties Union of Virginia
p164
sg6
I185
sg7
I226
sas.