(dp0
I1
(lp1
(dp2
S'label'
p3
I0
sS'string'
p4
VLONDON
p5
sS'start_index'
p6
I0
sS'end_index'
p7
I5
sa(dp8
g3
I0
sg4
VTransgender
p9
sg6
I7
sg7
I17
sa(dp10
g3
I0
sg4
VCambridge
p11
sg6
I95
sg7
I103
sa(dp12
g3
I0
sg4
VMurray
p13
sg6
I254
sg7
I259
sa(dp14
g3
I0
sg4
VEdwards
p15
sg6
I261
sg7
I267
sa(dp16
g3
I0
sg4
VClare
p17
sg6
I345
sg7
I349
sa(dp18
g3
I0
sg4
VStroud.
p19
sg6
I351
sg7
I357
sa(dp20
g3
I0
sg4
VBarbara
p21
sg6
I381
sg7
I387
sa(dp22
g3
I0
sg4
VStocking
p23
sg6
I389
sg7
I396
sasI2
(lp24
(dp25
g3
I0
sg4
VLONDON Transgender
p26
sg6
I0
sg7
I17
sa(dp27
g3
I1
sg4
VCambridge University
p28
sg6
I95
sg7
I114
sa(dp29
g3
I0
sg4
VMurray Edwards
p30
sg6
I254
sg7
I267
sa(dp31
g3
I0
sg4
VEdwards College
p32
sg6
I261
sg7
I275
sa(dp33
g3
I0
sg4
VClare Stroud.
p34
sg6
I345
sg7
I357
sa(dp35
g3
I0
sg4
VBarbara Stocking
p36
sg6
I381
sg7
I396
sasI3
(lp37
(dp38
g3
I1
sg4
VMurray Edwards College
p39
sg6
I254
sg7
I275
sasI4
(lp40
sI5
(lp41
sI6
(lp42
s.