(dp0
I1
(lp1
(dp2
S'label'
p3
I0
sS'string'
p4
VPromise
p5
sS'start_index'
p6
I8
sS'end_index'
p7
I14
sa(dp8
g3
I0
sg4
VMoyne
p9
sg6
I37
sg7
I41
sa(dp10
g3
I0
sg4
VSyracuse
p11
sg6
I54
sg7
I61
sa(dp12
g3
I0
sg4
VNew
p13
sg6
I79
sg7
I81
sa(dp14
g3
I0
sg4
VYork
p15
sg6
I83
sg7
I86
sa(dp16
g3
I0
sg4
VApplications
p17
sg6
I231
sg7
I242
sa(dp18
g3
I0
sg4
VLinda
p19
sg6
I404
sg7
I408
sa(dp20
g3
I0
sg4
VLeMura
p21
sg6
I410
sg7
I415
sa(dp22
g3
I0
sg4
VExcelsior
p23
sg6
I605
sg7
I613
sa(dp24
g3
I0
sg4
VNed
p25
sg6
I915
sg7
I917
sa(dp26
g3
I0
sg4
VJones
p27
sg6
I919
sg7
I923
sa(dp28
g3
I0
sg4
VSiena
p29
sg6
I972
sg7
I976
sa(dp30
g3
I0
sg4
VExcelsior
p31
sg6
I1029
sg7
I1037
sa(dp32
g3
I0
sg4
VExcelsior
p33
sg6
I1402
sg7
I1410
sa(dp34
g3
I0
sg4
VJones
p35
sg6
I1416
sg7
I1420
sa(dp36
g3
I0
sg4
VAverage
p37
sg6
I1567
sg7
I1573
sa(dp38
g3
I0
sg4
VFees
p39
sg6
I1614
sg7
I1617
sa(dp40
g3
I0
sg4
VFlorida
p41
sg6
I1639
sg7
I1645
sa(dp42
g3
I0
sg4
VInternational
p43
sg6
I1647
sg7
I1659
sa(dp44
g3
I0
sg4
VWells
p45
sg6
I1696
sg7
I1700
sa(dp46
g3
I0
sg4
VFargo
p47
sg6
I1702
sg7
I1706
sa(dp48
g3
I0
sg4
VMinnesota
p49
sg6
I1802
sg7
I1810
sa(dp50
g3
I0
sg4
VTCF
p51
sg6
I1908
sg7
I1910
sa(dp52
g3
I0
sg4
VBank.
p53
sg6
I1912
sg7
I1916
sa(dp54
g3
I0
sg4
VStetson
p55
sg6
I1936
sg7
I1942
sa(dp56
g3
I0
sg4
VChris
p57
sg6
I2282
sg7
I2286
sa(dp58
g3
I0
sg4
VMoon
p59
sg6
I2288
sg7
I2291
sa(dp60
g3
I0
sg4
VValuePenguin.
p61
sg6
I2341
sg7
I2353
sa(dp62
g3
I0
sg4
VUsing
p63
sg6
I2355
sg7
I2359
sa(dp64
g3
I0
sg4
VT.M.
p65
sg6
I2525
sg7
I2528
sa(dp66
g3
I0
sg4
VDon
p67
sg6
I2706
sg7
I2708
sa(dp68
g3
I0
sg4
VLook
p69
sg6
I2857
sg7
I2860
sa(dp70
g3
I0
sg4
VT.M.
p71
sg6
I2965
sg7
I2968
sa(dp72
g3
I0
sg4
VMoon
p73
sg6
I2976
sg7
I2979
sa(dp74
g3
I0
sg4
VVenmo
p75
sg6
I3047
sg7
I3051
sa(dp76
g3
I0
sg4
VBig
p77
sg6
I3105
sg7
I3107
sa(dp78
g3
I0
sg4
VChase
p79
sg6
I3120
sg7
I3124
sa(dp80
g3
I0
sg4
VWells
p81
sg6
I3130
sg7
I3134
sa(dp82
g3
I0
sg4
VFargo
p83
sg6
I3136
sg7
I3140
sa(dp84
g3
I0
sg4
VMonthly
p85
sg6
I3453
sg7
I3459
sa(dp86
g3
I0
sg4
VValuePenguin
p87
sg6
I3503
sg7
I3514
sa(dp88
g3
I0
sg4
VConsumer
p89
sg6
I3644
sg7
I3651
sa(dp90
g3
I0
sg4
VFinancial
p91
sg6
I3653
sg7
I3661
sa(dp92
g3
I0
sg4
VProtection
p93
sg6
I3663
sg7
I3672
sa(dp94
g3
I0
sg4
VBureau
p95
sg6
I3674
sg7
I3679
sa(dp96
g3
I0
sg4
VFrotman
p97
sg6
I3944
sg7
I3950
sa(dp98
g3
I0
sg4
VCan
p99
sg6
I4260
sg7
I4262
sa(dp100
g3
I0
sg4
VCard
p101
sg6
I4484
sg7
I4487
sasI2
(lp102
(dp103
g3
I0
sg4
VPromise NY
p104
sg6
I8
sg7
I17
sa(dp105
g3
I0
sg4
VLe Moyne
p106
sg6
I34
sg7
I41
sa(dp107
g3
I0
sg4
VMoyne College
p108
sg6
I37
sg7
I49
sa(dp109
g3
I0
sg4
VNew York
p110
sg6
I79
sg7
I86
sa(dp111
g3
I0
sg4
VLinda LeMura
p112
sg6
I404
sg7
I415
sa(dp113
g3
I0
sg4
VNed Jones
p114
sg6
I915
sg7
I923
sa(dp115
g3
I1
sg4
VSiena College
p116
sg6
I972
sg7
I984
sa(dp117
g3
I0
sg4
VFlorida International
p118
sg6
I1639
sg7
I1659
sa(dp119
g3
I0
sg4
VInternational University
p120
sg6
I1647
sg7
I1670
sa(dp121
g3
I0
sg4
VWells Fargo
p122
sg6
I1696
sg7
I1706
sa(dp123
g3
I0
sg4
VTCF Bank.
p124
sg6
I1908
sg7
I1916
sa(dp125
g3
I1
sg4
VStetson University
p126
sg6
I1936
sg7
I1953
sa(dp127
g3
I0
sg4
VChris Moon
p128
sg6
I2282
sg7
I2291
sa(dp129
g3
I0
sg4
VA. T.M.
p130
sg6
I2522
sg7
I2528
sa(dp131
g3
I0
sg4
VA. T.M.
p132
sg6
I2962
sg7
I2968
sa(dp133
g3
I0
sg4
VWells Fargo
p134
sg6
I3130
sg7
I3140
sa(dp135
g3
I0
sg4
VConsumer Financial
p136
sg6
I3644
sg7
I3661
sa(dp137
g3
I0
sg4
VFinancial Protection
p138
sg6
I3653
sg7
I3672
sa(dp139
g3
I0
sg4
VProtection Bureau
p140
sg6
I3663
sg7
I3679
sasI3
(lp141
(dp142
g3
I1
sg4
VLe Moyne College
p143
sg6
I34
sg7
I49
sa(dp144
g3
I1
sg4
VFlorida International University
p145
sg6
I1639
sg7
I1670
sa(dp146
g3
I1
sg4
VUniversity of Minnesota
p147
sg6
I1788
sg7
I1810
sa(dp148
g3
I0
sg4
VChase and Wells
p149
sg6
I3120
sg7
I3134
sa(dp150
g3
I0
sg4
VConsumer Financial Protection
p151
sg6
I3644
sg7
I3672
sa(dp152
g3
I0
sg4
VFinancial Protection Bureau
p153
sg6
I3653
sg7
I3679
sasI4
(lp154
(dp155
g3
I0
sg4
VChase and Wells Fargo
p156
sg6
I3120
sg7
I3140
sa(dp157
g3
I0
sg4
VConsumer Financial Protection Bureau
p158
sg6
I3644
sg7
I3679
sasI5
(lp159
sI6
(lp160
s.