(dp0
I1
(lp1
(dp2
S'label'
p3
I0
sS'string'
p4
VWesleyan
p5
sS'start_index'
p6
I198
sS'end_index'
p7
I205
sa(dp8
g3
I0
sg4
VGeorgetown
p9
sg6
I393
sg7
I402
sa(dp10
g3
I0
sg4
VGrigoriadis
p11
sg6
I702
sg7
I712
sa(dp12
g3
I0
sg4
VMan
p13
sg6
I990
sg7
I992
sa(dp14
g3
I0
sg4
VSuddenly
p15
sg6
I1145
sg7
I1152
sa(dp16
g3
I0
sg4
VBlurred
p17
sg6
I1191
sg7
I1197
sa(dp18
g3
I0
sg4
VLines
p19
sg6
I1199
sg7
I1203
sa(dp20
g3
I0
sg4
VGrigoriadis
p21
sg6
I1243
sg7
I1253
sa(dp22
g3
I0
sg4
VJack
p23
sg6
I1364
sg7
I1367
sa(dp24
g3
I0
sg4
VRivlin
p25
sg6
I1369
sg7
I1374
sa(dp26
g3
I0
sg4
VTab
p27
sg6
I1388
sg7
I1390
sa(dp28
g3
I0
sg4
VMedia
p29
sg6
I1392
sg7
I1396
sa(dp30
g3
I0
sg4
VCambridge
p31
sg6
I1413
sg7
I1421
sa(dp32
g3
I0
sg4
VNew
p33
sg6
I1483
sg7
I1485
sa(dp34
g3
I0
sg4
VYork
p35
sg6
I1487
sg7
I1490
sa(dp36
g3
I0
sg4
VLondon
p37
sg6
I1496
sg7
I1501
sa(dp38
g3
I0
sg4
VMTV.
p39
sg6
I1568
sg7
I1571
sa(dp40
g3
I0
sg4
VOther
p41
sg6
I1573
sg7
I1577
sa(dp42
g3
I0
sg4
VRivlin
p43
sg6
I1615
sg7
I1620
sa(dp44
g3
I0
sg4
VTab
p45
sg6
I1717
sg7
I1719
sa(dp46
g3
I0
sg4
VWilliamsburg
p47
sg6
I1723
sg7
I1734
sa(dp48
g3
I0
sg4
VLondon
p49
sg6
I1762
sg7
I1767
sa(dp50
g3
I0
sg4
VShoreditch
p51
sg6
I1771
sg7
I1780
sa(dp52
g3
I0
sg4
VPennsylvania
p53
sg6
I1842
sg7
I1853
sa(dp54
g3
I0
sg4
VState
p55
sg6
I1855
sg7
I1859
sa(dp56
g3
I0
sg4
VDream
p57
sg6
I1943
sg7
I1947
sa(dp58
g3
I0
sg4
VAct
p59
sg6
I1949
sg7
I1951
sasI2
(lp60
(dp61
g3
I1
sg4
VWesleyan University
p62
sg6
I198
sg7
I216
sa(dp63
g3
I1
sg4
VGeorgetown University
p64
sg6
I393
sg7
I413
sa(dp65
g3
I0
sg4
VBlurred Lines
p66
sg6
I1191
sg7
I1203
sa(dp67
g3
I0
sg4
VJack Rivlin
p68
sg6
I1364
sg7
I1374
sa(dp69
g3
I0
sg4
VTab Media
p70
sg6
I1388
sg7
I1396
sa(dp71
g3
I1
sg4
VCambridge University
p72
sg6
I1413
sg7
I1432
sa(dp73
g3
I0
sg4
VNew York
p74
sg6
I1483
sg7
I1490
sa(dp75
g3
I0
sg4
VPennsylvania State
p76
sg6
I1842
sg7
I1859
sa(dp77
g3
I0
sg4
VState University
p78
sg6
I1855
sg7
I1870
sa(dp79
g3
I0
sg4
VDream Act
p80
sg6
I1943
sg7
I1951
sasI3
(lp81
(dp82
g3
I0
sg4
VYork and London
p83
sg6
I1487
sg7
I1501
sa(dp84
g3
I1
sg4
VPennsylvania State University
p85
sg6
I1842
sg7
I1870
sasI4
(lp86
(dp87
g3
I0
sg4
VNew York and London
p88
sg6
I1483
sg7
I1501
sasI5
(lp89
sI6
(lp90
s.