(dp0
I1
(lp1
(dp2
S'label'
p3
I0
sS'string'
p4
VFoster
p5
sS'start_index'
p6
I125
sS'end_index'
p7
I130
sa(dp8
g3
I0
sg4
VNew
p9
sg6
I324
sg7
I326
sa(dp10
g3
I0
sg4
VHall
p11
sg6
I328
sg7
I331
sa(dp12
g3
I0
sg4
VTilda
p13
sg6
I356
sg7
I360
sa(dp14
g3
I0
sg4
VSwinton
p15
sg6
I362
sg7
I368
sa(dp16
g3
I0
sg4
VSue
p17
sg6
I387
sg7
I389
sa(dp18
g3
I0
sg4
VPerkins
p19
sg6
I391
sg7
I397
sa(dp20
g3
I0
sg4
VCambridge
p21
sg6
I489
sg7
I497
sa(dp22
g3
I0
sg4
VNewnham
p23
sg6
I673
sg7
I679
sa(dp24
g3
I0
sg4
VLucy
p25
sg6
I693
sg7
I696
sa(dp26
g3
I0
sg4
VCavendish
p27
sg6
I698
sg7
I706
sa(dp28
g3
I0
sg4
VCollege.
p29
sg6
I708
sg7
I715
sa(dp30
g3
I0
sg4
VRepresentatives
p31
sg6
I717
sg7
I731
sa(dp32
g3
I0
sg4
VWednesday.
p33
sg6
I797
sg7
I806
sa(dp34
g3
I0
sg4
VGermaine
p35
sg6
I808
sg7
I815
sa(dp36
g3
I0
sg4
VGreer
p37
sg6
I817
sg7
I821
sa(dp38
g3
I0
sg4
VNewnham
p39
sg6
I868
sg7
I874
sa(dp40
g3
I0
sg4
VMurray
p41
sg6
I968
sg7
I973
sa(dp42
g3
I0
sg4
VEdwards.
p43
sg6
I975
sg7
I982
sasI2
(lp44
(dp45
g3
I0
sg4
VNew Hall
p46
sg6
I324
sg7
I331
sa(dp47
g3
I0
sg4
VTilda Swinton
p48
sg6
I356
sg7
I368
sa(dp49
g3
I0
sg4
VSue Perkins
p50
sg6
I387
sg7
I397
sa(dp51
g3
I1
sg4
VNewnham College
p52
sg6
I673
sg7
I687
sa(dp53
g3
I0
sg4
VLucy Cavendish
p54
sg6
I693
sg7
I706
sa(dp55
g3
I0
sg4
VCavendish College.
p56
sg6
I698
sg7
I715
sa(dp57
g3
I0
sg4
VGermaine Greer
p58
sg6
I808
sg7
I821
sa(dp59
g3
I1
sg4
VNewnham College
p60
sg6
I868
sg7
I882
sa(dp61
g3
I1
sg4
VMurray Edwards.
p62
sg6
I968
sg7
I982
sasI3
(lp63
(dp64
g3
I1
sg4
VUniversity of Cambridge
p65
sg6
I475
sg7
I497
sa(dp66
g3
I0
sg4
VCollege and Lucy
p67
sg6
I681
sg7
I696
sa(dp68
g3
I1
sg4
VLucy Cavendish College.
p69
sg6
I693
sg7
I715
sasI4
(lp70
(dp71
g3
I0
sg4
VNewnham College and Lucy
p72
sg6
I673
sg7
I696
sa(dp73
g3
I0
sg4
VCollege and Lucy Cavendish
p74
sg6
I681
sg7
I706
sasI5
(lp75
(dp76
g3
I0
sg4
VNewnham College and Lucy Cavendish
p77
sg6
I673
sg7
I706
sa(dp78
g3
I0
sg4
VCollege and Lucy Cavendish College.
p79
sg6
I681
sg7
I715
sasI6
(lp80
(dp81
g3
I0
sg4
VNewnham College and Lucy Cavendish College.
p82
sg6
I673
sg7
I715
sas.