(dp0
I1
(lp1
(dp2
S'label'
p3
I0
sS'string'
p4
VTelegraph
p5
sS'start_index'
p6
I25
sS'end_index'
p7
I33
sa(dp8
g3
I0
sg4
VGreer
p9
sg6
I39
sg7
I43
sa(dp10
g3
I0
sg4
VMurray
p11
sg6
I321
sg7
I326
sa(dp12
g3
I0
sg4
VEdwards
p13
sg6
I328
sg7
I334
sa(dp14
g3
I0
sg4
VBarnard
p15
sg6
I454
sg7
I460
sa(dp16
g3
I0
sg4
VColumbia
p17
sg6
I487
sg7
I494
sa(dp18
g3
I0
sg4
VNew
p19
sg6
I510
sg7
I512
sa(dp20
g3
I0
sg4
VYork
p21
sg6
I514
sg7
I517
sasI2
(lp22
(dp23
g3
I0
sg4
VMurray Edwards
p24
sg6
I321
sg7
I334
sa(dp25
g3
I0
sg4
VEdwards College
p26
sg6
I328
sg7
I342
sa(dp27
g3
I1
sg4
VBarnard College
p28
sg6
I454
sg7
I468
sa(dp29
g3
I1
sg4
VColumbia University
p30
sg6
I487
sg7
I505
sa(dp31
g3
I0
sg4
VNew York
p32
sg6
I510
sg7
I517
sasI3
(lp33
(dp34
g3
I1
sg4
VMurray Edwards College
p35
sg6
I321
sg7
I342
sasI4
(lp36
sI5
(lp37
sI6
(lp38
s.