(dp0
I1
(lp1
(dp2
S'label'
p3
I0
sS'string'
p4
VBarnard
p5
sS'start_index'
p6
I0
sS'end_index'
p7
I6
sa(dp8
g3
I0
sg4
VDiscussion
p9
sg6
I27
sg7
I36
sa(dp10
g3
I0
sg4
VDecides
p11
sg6
I38
sg7
I44
sa(dp12
g3
I0
sg4
VAccept
p13
sg6
I49
sg7
I54
sa(dp14
g3
I0
sg4
VTransgender
p15
sg6
I56
sg7
I66
sa(dp16
g3
I0
sg4
VWomen
p17
sg6
I68
sg7
I72
sasI2
(lp18
(dp19
g3
I1
sg4
VBarnard College
p20
sg6
I0
sg7
I14
sa(dp21
g3
I0
sg4
VDiscussion Decides
p22
sg6
I27
sg7
I44
sa(dp23
g3
I0
sg4
VAccept Transgender
p24
sg6
I49
sg7
I66
sa(dp25
g3
I0
sg4
VTransgender Women
p26
sg6
I56
sg7
I72
sasI3
(lp27
(dp28
g3
I0
sg4
VAccept Transgender Women
p29
sg6
I49
sg7
I72
sasI4
(lp30
sI5
(lp31
sI6
(lp32
s.