(dp0
I1
(lp1
(dp2
S'label'
p3
I0
sS'string'
p4
VC.A.
p5
sS'start_index'
p6
I7
sS'end_index'
p7
I10
sa(dp8
g3
I0
sg4
VLast
p9
sg6
I50
sg7
I53
sa(dp10
g3
I0
sg4
VC.A.
p11
sg6
I376
sg7
I379
sa(dp12
g3
I1
sg4
VUCLA
p13
sg6
I628
sg7
I631
sa(dp14
g3
I0
sg4
VOhio
p15
sg6
I633
sg7
I636
sa(dp16
g3
I0
sg4
VState
p17
sg6
I638
sg7
I642
sa(dp18
g3
I1
sg4
VTexas
p19
sg6
I648
sg7
I652
sa(dp20
g3
I0
sg4
VAdidas
p21
sg6
I703
sg7
I708
sa(dp22
g3
I0
sg4
VNike
p23
sg6
I713
sg7
I716
sa(dp24
g3
I0
sg4
VAdidas
p25
sg6
I749
sg7
I754
sa(dp26
g3
I0
sg4
VNike
p27
sg6
I759
sg7
I762
sasI2
(lp28
(dp29
g3
I0
sg4
VN. C.A.
p30
sg6
I4
sg7
I10
sa(dp31
g3
I0
sg4
VC.A. A.
p32
sg6
I7
sg7
I13
sa(dp33
g3
I0
sg4
VN. C.A.
p34
sg6
I373
sg7
I379
sa(dp35
g3
I0
sg4
VC.A. A.
p36
sg6
I376
sg7
I382
sa(dp37
g3
I0
sg4
VUCLA Ohio
p38
sg6
I628
sg7
I636
sa(dp39
g3
I1
sg4
VOhio State
p40
sg6
I633
sg7
I642
sasI3
(lp41
(dp42
g3
I0
sg4
VN. C.A. A.
p43
sg6
I4
sg7
I13
sa(dp44
g3
I0
sg4
VN. C.A. A.
p45
sg6
I373
sg7
I382
sa(dp46
g3
I0
sg4
VUCLA Ohio State
p47
sg6
I628
sg7
I642
sa(dp48
g3
I0
sg4
VState and Texas
p49
sg6
I638
sg7
I652
sasI4
(lp50
(dp51
g3
I0
sg4
VOhio State and Texas
p52
sg6
I633
sg7
I652
sasI5
(lp53
(dp54
g3
I0
sg4
VUCLA Ohio State and Texas
p55
sg6
I628
sg7
I652
sasI6
(lp56
s.