(dp0
I1
(lp1
(dp2
S'label'
p3
I0
sS'string'
p4
VMacalester
p5
sS'start_index'
p6
I23
sS'end_index'
p7
I32
sasI2
(lp8
(dp9
g3
I1
sg4
VMacalester College
p10
sg6
I23
sg7
I40
sasI3
(lp11
sI4
(lp12
sI5
(lp13
sI6
(lp14
s.