(dp0
I1
(lp1
(dp2
S'label'
p3
I0
sS'string'
p4
VC.A.
p5
sS'start_index'
p6
I39
sS'end_index'
p7
I42
sa(dp8
g3
I0
sg4
VC.A.
p9
sg6
I129
sg7
I132
sa(dp10
g3
I0
sg4
VModeling
p11
sg6
I175
sg7
I182
sa(dp12
g3
I0
sg4
VOther
p13
sg6
I188
sg7
I192
sa(dp14
g3
I0
sg4
VNonathletically
p15
sg6
I194
sg7
I208
sa(dp16
g3
I0
sg4
VRelated
p17
sg6
I210
sg7
I216
sa(dp18
g3
I0
sg4
VPromotional
p19
sg6
I218
sg7
I228
sa(dp20
g3
I0
sg4
VActivities
p21
sg6
I230
sg7
I239
sa(dp22
g3
I0
sg4
VFacebook
p23
sg6
I686
sg7
I693
sa(dp24
g3
I0
sg4
VFacebook
p25
sg6
I712
sg7
I719
sa(dp26
g3
I0
sg4
VPresumably
p27
sg6
I784
sg7
I793
sa(dp28
g3
I0
sg4
VDivision
p29
sg6
I861
sg7
I868
sa(dp30
g3
I0
sg4
VDivision
p31
sg6
I895
sg7
I902
sa(dp32
g3
I0
sg4
VIII
p33
sg6
I904
sg7
I906
sa(dp34
g3
I1
sg4
VMacalester
p35
sg6
I921
sg7
I930
sa(dp36
g3
I0
sg4
VC.A.
p37
sg6
I1016
sg7
I1019
sa(dp38
g3
I0
sg4
VHeisman
p39
sg6
I1046
sg7
I1052
sa(dp40
g3
I0
sg4
VTrophy
p41
sg6
I1054
sg7
I1059
sa(dp42
g3
I0
sg4
VKentucky
p43
sg6
I1137
sg7
I1144
sa(dp44
g3
I0
sg4
VC.A.
p45
sg6
I1445
sg7
I1448
sa(dp46
g3
I0
sg4
VIowa
p47
sg6
I1686
sg7
I1689
sa(dp48
g3
I0
sg4
VC.A.
p49
sg6
I1781
sg7
I1784
sa(dp50
g3
I0
sg4
VTexas
p51
sg6
I1936
sg7
I1940
sa(dp52
g3
I0
sg4
VA&M
p53
sg6
I1942
sg7
I1944
sa(dp54
g3
I0
sg4
VYouTube
p55
sg6
I1998
sg7
I2004
sa(dp56
g3
I0
sg4
VC.A.
p57
sg6
I2090
sg7
I2093
sa(dp58
g3
I0
sg4
VAmerican
p59
sg6
I2151
sg7
I2158
sa(dp60
g3
I0
sg4
VFacebook
p61
sg6
I2566
sg7
I2573
sa(dp62
g3
I0
sg4
VBylaw
p63
sg6
I2667
sg7
I2671
sa(dp64
g3
I0
sg4
VGiven
p65
sg6
I2699
sg7
I2703
sa(dp66
g3
I0
sg4
VC.A.
p67
sg6
I2812
sg7
I2815
sa(dp68
g3
I0
sg4
VC.A.
p69
sg6
I3049
sg7
I3052
sasI2
(lp70
(dp71
g3
I0
sg4
VN. C.A.
p72
sg6
I36
sg7
I42
sa(dp73
g3
I0
sg4
VC.A. A.
p74
sg6
I39
sg7
I45
sa(dp75
g3
I0
sg4
VN. C.A.
p76
sg6
I126
sg7
I132
sa(dp77
g3
I0
sg4
VC.A. A.
p78
sg6
I129
sg7
I135
sa(dp79
g3
I0
sg4
VOther Nonathletically
p80
sg6
I188
sg7
I208
sa(dp81
g3
I0
sg4
VNonathletically Related
p82
sg6
I194
sg7
I216
sa(dp83
g3
I0
sg4
VRelated Promotional
p84
sg6
I210
sg7
I228
sa(dp85
g3
I0
sg4
VPromotional Activities
p86
sg6
I218
sg7
I239
sa(dp87
g3
I0
sg4
VDivision III
p88
sg6
I895
sg7
I906
sa(dp89
g3
I0
sg4
VN. C.A.
p90
sg6
I1013
sg7
I1019
sa(dp91
g3
I0
sg4
VC.A. A.
p92
sg6
I1016
sg7
I1022
sa(dp93
g3
I0
sg4
VHeisman Trophy
p94
sg6
I1046
sg7
I1059
sa(dp95
g3
I0
sg4
VN. C.A.
p96
sg6
I1442
sg7
I1448
sa(dp97
g3
I0
sg4
VC.A. A.
p98
sg6
I1445
sg7
I1451
sa(dp99
g3
I0
sg4
VN. C.A.
p100
sg6
I1778
sg7
I1784
sa(dp101
g3
I0
sg4
VC.A. A.
p102
sg6
I1781
sg7
I1787
sa(dp103
g3
I1
sg4
VTexas A&M
p104
sg6
I1936
sg7
I1944
sa(dp105
g3
I0
sg4
VN. C.A.
p106
sg6
I2087
sg7
I2093
sa(dp107
g3
I0
sg4
VC.A. A.
p108
sg6
I2090
sg7
I2096
sa(dp109
g3
I0
sg4
VN. C.A.
p110
sg6
I2809
sg7
I2815
sa(dp111
g3
I0
sg4
VC.A. A.
p112
sg6
I2812
sg7
I2818
sa(dp113
g3
I0
sg4
VN. C.A.
p114
sg6
I3046
sg7
I3052
sa(dp115
g3
I0
sg4
VC.A. A.
p116
sg6
I3049
sg7
I3055
sasI3
(lp117
(dp118
g3
I0
sg4
VN. C.A. A.
p119
sg6
I36
sg7
I45
sa(dp120
g3
I0
sg4
VN. C.A. A.
p121
sg6
I126
sg7
I135
sa(dp122
g3
I0
sg4
VModeling and Other
p123
sg6
I175
sg7
I192
sa(dp124
g3
I0
sg4
VOther Nonathletically Related
p125
sg6
I188
sg7
I216
sa(dp126
g3
I0
sg4
VNonathletically Related Promotional
p127
sg6
I194
sg7
I228
sa(dp128
g3
I0
sg4
VRelated Promotional Activities
p129
sg6
I210
sg7
I239
sa(dp130
g3
I0
sg4
VN. C.A. A.
p131
sg6
I1013
sg7
I1022
sa(dp132
g3
I1
sg4
VUniversity of Kentucky
p133
sg6
I1123
sg7
I1144
sa(dp134
g3
I0
sg4
VN. C.A. A.
p135
sg6
I1442
sg7
I1451
sa(dp136
g3
I1
sg4
VUniversity of Iowa
p137
sg6
I1672
sg7
I1689
sa(dp138
g3
I0
sg4
VN. C.A. A.
p139
sg6
I1778
sg7
I1787
sa(dp140
g3
I0
sg4
VN. C.A. A.
p141
sg6
I2087
sg7
I2096
sa(dp142
g3
I0
sg4
VN. C.A. A.
p143
sg6
I2809
sg7
I2818
sa(dp144
g3
I0
sg4
VN. C.A. A.
p145
sg6
I3046
sg7
I3055
sasI4
(lp146
(dp147
g3
I0
sg4
VModeling and Other Nonathletically
p148
sg6
I175
sg7
I208
sa(dp149
g3
I0
sg4
VOther Nonathletically Related Promotional
p150
sg6
I188
sg7
I228
sa(dp151
g3
I0
sg4
VNonathletically Related Promotional Activities
p152
sg6
I194
sg7
I239
sasI5
(lp153
(dp154
g3
I0
sg4
VModeling and Other Nonathletically Related
p155
sg6
I175
sg7
I216
sa(dp156
g3
I0
sg4
VOther Nonathletically Related Promotional Activities
p157
sg6
I188
sg7
I239
sasI6
(lp158
(dp159
g3
I0
sg4
VModeling and Other Nonathletically Related Promotional
p160
sg6
I175
sg7
I228
sas.