(dp0
I1
(lp1
(dp2
S'label'
p3
I0
sS'string'
p4
VColumbia
p5
sS'start_index'
p6
I98
sS'end_index'
p7
I105
sa(dp8
g3
I0
sg4
VAccording
p9
sg6
I252
sg7
I260
sa(dp10
g3
I0
sg4
VManhattan
p11
sg6
I291
sg7
I299
sa(dp12
g3
I0
sg4
VWilliam
p13
sg6
I356
sg7
I362
sa(dp14
g3
I0
sg4
VHarris
p15
sg6
I367
sg7
I372
sa(dp16
g3
I0
sg4
VGreco
p17
sg6
I390
sg7
I394
sa(dp18
g3
I0
sg4
VRoman
p19
sg6
I396
sg7
I400
sa(dp20
g3
I0
sg4
VJane
p21
sg6
I533
sg7
I536
sa(dp22
g3
I0
sg4
VDoe
p23
sg6
I538
sg7
I540
sa(dp24
g3
I0
sg4
VHarris
p25
sg6
I555
sg7
I560
sa(dp26
g3
I0
sg4
VHarris
p27
sg6
I851
sg7
I856
sa(dp28
g3
I1
sg4
VColumbia
p29
sg6
I1043
sg7
I1050
sa(dp30
g3
I0
sg4
VHarris
p31
sg6
I1091
sg7
I1096
sasI2
(lp32
(dp33
g3
I1
sg4
VColumbia University
p34
sg6
I98
sg7
I116
sa(dp35
g3
I0
sg4
VWilliam V.
p36
sg6
I356
sg7
I365
sa(dp37
g3
I0
sg4
VV. Harris
p38
sg6
I364
sg7
I372
sa(dp39
g3
I0
sg4
VGreco Roman
p40
sg6
I390
sg7
I400
sa(dp41
g3
I0
sg4
VJane Doe
p42
sg6
I533
sg7
I540
sasI3
(lp43
(dp44
g3
I0
sg4
VWilliam V. Harris
p45
sg6
I356
sg7
I372
sasI4
(lp46
sI5
(lp47
sI6
(lp48
s.