(dp0
I1
(lp1
(dp2
S'label'
p3
I0
sS'string'
p4
VHarris
p5
sS'start_index'
p6
I4
sS'end_index'
p7
I9
sa(dp8
g3
I1
sg4
VColumbia
p9
sg6
I34
sg7
I41
sasI2
(lp10
sI3
(lp11
sI4
(lp12
sI5
(lp13
sI6
(lp14
s.