(dp0
I1
(lp1
(dp2
S'label'
p3
I0
sS'string'
p4
VTab
p5
sS'start_index'
p6
I4
sS'end_index'
p7
I6
sa(dp8
g3
I0
sg4
VOdyssey
p9
sg6
I70
sg7
I76
sa(dp10
g3
I0
sg4
VOnline
p11
sg6
I78
sg7
I83
sa(dp12
g3
I0
sg4
VIndiana
p13
sg6
I99
sg7
I105
sa(dp14
g3
I0
sg4
VSpoon
p15
sg6
I188
sg7
I192
sa(dp16
g3
I0
sg4
VScripps
p17
sg6
I232
sg7
I238
sa(dp18
g3
I0
sg4
VNetworks
p19
sg6
I240
sg7
I247
sa(dp20
g3
I0
sg4
VInteractive
p21
sg6
I249
sg7
I259
sa(dp22
g3
I0
sg4
VEager
p23
sg6
I347
sg7
I351
sa(dp24
g3
I0
sg4
VTafesh
p25
sg6
I366
sg7
I371
sa(dp26
g3
I0
sg4
VHope
p27
sg6
I387
sg7
I390
sa(dp28
g3
I0
sg4
VFund
p29
sg6
I392
sg7
I395
sa(dp30
g3
I0
sg4
VAmerican
p31
sg6
I438
sg7
I445
sa(dp32
g3
I0
sg4
VPalestinian
p33
sg6
I469
sg7
I479
sa(dp34
g3
I0
sg4
VWilson
p35
sg6
I548
sg7
I553
sa(dp36
g3
I0
sg4
VUnited
p37
sg6
I628
sg7
I633
sa(dp38
g3
I0
sg4
VStates
p39
sg6
I635
sg7
I640
sa(dp40
g3
I0
sg4
VIsraeli
p41
sg6
I712
sg7
I718
sa(dp42
g3
I0
sg4
VGaza.
p43
sg6
I741
sg7
I745
sa(dp44
g3
I0
sg4
VState
p45
sg6
I789
sg7
I793
sa(dp46
g3
I0
sg4
VDepartment
p47
sg6
I795
sg7
I804
sa(dp48
g3
I0
sg4
VFulbright
p49
sg6
I815
sg7
I823
sa(dp50
g3
I0
sg4
VPalestinian
p51
sg6
I843
sg7
I853
sa(dp52
g3
I0
sg4
VGaza
p53
sg6
I867
sg7
I870
sa(dp54
g3
I0
sg4
VIsrael.
p55
sg6
I918
sg7
I924
sa(dp56
g3
I0
sg4
VAccording
p57
sg6
I926
sg7
I934
sa(dp58
g3
I0
sg4
VGisha
p59
sg6
I939
sg7
I943
sa(dp60
g3
I0
sg4
VGaza
p61
sg6
I977
sg7
I980
sa(dp62
g3
I0
sg4
VLast
p63
sg6
I1023
sg7
I1026
sa(dp64
g3
I0
sg4
VPalestinian
p65
sg6
I1037
sg7
I1047
sa(dp66
g3
I0
sg4
VCivil
p67
sg6
I1049
sg7
I1053
sa(dp68
g3
I0
sg4
VAffairs
p69
sg6
I1055
sg7
I1061
sa(dp70
g3
I0
sg4
VCommittee
p71
sg6
I1063
sg7
I1071
sa(dp72
g3
I0
sg4
VIsrael.
p73
sg6
I1218
sg7
I1224
sa(dp74
g3
I0
sg4
VPermit
p75
sg6
I1226
sg7
I1231
sa(dp76
g3
I0
sg4
VIsraeli
p77
sg6
I1263
sg7
I1269
sa(dp78
g3
I0
sg4
VPalestinians
p79
sg6
I1486
sg7
I1497
sasI2
(lp80
(dp81
g3
I0
sg4
VOdyssey Online
p82
sg6
I70
sg7
I83
sa(dp83
g3
I1
sg4
VIndiana University
p84
sg6
I99
sg7
I116
sa(dp85
g3
I1
sg4
VSpoon University
p86
sg6
I188
sg7
I203
sa(dp87
g3
I0
sg4
VScripps Networks
p88
sg6
I232
sg7
I247
sa(dp89
g3
I0
sg4
VNetworks Interactive
p90
sg6
I240
sg7
I259
sa(dp91
g3
I0
sg4
VHope Fund
p92
sg6
I387
sg7
I395
sa(dp93
g3
I1
sg4
VWilson College
p94
sg6
I548
sg7
I561
sa(dp95
g3
I0
sg4
VUnited States
p96
sg6
I628
sg7
I640
sa(dp97
g3
I0
sg4
VState Department
p98
sg6
I789
sg7
I804
sa(dp99
g3
I0
sg4
VPalestinian Civil
p100
sg6
I1037
sg7
I1053
sa(dp101
g3
I0
sg4
VCivil Affairs
p102
sg6
I1049
sg7
I1061
sa(dp103
g3
I0
sg4
VAffairs Committee
p104
sg6
I1055
sg7
I1071
sasI3
(lp105
(dp106
g3
I0
sg4
VScripps Networks Interactive
p107
sg6
I232
sg7
I259
sa(dp108
g3
I0
sg4
VPalestinian Civil Affairs
p109
sg6
I1037
sg7
I1061
sa(dp110
g3
I0
sg4
VCivil Affairs Committee
p111
sg6
I1049
sg7
I1071
sasI4
(lp112
(dp113
g3
I0
sg4
VPalestinian Civil Affairs Committee
p114
sg6
I1037
sg7
I1071
sasI5
(lp115
sI6
(lp116
s.