(dp0
I1
(lp1
(dp2
S'label'
p3
I0
sS'string'
p4
VTafesh
p5
sS'start_index'
p6
I8
sS'end_index'
p7
I13
sa(dp8
g3
I0
sg4
VMiddle
p9
sg6
I76
sg7
I81
sa(dp10
g3
I0
sg4
VEast
p11
sg6
I83
sg7
I86
sa(dp12
g3
I0
sg4
VWilson
p13
sg6
I98
sg7
I103
sa(dp14
g3
I0
sg4
VCollege.
p15
sg6
I105
sg7
I112
sa(dp16
g3
I0
sg4
VGaza
p17
sg6
I157
sg7
I160
sa(dp18
g3
I0
sg4
VTafesh
p19
sg6
I218
sg7
I223
sa(dp20
g3
I0
sg4
VGaza
p21
sg6
I359
sg7
I362
sa(dp22
g3
I0
sg4
VArabic
p23
sg6
I442
sg7
I447
sa(dp24
g3
I0
sg4
VSkype
p25
sg6
I473
sg7
I477
sa(dp26
g3
I0
sg4
VTafesh
p27
sg6
I488
sg7
I493
sa(dp28
g3
I0
sg4
VGaza
p29
sg6
I542
sg7
I545
sa(dp30
g3
I0
sg4
VPalestinians
p31
sg6
I598
sg7
I609
sa(dp32
g3
I0
sg4
VWestern
p33
sg6
I661
sg7
I667
sa(dp34
g3
I0
sg4
VElection
p35
sg6
I688
sg7
I695
sa(dp36
g3
I0
sg4
VDay
p37
sg6
I697
sg7
I699
sa(dp38
g3
I0
sg4
VPresident
p39
sg6
I742
sg7
I750
sa(dp40
g3
I0
sg4
VTrump
p41
sg6
I752
sg7
I756
sa(dp42
g3
I0
sg4
VTrump
p43
sg6
I810
sg7
I814
sa(dp44
g3
I0
sg4
VTafesh.
p45
sg6
I870
sg7
I876
sa(dp46
g3
I0
sg4
VTafesh
p47
sg6
I990
sg7
I995
sa(dp48
g3
I0
sg4
VBack
p49
sg6
I1190
sg7
I1193
sa(dp50
g3
I0
sg4
VGaza
p51
sg6
I1203
sg7
I1206
sa(dp52
g3
I0
sg4
VOperation
p53
sg6
I1250
sg7
I1258
sa(dp54
g3
I0
sg4
VProtective
p55
sg6
I1260
sg7
I1269
sa(dp56
g3
I0
sg4
VEdge
p57
sg6
I1271
sg7
I1274
sa(dp58
g3
I0
sg4
VGaza
p59
sg6
I1276
sg7
I1279
sa(dp60
g3
I0
sg4
VPennsylvania
p61
sg6
I1478
sg7
I1489
sa(dp62
g3
I0
sg4
VBack
p63
sg6
I1546
sg7
I1549
sa(dp64
g3
I0
sg4
VBack
p65
sg6
I1638
sg7
I1641
sa(dp66
g3
I0
sg4
VGaza
p67
sg6
I1646
sg7
I1649
sa(dp68
g3
I0
sg4
VTafesh
p69
sg6
I1655
sg7
I1660
sa(dp70
g3
I0
sg4
VMuslim
p71
sg6
I1763
sg7
I1768
sa(dp72
g3
I0
sg4
VAmericans
p73
sg6
I1770
sg7
I1778
sa(dp74
g3
I0
sg4
VMuslim
p75
sg6
I1831
sg7
I1836
sa(dp76
g3
I0
sg4
VWilson
p77
sg6
I2014
sg7
I2019
sa(dp78
g3
I0
sg4
VTafesh
p79
sg6
I2130
sg7
I2135
sa(dp80
g3
I0
sg4
VAmerican
p81
sg6
I2155
sg7
I2162
sa(dp82
g3
I0
sg4
VBob
p83
sg6
I2171
sg7
I2173
sa(dp84
g3
I0
sg4
VPat
p85
sg6
I2179
sg7
I2181
sa(dp86
g3
I0
sg4
VKeffer.
p87
sg6
I2183
sg7
I2189
sa(dp88
g3
I0
sg4
VGhada
p89
sg6
I2191
sg7
I2195
sa(dp90
g3
I0
sg4
VKeffer.
p91
sg6
I2232
sg7
I2238
sa(dp92
g3
I0
sg4
VMuslims
p93
sg6
I2459
sg7
I2465
sa(dp94
g3
I0
sg4
VMuslim
p95
sg6
I2500
sg7
I2505
sa(dp96
g3
I0
sg4
VTafesh
p97
sg6
I2560
sg7
I2565
sa(dp98
g3
I0
sg4
VGaza
p99
sg6
I2707
sg7
I2710
sa(dp100
g3
I0
sg4
VTafesh
p101
sg6
I2904
sg7
I2909
sa(dp102
g3
I0
sg4
VGaza
p103
sg6
I2930
sg7
I2933
sa(dp104
g3
I0
sg4
VMay.
p105
sg6
I2978
sg7
I2981
sa(dp106
g3
I0
sg4
VGaza
p107
sg6
I3062
sg7
I3065
sa(dp108
g3
I0
sg4
VGazans
p109
sg6
I3113
sg7
I3118
sa(dp110
g3
I0
sg4
VWASHINGTON
p111
sg6
I3329
sg7
I3338
sa(dp112
g3
I0
sg4
VPresident
p113
sg6
I3400
sg7
I3408
sa(dp114
g3
I0
sg4
VTrump
p115
sg6
I3410
sg7
I3414
sa(dp116
g3
I0
sg4
VTiffany
p117
sg6
I3707
sg7
I3713
sa(dp118
g3
I0
sg4
VTrump
p119
sg6
I3715
sg7
I3719
sa(dp120
g3
I0
sg4
VTrump
p121
sg6
I3741
sg7
I3745
sa(dp122
g3
I0
sg4
VMarla
p123
sg6
I3767
sg7
I3771
sa(dp124
g3
I0
sg4
VMaples
p125
sg6
I3773
sg7
I3778
sa(dp126
g3
I0
sg4
VGeorgetown
p127
sg6
I3800
sg7
I3809
sa(dp128
g3
I0
sg4
VBarron
p129
sg6
I3879
sg7
I3884
sa(dp130
g3
I0
sg4
VTrump
p131
sg6
I3886
sg7
I3890
sa(dp132
g3
I0
sg4
VSt.
p133
sg6
I3971
sg7
I3973
sa(dp134
g3
I0
sg4
VAndrew
p135
sg6
I3975
sg7
I3980
sa(dp136
g3
I0
sg4
VEpiscopal
p137
sg6
I3982
sg7
I3990
sa(dp138
g3
I0
sg4
VPotomac
p139
sg6
I4042
sg7
I4048
sa(dp140
g3
I0
sg4
VMd.
p141
sg6
I4050
sg7
I4052
sa(dp142
g3
I0
sg4
VWhite
p143
sg6
I4117
sg7
I4121
sa(dp144
g3
I0
sg4
VHouse
p145
sg6
I4123
sg7
I4127
sa(dp146
g3
I0
sg4
VSchoolgoing
p147
sg6
I4149
sg7
I4159
sa(dp148
g3
I0
sg4
VWashington
p149
sg6
I4231
sg7
I4240
sa(dp150
g3
I0
sg4
VRalph
p151
sg6
I4445
sg7
I4449
sa(dp152
g3
I0
sg4
VBasham
p153
sg6
I4451
sg7
I4456
sa(dp154
g3
I0
sg4
VMark
p155
sg6
I4462
sg7
I4465
sa(dp156
g3
I0
sg4
VSullivan
p157
sg6
I4470
sg7
I4477
sa(dp158
g3
I0
sg4
VSecret
p159
sg6
I4490
sg7
I4495
sa(dp160
g3
I0
sg4
VService
p161
sg6
I4497
sg7
I4503
sa(dp162
g3
I0
sg4
VBasham
p163
sg6
I4574
sg7
I4579
sa(dp164
g3
I0
sg4
VSecret
p165
sg6
I4715
sg7
I4720
sa(dp166
g3
I0
sg4
VService
p167
sg6
I4722
sg7
I4728
sasI2
(lp168
(dp169
g3
I0
sg4
VMiddle East
p170
sg6
I76
sg7
I86
sa(dp171
g3
I1
sg4
VWilson College.
p172
sg6
I98
sg7
I112
sa(dp173
g3
I0
sg4
VElection Day
p174
sg6
I688
sg7
I699
sa(dp175
g3
I0
sg4
VPresident Trump
p176
sg6
I742
sg7
I756
sa(dp177
g3
I0
sg4
VO. K.
p178
sg6
I855
sg7
I859
sa(dp179
g3
I0
sg4
VOperation Protective
p180
sg6
I1250
sg7
I1269
sa(dp181
g3
I0
sg4
VProtective Edge
p182
sg6
I1260
sg7
I1274
sa(dp183
g3
I0
sg4
VEdge Gaza
p184
sg6
I1271
sg7
I1279
sa(dp185
g3
I0
sg4
VMuslim Americans
p186
sg6
I1763
sg7
I1778
sa(dp187
g3
I0
sg4
VPat Keffer.
p188
sg6
I2179
sg7
I2189
sa(dp189
g3
I0
sg4
VPresident Trump
p190
sg6
I3400
sg7
I3414
sa(dp191
g3
I0
sg4
VTiffany Trump
p192
sg6
I3707
sg7
I3719
sa(dp193
g3
I0
sg4
VMarla Maples
p194
sg6
I3767
sg7
I3778
sa(dp195
g3
I1
sg4
VGeorgetown University
p196
sg6
I3800
sg7
I3820
sa(dp197
g3
I0
sg4
VBarron Trump
p198
sg6
I3879
sg7
I3890
sa(dp199
g3
I0
sg4
VSt. Andrew
p200
sg6
I3971
sg7
I3980
sa(dp201
g3
I0
sg4
VAndrew Episcopal
p202
sg6
I3975
sg7
I3990
sa(dp203
g3
I0
sg4
VEpiscopal School
p204
sg6
I3982
sg7
I3997
sa(dp205
g3
I0
sg4
VPotomac Md.
p206
sg6
I4042
sg7
I4052
sa(dp207
g3
I0
sg4
VWhite House
p208
sg6
I4117
sg7
I4127
sa(dp209
g3
I0
sg4
VW. Ralph
p210
sg6
I4442
sg7
I4449
sa(dp211
g3
I0
sg4
VRalph Basham
p212
sg6
I4445
sg7
I4456
sa(dp213
g3
I0
sg4
VMark J.
p214
sg6
I4462
sg7
I4468
sa(dp215
g3
I0
sg4
VJ. Sullivan
p216
sg6
I4467
sg7
I4477
sa(dp217
g3
I0
sg4
VSecret Service
p218
sg6
I4490
sg7
I4503
sa(dp219
g3
I0
sg4
VSecret Service
p220
sg6
I4715
sg7
I4728
sasI3
(lp221
(dp222
g3
I0
sg4
VOperation Protective Edge
p223
sg6
I1250
sg7
I1274
sa(dp224
g3
I0
sg4
VProtective Edge Gaza
p225
sg6
I1260
sg7
I1279
sa(dp226
g3
I0
sg4
VBob and Pat
p227
sg6
I2171
sg7
I2181
sa(dp228
g3
I0
sg4
VSt. Andrew Episcopal
p229
sg6
I3971
sg7
I3990
sa(dp230
g3
I0
sg4
VAndrew Episcopal School
p231
sg6
I3975
sg7
I3997
sa(dp232
g3
I0
sg4
VW. Ralph Basham
p233
sg6
I4442
sg7
I4456
sa(dp234
g3
I0
sg4
VBasham and Mark
p235
sg6
I4451
sg7
I4465
sa(dp236
g3
I0
sg4
VMark J. Sullivan
p237
sg6
I4462
sg7
I4477
sasI4
(lp238
(dp239
g3
I0
sg4
VOperation Protective Edge Gaza
p240
sg6
I1250
sg7
I1279
sa(dp241
g3
I0
sg4
VBob and Pat Keffer.
p242
sg6
I2171
sg7
I2189
sa(dp243
g3
I1
sg4
VSt. Andrew Episcopal School
p244
sg6
I3971
sg7
I3997
sa(dp245
g3
I0
sg4
VRalph Basham and Mark
p246
sg6
I4445
sg7
I4465
sa(dp247
g3
I0
sg4
VBasham and Mark J.
p248
sg6
I4451
sg7
I4468
sasI5
(lp249
(dp250
g3
I0
sg4
VW. Ralph Basham and Mark
p251
sg6
I4442
sg7
I4465
sa(dp252
g3
I0
sg4
VRalph Basham and Mark J.
p253
sg6
I4445
sg7
I4468
sa(dp254
g3
I0
sg4
VBasham and Mark J. Sullivan
p255
sg6
I4451
sg7
I4477
sasI6
(lp256
(dp257
g3
I0
sg4
VW. Ralph Basham and Mark J.
p258
sg6
I4442
sg7
I4468
sa(dp259
g3
I0
sg4
VRalph Basham and Mark J. Sullivan
p260
sg6
I4445
sg7
I4477
sas.