(dp0
I1
(lp1
(dp2
S'label'
p3
I0
sS'string'
p4
VTiffany
p5
sS'start_index'
p6
I0
sS'end_index'
p7
I6
sa(dp8
g3
I0
sg4
VTrump
p9
sg6
I8
sg7
I12
sa(dp10
g3
I0
sg4
VApril.
p11
sg6
I51
sg7
I56
sa(dp12
g3
I0
sg4
VGeorgetown
p13
sg6
I84
sg7
I93
sa(dp14
g3
I0
sg4
VGeorgetown
p15
sg6
I117
sg7
I126
sa(dp16
g3
I0
sg4
VTiffany
p17
sg6
I190
sg7
I196
sa(dp18
g3
I0
sg4
VTrump
p19
sg6
I198
sg7
I202
sa(dp20
g3
I0
sg4
VInstagram
p21
sg6
I226
sg7
I234
sa(dp22
g3
I0
sg4
VWashington
p23
sg6
I288
sg7
I297
sa(dp24
g3
I0
sg4
VTrump
p25
sg6
I374
sg7
I378
sasI2
(lp26
(dp27
g3
I0
sg4
VTiffany Trump
p28
sg6
I0
sg7
I12
sa(dp29
g3
I1
sg4
VGeorgetown University
p30
sg6
I84
sg7
I104
sa(dp31
g3
I1
sg4
VGeorgetown University
p32
sg6
I117
sg7
I137
sa(dp33
g3
I0
sg4
VTiffany Trump
p34
sg6
I190
sg7
I202
sasI3
(lp35
sI4
(lp36
sI5
(lp37
sI6
(lp38
s.