(dp0
I1
(lp1
(dp2
S'label'
p3
I0
sS'string'
p4
VWisconsin
p5
sS'start_index'
p6
I98
sS'end_index'
p7
I106
sa(dp8
g3
I0
sg4
VMadison
p9
sg6
I108
sg7
I114
sa(dp10
g3
I0
sg4
VGary
p11
sg6
I538
sg7
I541
sa(dp12
g3
I0
sg4
VBishop
p13
sg6
I546
sg7
I551
sa(dp14
g3
I0
sg4
VBishop
p15
sg6
I637
sg7
I642
sa(dp16
g3
I0
sg4
VUber
p17
sg6
I731
sg7
I734
sa(dp18
g3
I0
sg4
VZipcar
p19
sg6
I766
sg7
I771
sa(dp20
g3
I0
sg4
VNorthwestern
p21
sg6
I1015
sg7
I1026
sa(dp22
g3
I0
sg4
VEvanston
p23
sg6
I1042
sg7
I1049
sa(dp24
g3
I0
sg4
VIll.
p25
sg6
I1051
sg7
I1054
sa(dp26
g3
I0
sg4
VGarage
p27
sg6
I1311
sg7
I1316
sa(dp28
g3
I0
sg4
VPerkins
p29
sg6
I1428
sg7
I1434
sa(dp30
g3
I0
sg4
V&amp
p31
sg6
I1436
sg7
I1439
sa(dp32
g3
I0
sg4
VWill
p33
sg6
I1441
sg7
I1444
sa(dp34
g3
I0
sg4
VSegal
p35
sg6
I1461
sg7
I1465
sa(dp36
g3
I0
sg4
VVisitors
p37
sg6
I1467
sg7
I1474
sa(dp38
g3
I0
sg4
VCenter.
p39
sg6
I1476
sg7
I1482
sa(dp40
g3
I0
sg4
VLake
p41
sg6
I1608
sg7
I1611
sa(dp42
g3
I0
sg4
VMichigan
p43
sg6
I1613
sg7
I1620
sa(dp44
g3
I0
sg4
VAlan
p45
sg6
I1745
sg7
I1748
sa(dp46
g3
I0
sg4
VCubbage
p47
sg6
I1753
sg7
I1759
sasI2
(lp48
(dp49
g3
I0
sg4
VWisconsin Madison
p50
sg6
I98
sg7
I114
sa(dp51
g3
I0
sg4
VGary A.
p52
sg6
I538
sg7
I544
sa(dp53
g3
I0
sg4
VA. Bishop
p54
sg6
I543
sg7
I551
sa(dp55
g3
I1
sg4
VNorthwestern University
p56
sg6
I1015
sg7
I1037
sa(dp57
g3
I0
sg4
VEvanston Ill.
p58
sg6
I1042
sg7
I1054
sa(dp59
g3
I0
sg4
VPerkins &amp
p60
sg6
I1428
sg7
I1439
sa(dp61
g3
I0
sg4
V&amp Will
p62
sg6
I1436
sg7
I1444
sa(dp63
g3
I0
sg4
VSegal Visitors
p64
sg6
I1461
sg7
I1474
sa(dp65
g3
I0
sg4
VVisitors Center.
p66
sg6
I1467
sg7
I1482
sa(dp67
g3
I0
sg4
VLake Michigan
p68
sg6
I1608
sg7
I1620
sa(dp69
g3
I0
sg4
VAlan K.
p70
sg6
I1745
sg7
I1751
sa(dp71
g3
I0
sg4
VK. Cubbage
p72
sg6
I1750
sg7
I1759
sasI3
(lp73
(dp74
g3
I0
sg4
VUniversity of Wisconsin
p75
sg6
I84
sg7
I106
sa(dp76
g3
I0
sg4
VGary A. Bishop
p77
sg6
I538
sg7
I551
sa(dp78
g3
I0
sg4
VPerkins &amp Will
p79
sg6
I1428
sg7
I1444
sa(dp80
g3
I0
sg4
VSegal Visitors Center.
p81
sg6
I1461
sg7
I1482
sa(dp82
g3
I0
sg4
VAlan K. Cubbage
p83
sg6
I1745
sg7
I1759
sasI4
(lp84
(dp85
g3
I1
sg4
VUniversity of Wisconsin Madison
p86
sg6
I84
sg7
I114
sasI5
(lp87
sI6
(lp88
s.