(dp0
I1
(lp1
(dp2
S'label'
p3
I0
sS'string'
p4
VSouth
p5
sS'start_index'
p6
I21
sS'end_index'
p7
I25
sa(dp8
g3
I0
sg4
VCarolina
p9
sg6
I27
sg7
I34
sa(dp10
g3
I0
sg4
VDerrick
p11
sg6
I254
sg7
I260
sa(dp12
g3
I0
sg4
VHuggins
p13
sg6
I262
sg7
I268
sa(dp14
g3
I0
sg4
VHuggins
p15
sg6
I647
sg7
I653
sa(dp16
g3
I0
sg4
VSanta
p17
sg6
I661
sg7
I665
sa(dp18
g3
I0
sg4
VClara
p19
sg6
I667
sg7
I671
sa(dp20
g3
I0
sg4
VJesuit
p21
sg6
I686
sg7
I691
sa(dp22
g3
I0
sg4
VCalifornia
p23
sg6
I703
sg7
I712
sa(dp24
g3
I0
sg4
VTim
p25
sg6
I1030
sg7
I1032
sa(dp26
g3
I0
sg4
VKeefe
p27
sg6
I1036
sg7
I1040
sa(dp28
g3
I0
sg4
VHowever
p29
sg6
I1312
sg7
I1318
sa(dp30
g3
I0
sg4
VRun
p31
sg6
I1416
sg7
I1418
sa(dp32
g3
I0
sg4
VAuro
p33
sg6
I1441
sg7
I1444
sa(dp34
g3
I0
sg4
VRobotics
p35
sg6
I1446
sg7
I1453
sa(dp36
g3
I0
sg4
VDonald
p37
sg6
I1611
sg7
I1616
sa(dp38
g3
I0
sg4
VTrump
p39
sg6
I1621
sg7
I1625
sa(dp40
g3
I0
sg4
VFewer
p41
sg6
I1719
sg7
I1723
sa(dp42
g3
I0
sg4
VUnited
p43
sg6
I1760
sg7
I1765
sa(dp44
g3
I0
sg4
VStates.
p45
sg6
I1767
sg7
I1773
sa(dp46
g3
I0
sg4
VInternational
p47
sg6
I2030
sg7
I2042
sa(dp48
g3
I0
sg4
VEducation.
p49
sg6
I2044
sg7
I2053
sa(dp50
g3
I0
sg4
VExperts
p51
sg6
I2055
sg7
I2061
sa(dp52
g3
I0
sg4
VUnited
p53
sg6
I2118
sg7
I2123
sa(dp54
g3
I0
sg4
VStates
p55
sg6
I2125
sg7
I2130
sa(dp56
g3
I0
sg4
VRajika
p57
sg6
I2212
sg7
I2217
sa(dp58
g3
I0
sg4
VBhandari
p59
sg6
I2219
sg7
I2226
sa(dp60
g3
I0
sg4
VState
p61
sg6
I2333
sg7
I2337
sa(dp62
g3
I0
sg4
VDepartment.
p63
sg6
I2339
sg7
I2349
sa(dp64
g3
I0
sg4
VConcerns
p65
sg6
I2351
sg7
I2358
sasI2
(lp66
(dp67
g3
I0
sg4
VSouth Carolina
p68
sg6
I21
sg7
I34
sa(dp69
g3
I0
sg4
VDerrick Huggins
p70
sg6
I254
sg7
I268
sa(dp71
g3
I0
sg4
VSanta Clara
p72
sg6
I661
sg7
I671
sa(dp73
g3
I0
sg4
VClara University
p74
sg6
I667
sg7
I682
sa(dp75
g3
I0
sg4
VTim O
p76
sg6
I1030
sg7
I1034
sa(dp77
g3
I0
sg4
VO Keefe
p78
sg6
I1034
sg7
I1040
sa(dp79
g3
I0
sg4
VAuro Robotics
p80
sg6
I1441
sg7
I1453
sa(dp81
g3
I0
sg4
VDonald J.
p82
sg6
I1611
sg7
I1619
sa(dp83
g3
I0
sg4
VJ. Trump
p84
sg6
I1618
sg7
I1625
sa(dp85
g3
I0
sg4
VUnited States.
p86
sg6
I1760
sg7
I1773
sa(dp87
g3
I0
sg4
VInternational Education.
p88
sg6
I2030
sg7
I2053
sa(dp89
g3
I0
sg4
VUnited States
p90
sg6
I2118
sg7
I2130
sa(dp91
g3
I0
sg4
VRajika Bhandari
p92
sg6
I2212
sg7
I2226
sa(dp93
g3
I0
sg4
VState Department.
p94
sg6
I2333
sg7
I2349
sasI3
(lp95
(dp96
g3
I0
sg4
VUniversity of South
p97
sg6
I7
sg7
I25
sa(dp98
g3
I1
sg4
VSanta Clara University
p99
sg6
I661
sg7
I682
sa(dp100
g3
I0
sg4
VTim O Keefe
p101
sg6
I1030
sg7
I1040
sa(dp102
g3
I0
sg4
VDonald J. Trump
p103
sg6
I1611
sg7
I1625
sa(dp104
g3
I0
sg4
VInstitute of International
p105
sg6
I2017
sg7
I2042
sasI4
(lp106
(dp107
g3
I1
sg4
VUniversity of South Carolina
p108
sg6
I7
sg7
I34
sa(dp109
g3
I1
sg4
VInstitute of International Education.
p110
sg6
I2017
sg7
I2053
sasI5
(lp111
sI6
(lp112
s.