(dp0
I1
(lp1
(dp2
S'label'
p3
I0
sS'string'
p4
VParticularly
p5
sS'start_index'
p6
I0
sS'end_index'
p7
I11
sa(dp8
g3
I0
sg4
VMidwest
p9
sg6
I42
sg7
I48
sa(dp10
g3
I0
sg4
VIowa
p11
sg6
I99
sg7
I102
sa(dp12
g3
I0
sg4
VDowning
p13
sg6
I182
sg7
I188
sa(dp14
g3
I0
sg4
VThomas
p15
sg6
I190
sg7
I195
sa(dp16
g3
I0
sg4
VBig
p17
sg6
I281
sg7
I283
sa(dp18
g3
I0
sg4
VTen
p19
sg6
I285
sg7
I287
sa(dp20
g3
I1
sg4
VIowa
p21
sg6
I386
sg7
I389
sa(dp22
g3
I0
sg4
VChinese
p23
sg6
I406
sg7
I412
sa(dp24
g3
I0
sg4
VCentral
p25
sg6
I441
sg7
I447
sa(dp26
g3
I0
sg4
VMissouri
p27
sg6
I449
sg7
I456
sa(dp28
g3
I0
sg4
VIndia
p29
sg6
I513
sg7
I517
sa(dp30
g3
I0
sg4
VMike
p31
sg6
I524
sg7
I527
sa(dp32
g3
I0
sg4
VGodard
p33
sg6
I529
sg7
I534
sa(dp34
g3
I0
sg4
VWarrensburg
p35
sg6
I600
sg7
I610
sa(dp36
g3
I0
sg4
VMo.
p37
sg6
I612
sg7
I614
sa(dp38
g3
I0
sg4
VParties
p39
sg6
I683
sg7
I689
sa(dp40
g3
I0
sg4
VMichigan
p41
sg6
I740
sg7
I747
sa(dp42
g3
I0
sg4
VInterfraternity
p43
sg6
I981
sg7
I995
sa(dp44
g3
I0
sg4
VCouncil
p45
sg6
I997
sg7
I1003
sa(dp46
g3
I0
sg4
VMichigan
p47
sg6
I1219
sg7
I1226
sa(dp48
g3
I0
sg4
VMichigan
p49
sg6
I1450
sg7
I1457
sa(dp50
g3
I0
sg4
VMichigan
p51
sg6
I1459
sg7
I1466
sa(dp52
g3
I0
sg4
VState
p53
sg6
I1468
sg7
I1472
sa(dp54
g3
I0
sg4
VChampagne
p55
sg6
I1490
sg7
I1498
sa(dp56
g3
I0
sg4
VShackles
p57
sg6
I1504
sg7
I1511
sa(dp58
g3
I0
sg4
VAlec
p59
sg6
I1857
sg7
I1860
sa(dp60
g3
I0
sg4
VMayhan
p61
sg6
I1862
sg7
I1867
sa(dp62
g3
I0
sg4
VInterfraternity
p63
sg6
I1901
sg7
I1915
sa(dp64
g3
I0
sg4
VCouncil
p65
sg6
I1917
sg7
I1923
sasI2
(lp66
(dp67
g3
I0
sg4
VDowning Thomas
p68
sg6
I182
sg7
I195
sa(dp69
g3
I0
sg4
VBig Ten
p70
sg6
I281
sg7
I287
sa(dp71
g3
I0
sg4
VCentral Missouri
p72
sg6
I441
sg7
I456
sa(dp73
g3
I0
sg4
VMike Godard
p74
sg6
I524
sg7
I534
sa(dp75
g3
I0
sg4
VWarrensburg Mo.
p76
sg6
I600
sg7
I614
sa(dp77
g3
I0
sg4
VInterfraternity Council
p78
sg6
I981
sg7
I1003
sa(dp79
g3
I0
sg4
VMichigan State
p80
sg6
I1459
sg7
I1472
sa(dp81
g3
I0
sg4
VAlec Mayhan
p82
sg6
I1857
sg7
I1867
sa(dp83
g3
I0
sg4
VInterfraternity Council
p84
sg6
I1901
sg7
I1923
sasI3
(lp85
(dp86
g3
I1
sg4
VUniversity of Iowa
p87
sg6
I85
sg7
I102
sa(dp88
g3
I0
sg4
VUniversity of Central
p89
sg6
I427
sg7
I447
sa(dp90
g3
I1
sg4
VUniversity of Michigan
p91
sg6
I726
sg7
I747
sa(dp92
g3
I0
sg4
VChampagne and Shackles
p93
sg6
I1490
sg7
I1511
sasI4
(lp94
(dp95
g3
I1
sg4
VUniversity of Central Missouri
p96
sg6
I427
sg7
I456
sasI5
(lp97
sI6
(lp98
s.