(dp0
I1
(lp1
(dp2
S'label'
p3
I0
sS'string'
p4
VPenn
p5
sS'start_index'
p6
I0
sS'end_index'
p7
I3
sa(dp8
g3
I0
sg4
VState
p9
sg6
I5
sg7
I9
sa(dp10
g3
I0
sg4
VFebruary.
p11
sg6
I147
sg7
I155
sa(dp12
g3
I0
sg4
VLouisiana
p13
sg6
I161
sg7
I169
sa(dp14
g3
I0
sg4
VState
p15
sg6
I171
sg7
I175
sa(dp16
g3
I0
sg4
VGreek
p17
sg6
I200
sg7
I204
sa(dp18
g3
I1
sg4
VMichigan
p19
sg6
I302
sg7
I309
sa(dp20
g3
I1
sg4
VMichigan
p21
sg6
I656
sg7
I663
sa(dp22
g3
I0
sg4
VMark
p23
sg6
I677
sg7
I680
sa(dp24
g3
I0
sg4
VSchlissel
p25
sg6
I682
sg7
I690
sa(dp26
g3
I0
sg4
VRick
p27
sg6
I932
sg7
I935
sa(dp28
g3
I0
sg4
VFitzgerald
p29
sg6
I937
sg7
I946
sa(dp30
g3
I0
sg4
VTheta
p31
sg6
I1236
sg7
I1240
sa(dp32
g3
I0
sg4
VDelta
p33
sg6
I1242
sg7
I1246
sa(dp34
g3
I0
sg4
VChi
p35
sg6
I1248
sg7
I1250
sa(dp36
g3
I0
sg4
VBreast
p37
sg6
I1329
sg7
I1334
sa(dp38
g3
I0
sg4
VCancer
p39
sg6
I1336
sg7
I1341
sa(dp40
g3
I0
sg4
VResearch
p41
sg6
I1343
sg7
I1350
sa(dp42
g3
I0
sg4
VFund.
p43
sg6
I1352
sg7
I1356
sa(dp44
g3
I0
sg4
VHenry
p45
sg6
I1625
sg7
I1629
sa(dp46
g3
I0
sg4
VFlynn
p47
sg6
I1631
sg7
I1635
sa(dp48
g3
I0
sg4
VGreek
p49
sg6
I1816
sg7
I1820
sa(dp50
g3
I0
sg4
VFlynn
p51
sg6
I1833
sg7
I1837
sa(dp52
g3
I0
sg4
VPrivate
p53
sg6
I2067
sg7
I2073
sa(dp54
g3
I0
sg4
VStanford
p55
sg6
I2239
sg7
I2246
sa(dp56
g3
I1
sg4
VHarvard
p57
sg6
I2369
sg7
I2375
sa(dp58
g3
I1
sg4
VStanford
p59
sg6
I2621
sg7
I2628
sa(dp60
g3
I1
sg4
VStanford
p61
sg6
I2697
sg7
I2704
sa(dp62
g3
I0
sg4
VStanford
p63
sg6
I2854
sg7
I2861
sa(dp64
g3
I1
sg4
VHarvard
p65
sg6
I3022
sg7
I3028
sa(dp66
g3
I1
sg4
VPrinceton
p67
sg6
I3030
sg7
I3038
sa(dp68
g3
I1
sg4
VYale
p69
sg6
I3044
sg7
I3047
sa(dp70
g3
I0
sg4
VAccording
p71
sg6
I3463
sg7
I3471
sa(dp72
g3
I1
sg4
VStanford
p73
sg6
I3480
sg7
I3487
sa(dp74
g3
I0
sg4
VRaj
p75
sg6
I3499
sg7
I3501
sa(dp76
g3
I0
sg4
VChetty
p77
sg6
I3503
sg7
I3508
sa(dp78
g3
I0
sg4
VBasically
p79
sg6
I3653
sg7
I3661
sa(dp80
g3
I0
sg4
VAmerica
p81
sg6
I3788
sg7
I3794
sa(dp82
g3
I0
sg4
VCalifornia
p83
sg6
I4021
sg7
I4030
sa(dp84
g3
I0
sg4
VBerkeley
p85
sg6
I4032
sg7
I4039
sa(dp86
g3
I0
sg4
VLeague.
p87
sg6
I4094
sg7
I4100
sa(dp88
g3
I0
sg4
VIvies
p89
sg6
I4189
sg7
I4193
sa(dp90
g3
I0
sg4
VJust
p91
sg6
I4243
sg7
I4246
sa(dp92
g3
I0
sg4
VPell
p93
sg6
I4484
sg7
I4487
sa(dp94
g3
I0
sg4
VGrant
p95
sg6
I4489
sg7
I4493
sa(dp96
g3
I0
sg4
VWealthy
p97
sg6
I4983
sg7
I4989
sasI2
(lp98
(dp99
g3
I0
sg4
VPenn State
p100
sg6
I0
sg7
I9
sa(dp101
g3
I0
sg4
VState University
p102
sg6
I5
sg7
I20
sa(dp103
g3
I0
sg4
VLouisiana State
p104
sg6
I161
sg7
I175
sa(dp105
g3
I0
sg4
VState University
p106
sg6
I171
sg7
I186
sa(dp107
g3
I0
sg4
VMark Schlissel
p108
sg6
I677
sg7
I690
sa(dp109
g3
I0
sg4
VRick Fitzgerald
p110
sg6
I932
sg7
I946
sa(dp111
g3
I0
sg4
VTheta Delta
p112
sg6
I1236
sg7
I1246
sa(dp113
g3
I0
sg4
VDelta Chi
p114
sg6
I1242
sg7
I1250
sa(dp115
g3
I0
sg4
VBreast Cancer
p116
sg6
I1329
sg7
I1341
sa(dp117
g3
I0
sg4
VCancer Research
p118
sg6
I1336
sg7
I1350
sa(dp119
g3
I0
sg4
VResearch Fund.
p120
sg6
I1343
sg7
I1356
sa(dp121
g3
I0
sg4
VHenry Flynn
p122
sg6
I1625
sg7
I1635
sa(dp123
g3
I1
sg4
VStanford University
p124
sg6
I2239
sg7
I2257
sa(dp125
g3
I0
sg4
VHarvard Princeton
p126
sg6
I3022
sg7
I3038
sa(dp127
g3
I0
sg4
VRaj Chetty
p128
sg6
I3499
sg7
I3508
sa(dp129
g3
I0
sg4
VCalifornia Berkeley
p130
sg6
I4021
sg7
I4039
sa(dp131
g3
I0
sg4
VPell Grant
p132
sg6
I4484
sg7
I4493
sasI3
(lp133
(dp134
g3
I1
sg4
VPenn State University
p135
sg6
I0
sg7
I20
sa(dp136
g3
I1
sg4
VLouisiana State University
p137
sg6
I161
sg7
I186
sa(dp138
g3
I0
sg4
VTheta Delta Chi
p139
sg6
I1236
sg7
I1250
sa(dp140
g3
I0
sg4
VBreast Cancer Research
p141
sg6
I1329
sg7
I1350
sa(dp142
g3
I0
sg4
VCancer Research Fund.
p143
sg6
I1336
sg7
I1356
sa(dp144
g3
I0
sg4
VPrinceton and Yale
p145
sg6
I3030
sg7
I3047
sa(dp146
g3
I0
sg4
VUniversity of California
p147
sg6
I4007
sg7
I4030
sasI4
(lp148
(dp149
g3
I0
sg4
VBreast Cancer Research Fund.
p150
sg6
I1329
sg7
I1356
sa(dp151
g3
I0
sg4
VHarvard Princeton and Yale
p152
sg6
I3022
sg7
I3047
sa(dp153
g3
I1
sg4
VUniversity of California Berkeley
p154
sg6
I4007
sg7
I4039
sasI5
(lp155
sI6
(lp156
s.