(dp0
I1
(lp1
(dp2
S'label'
p3
I0
sS'string'
p4
VINDIANAPOLIS
p5
sS'start_index'
p6
I0
sS'end_index'
p7
I11
sa(dp8
g3
I0
sg4
VCan
p9
sg6
I13
sg7
I15
sa(dp10
g3
I0
sg4
VShostakovich
p11
sg6
I263
sg7
I274
sa(dp12
g3
I0
sg4
VButler
p13
sg6
I482
sg7
I487
sa(dp14
g3
I0
sg4
VDavey
p15
sg6
I572
sg7
I576
sa(dp16
g3
I0
sg4
VRisk
p17
sg6
I578
sg7
I581
sa(dp18
g3
I0
sg4
VManagement
p19
sg6
I583
sg7
I592
sa(dp20
g3
I0
sg4
VInsurance
p21
sg6
I598
sg7
I606
sa(dp22
g3
I0
sg4
VProgram
p23
sg6
I608
sg7
I614
sa(dp24
g3
I0
sg4
VKevin
p25
sg6
I733
sg7
I737
sa(dp26
g3
I0
sg4
VThompson
p27
sg6
I739
sg7
I746
sa(dp28
g3
I0
sg4
VButler
p29
sg6
I780
sg7
I785
sasI2
(lp30
(dp31
g3
I0
sg4
VINDIANAPOLIS Can
p32
sg6
I0
sg7
I15
sa(dp33
g3
I1
sg4
VButler University
p34
sg6
I482
sg7
I498
sa(dp35
g3
I0
sg4
VDavey Risk
p36
sg6
I572
sg7
I581
sa(dp37
g3
I0
sg4
VRisk Management
p38
sg6
I578
sg7
I592
sa(dp39
g3
I0
sg4
VInsurance Program
p40
sg6
I598
sg7
I614
sa(dp41
g3
I0
sg4
VKevin Thompson
p42
sg6
I733
sg7
I746
sa(dp43
g3
I1
sg4
VButler University
p44
sg6
I780
sg7
I796
sasI3
(lp45
(dp46
g3
I0
sg4
VDavey Risk Management
p47
sg6
I572
sg7
I592
sa(dp48
g3
I0
sg4
VManagement and Insurance
p49
sg6
I583
sg7
I606
sasI4
(lp50
(dp51
g3
I0
sg4
VRisk Management and Insurance
p52
sg6
I578
sg7
I606
sa(dp53
g3
I0
sg4
VManagement and Insurance Program
p54
sg6
I583
sg7
I614
sasI5
(lp55
(dp56
g3
I0
sg4
VDavey Risk Management and Insurance
p57
sg6
I572
sg7
I606
sa(dp58
g3
I0
sg4
VRisk Management and Insurance Program
p59
sg6
I578
sg7
I614
sasI6
(lp60
(dp61
g3
I0
sg4
VDavey Risk Management and Insurance Program
p62
sg6
I572
sg7
I614
sas.