(dp0
I1
(lp1
(dp2
S'label'
p3
I0
sS'string'
p4
VEventually
p5
sS'start_index'
p6
I0
sS'end_index'
p7
I9
sa(dp8
g3
I1
sg4
VButler
p9
sg6
I31
sg7
I36
sa(dp10
g3
I0
sg4
VBeta
p11
sg6
I166
sg7
I169
sa(dp12
g3
I0
sg4
VLambda
p13
sg6
I171
sg7
I176
sa(dp14
g3
I0
sg4
VGamma
p15
sg6
I237
sg7
I241
sa(dp16
g3
I0
sg4
VIota
p17
sg6
I243
sg7
I246
sa(dp18
g3
I0
sg4
VSigma.
p19
sg6
I248
sg7
I253
sa(dp20
g3
I0
sg4
VNor
p21
sg6
I304
sg7
I306
sa(dp22
g3
I0
sg4
VJim
p23
sg6
I371
sg7
I373
sa(dp24
g3
I0
sg4
VBeam
p25
sg6
I375
sg7
I378
sa(dp26
g3
I0
sg4
VFinn
p27
sg6
I408
sg7
I411
sa(dp28
g3
I0
sg4
VMichael
p29
sg6
I483
sg7
I489
sa(dp30
g3
I0
sg4
VBill
p31
sg6
I494
sg7
I497
sa(dp32
g3
I0
sg4
VInsurance
p33
sg6
I533
sg7
I541
sa(dp34
g3
I0
sg4
VInsurance
p35
sg6
I560
sg7
I568
sa(dp36
g3
I0
sg4
VBermuda
p37
sg6
I659
sg7
I665
sa(dp38
g3
I0
sg4
VBermuda
p39
sg6
I804
sg7
I810
sa(dp40
g3
I0
sg4
VWorking
p41
sg6
I871
sg7
I877
sa(dp42
g3
I0
sg4
VAnna
p43
sg6
I971
sg7
I974
sa(dp44
g3
I0
sg4
VGeist
p45
sg6
I976
sg7
I980
sa(dp46
g3
I0
sg4
VJosh
p47
sg6
I1239
sg7
I1242
sa(dp48
g3
I0
sg4
VToly
p49
sg6
I1244
sg7
I1247
sa(dp50
g3
I1
sg4
VButler
p51
sg6
I1251
sg7
I1256
sa(dp52
g3
I0
sg4
VMarcus
p53
sg6
I1454
sg7
I1459
sa(dp54
g3
I0
sg4
VButler
p55
sg6
I1490
sg7
I1495
sa(dp56
g3
I0
sg4
VPolice
p57
sg6
I1508
sg7
I1513
sa(dp58
g3
I0
sg4
VDepartment.
p59
sg6
I1515
sg7
I1525
sasI2
(lp60
(dp61
g3
I0
sg4
VBeta Lambda
p62
sg6
I166
sg7
I176
sa(dp63
g3
I0
sg4
VGamma Iota
p64
sg6
I237
sg7
I246
sa(dp65
g3
I0
sg4
VIota Sigma.
p66
sg6
I243
sg7
I253
sa(dp67
g3
I0
sg4
VJim Beam
p68
sg6
I371
sg7
I378
sa(dp69
g3
I0
sg4
VMichael M.
p70
sg6
I483
sg7
I492
sa(dp71
g3
I0
sg4
VM. Bill
p72
sg6
I491
sg7
I497
sa(dp73
g3
I0
sg4
VMJ Insurance
p74
sg6
I530
sg7
I541
sa(dp75
g3
I0
sg4
VMJ Insurance
p76
sg6
I557
sg7
I568
sa(dp77
g3
I0
sg4
VAnna Geist
p78
sg6
I971
sg7
I980
sa(dp79
g3
I0
sg4
VJosh Toly
p80
sg6
I1239
sg7
I1247
sa(dp81
g3
I1
sg4
VButler University
p82
sg6
I1490
sg7
I1506
sa(dp83
g3
I0
sg4
VUniversity Police
p84
sg6
I1497
sg7
I1513
sa(dp85
g3
I0
sg4
VPolice Department.
p86
sg6
I1508
sg7
I1525
sasI3
(lp87
(dp88
g3
I0
sg4
VGamma Iota Sigma.
p89
sg6
I237
sg7
I253
sa(dp90
g3
I0
sg4
VMichael M. Bill
p91
sg6
I483
sg7
I497
sa(dp92
g3
I0
sg4
VButler University Police
p93
sg6
I1490
sg7
I1513
sa(dp94
g3
I0
sg4
VUniversity Police Department.
p95
sg6
I1497
sg7
I1525
sasI4
(lp96
(dp97
g3
I0
sg4
VButler University Police Department.
p98
sg6
I1490
sg7
I1525
sasI5
(lp99
sI6
(lp100
s.