(dp0
I1
(lp1
(dp2
S'label'
p3
I0
sS'string'
p4
VMELBOURNE
p5
sS'start_index'
p6
I0
sS'end_index'
p7
I8
sa(dp8
g3
I0
sg4
VAustralia
p9
sg6
I10
sg7
I18
sa(dp10
g3
I0
sg4
VAustralia
p11
sg6
I76
sg7
I84
sa(dp12
g3
I0
sg4
VChinese
p13
sg6
I140
sg7
I146
sa(dp14
g3
I0
sg4
VGao
p15
sg6
I200
sg7
I202
sa(dp16
g3
I0
sg4
VSong
p17
sg6
I204
sg7
I207
sa(dp18
g3
I0
sg4
VChina
p19
sg6
I224
sg7
I228
sa(dp20
g3
I0
sg4
VMonash
p21
sg6
I233
sg7
I238
sa(dp22
g3
I0
sg4
VMelbourne
p23
sg6
I254
sg7
I262
sa(dp24
g3
I0
sg4
VChina
p25
sg6
I338
sg7
I342
sa(dp26
g3
I0
sg4
VChinese
p27
sg6
I393
sg7
I399
sa(dp28
g3
I0
sg4
VConsulate
p29
sg6
I401
sg7
I409
sa(dp30
g3
I0
sg4
VMelbourne
p31
sg6
I414
sg7
I422
sa(dp32
g3
I0
sg4
VGlobal
p33
sg6
I466
sg7
I471
sa(dp34
g3
I0
sg4
VTimes
p35
sg6
I473
sg7
I477
sa(dp36
g3
I0
sg4
VChina
p37
sg6
I517
sg7
I521
sa(dp38
g3
I0
sg4
VChina
p39
sg6
I676
sg7
I680
sa(dp40
g3
I0
sg4
VGao
p41
sg6
I774
sg7
I776
sa(dp42
g3
I0
sg4
VChina
p43
sg6
I811
sg7
I815
sa(dp44
g3
I0
sg4
VChinese
p45
sg6
I858
sg7
I864
sa(dp46
g3
I0
sg4
VProfessors
p47
sg6
I877
sg7
I886
sa(dp48
g3
I0
sg4
VKevin
p49
sg6
I1196
sg7
I1200
sa(dp50
g3
I0
sg4
VCarrico
p51
sg6
I1202
sg7
I1208
sa(dp52
g3
I0
sg4
VAmerican
p53
sg6
I1213
sg7
I1220
sa(dp54
g3
I0
sg4
VChinese
p55
sg6
I1234
sg7
I1240
sa(dp56
g3
I0
sg4
VMacquarie
p57
sg6
I1253
sg7
I1261
sa(dp58
g3
I0
sg4
VSydney
p59
sg6
I1277
sg7
I1282
sa(dp60
g3
I0
sg4
VQin
p61
sg6
I1387
sg7
I1389
sa(dp62
g3
I0
sg4
VChina
p63
sg6
I1459
sg7
I1463
sa(dp64
g3
I0
sg4
VCarrico
p65
sg6
I1671
sg7
I1677
sa(dp66
g3
I0
sg4
VStanford.
p67
sg6
I1704
sg7
I1712
sasI2
(lp68
(dp69
g3
I0
sg4
VMELBOURNE Australia
p70
sg6
I0
sg7
I18
sa(dp71
g3
I0
sg4
VGao Song
p72
sg6
I200
sg7
I207
sa(dp73
g3
I1
sg4
VMonash University
p74
sg6
I233
sg7
I249
sa(dp75
g3
I0
sg4
VChinese Consulate
p76
sg6
I393
sg7
I409
sa(dp77
g3
I0
sg4
VGlobal Times
p78
sg6
I466
sg7
I477
sa(dp79
g3
I0
sg4
VKevin Carrico
p80
sg6
I1196
sg7
I1208
sa(dp81
g3
I1
sg4
VMacquarie University
p82
sg6
I1253
sg7
I1272
sasI3
(lp83
sI4
(lp84
sI5
(lp85
sI6
(lp86
s.