(dp0
I1
(lp1
(dp2
S'label'
p3
I0
sS'string'
p4
VProf.
p5
sS'start_index'
p6
I0
sS'end_index'
p7
I4
sa(dp8
g3
I0
sg4
VZach
p9
sg6
I6
sg7
I9
sa(dp10
g3
I0
sg4
VFinn
p11
sg6
I11
sg7
I14
sa(dp12
g3
I0
sg4
VSmucker
p13
sg6
I49
sg7
I55
sa(dp14
g3
I0
sg4
VCompany.
p15
sg6
I57
sg7
I64
sa(dp16
g3
I0
sg4
VButler
p17
sg6
I81
sg7
I86
sa(dp18
g3
I0
sg4
VButler
p19
sg6
I308
sg7
I313
sa(dp20
g3
I0
sg4
VKevin
p21
sg6
I368
sg7
I372
sa(dp22
g3
I0
sg4
VThompson
p23
sg6
I374
sg7
I381
sa(dp24
g3
I0
sg4
VZach
p25
sg6
I387
sg7
I390
sa(dp26
g3
I0
sg4
VFinn.
p27
sg6
I392
sg7
I396
sasI2
(lp28
(dp29
g3
I0
sg4
VZach Finn
p30
sg6
I6
sg7
I14
sa(dp31
g3
I0
sg4
VJ. M.
p32
sg6
I43
sg7
I47
sa(dp33
g3
I0
sg4
VM. Smucker
p34
sg6
I46
sg7
I55
sa(dp35
g3
I0
sg4
VSmucker Company.
p36
sg6
I49
sg7
I64
sa(dp37
g3
I1
sg4
VButler University
p38
sg6
I81
sg7
I97
sa(dp39
g3
I1
sg4
VButler University
p40
sg6
I308
sg7
I324
sa(dp41
g3
I0
sg4
VKevin Thompson
p42
sg6
I368
sg7
I381
sa(dp43
g3
I0
sg4
VZach Finn.
p44
sg6
I387
sg7
I396
sasI3
(lp45
(dp46
g3
I0
sg4
VJ. M. Smucker
p47
sg6
I43
sg7
I55
sa(dp48
g3
I0
sg4
VM. Smucker Company.
p49
sg6
I46
sg7
I64
sasI4
(lp50
(dp51
g3
I0
sg4
VJ. M. Smucker Company.
p52
sg6
I43
sg7
I64
sasI5
(lp53
sI6
(lp54
s.