(dp0
I1
(lp1
(dp2
S'label'
p3
I0
sS'string'
p4
VNew
p5
sS'start_index'
p6
I48
sS'end_index'
p7
I50
sa(dp8
g3
I0
sg4
VYork
p9
sg6
I52
sg7
I55
sa(dp10
g3
I0
sg4
VPuerto
p11
sg6
I162
sg7
I167
sa(dp12
g3
I0
sg4
VRico
p13
sg6
I169
sg7
I172
sa(dp14
g3
I0
sg4
VHurricane
p15
sg6
I208
sg7
I216
sa(dp16
g3
I0
sg4
VMaria.
p17
sg6
I218
sg7
I223
sa(dp18
g3
I1
sg4
VNYU
p19
sg6
I225
sg7
I227
sa(dp20
g3
I0
sg4
VPuerto
p21
sg6
I465
sg7
I470
sa(dp22
g3
I0
sg4
VRico
p23
sg6
I472
sg7
I475
sa(dp24
g3
I0
sg4
VAndrew
p25
sg6
I581
sg7
I586
sa(dp26
g3
I0
sg4
VHamilton
p27
sg6
I588
sg7
I595
sa(dp28
g3
I0
sg4
VFull
p29
sg6
I667
sg7
I670
sa(dp30
g3
I1
sg4
VNYU
p31
sg6
I688
sg7
I690
sa(dp32
g3
I0
sg4
VHowever
p33
sg6
I764
sg7
I770
sa(dp34
g3
I1
sg4
VNYU
p35
sg6
I879
sg7
I881
sa(dp36
g3
I0
sg4
VPuerto
p37
sg6
I1016
sg7
I1021
sa(dp38
g3
I0
sg4
VRico
p39
sg6
I1023
sg7
I1026
sa(dp40
g3
I0
sg4
VHurricane
p41
sg6
I1031
sg7
I1039
sa(dp42
g3
I0
sg4
VMaria.
p43
sg6
I1041
sg7
I1046
sa(dp44
g3
I0
sg4
VPuerto
p45
sg6
I1125
sg7
I1130
sa(dp46
g3
I0
sg4
VRican
p47
sg6
I1132
sg7
I1136
sa(dp48
g3
I0
sg4
VEducation
p49
sg6
I1214
sg7
I1222
sa(dp50
g3
I0
sg4
VCouncil
p51
sg6
I1224
sg7
I1230
sa(dp52
g3
I0
sg4
VPuerto
p53
sg6
I1235
sg7
I1240
sa(dp54
g3
I0
sg4
VRico.
p55
sg6
I1242
sg7
I1246
sa(dp56
g3
I0
sg4
VElite
p57
sg6
I1248
sg7
I1252
sa(dp58
g3
I0
sg4
VBrown
p59
sg6
I1272
sg7
I1276
sa(dp60
g3
I0
sg4
VCornell
p61
sg6
I1289
sg7
I1295
sa(dp62
g3
I0
sg4
VTulane
p63
sg6
I1312
sg7
I1317
sa(dp64
g3
I0
sg4
VPuerto
p65
sg6
I1411
sg7
I1416
sa(dp66
g3
I0
sg4
VRico
p67
sg6
I1418
sg7
I1421
sa(dp68
g3
I0
sg4
VUnited
p69
sg6
I1431
sg7
I1436
sa(dp70
g3
I0
sg4
VStates
p71
sg6
I1438
sg7
I1443
sa(dp72
g3
I0
sg4
VVirgin
p73
sg6
I1445
sg7
I1450
sa(dp74
g3
I0
sg4
VIslands
p75
sg6
I1452
sg7
I1458
sa(dp76
g3
I0
sg4
VState
p77
sg6
I1475
sg7
I1479
sa(dp78
g3
I0
sg4
VNew
p79
sg6
I1495
sg7
I1497
sa(dp80
g3
I0
sg4
VYork
p81
sg6
I1499
sg7
I1502
sa(dp82
g3
I0
sg4
VHurricane
p83
sg6
I1548
sg7
I1556
sa(dp84
g3
I0
sg4
VMaria
p85
sg6
I1558
sg7
I1562
sa(dp86
g3
I0
sg4
VPuerto
p87
sg6
I1605
sg7
I1610
sa(dp88
g3
I0
sg4
VRico.
p89
sg6
I1612
sg7
I1616
sa(dp90
g3
I0
sg4
VEntire
p91
sg6
I1675
sg7
I1680
sasI2
(lp92
(dp93
g3
I0
sg4
VNew York
p94
sg6
I48
sg7
I55
sa(dp95
g3
I0
sg4
VYork University
p96
sg6
I52
sg7
I66
sa(dp97
g3
I0
sg4
VPuerto Rico
p98
sg6
I162
sg7
I172
sa(dp99
g3
I0
sg4
VHurricane Maria.
p100
sg6
I208
sg7
I223
sa(dp101
g3
I0
sg4
VPuerto Rico
p102
sg6
I465
sg7
I475
sa(dp103
g3
I0
sg4
VAndrew Hamilton
p104
sg6
I581
sg7
I595
sa(dp105
g3
I0
sg4
VPuerto Rico
p106
sg6
I1016
sg7
I1026
sa(dp107
g3
I0
sg4
VHurricane Maria.
p108
sg6
I1031
sg7
I1046
sa(dp109
g3
I0
sg4
VPuerto Rican
p110
sg6
I1125
sg7
I1136
sa(dp111
g3
I0
sg4
VEducation Council
p112
sg6
I1214
sg7
I1230
sa(dp113
g3
I0
sg4
VPuerto Rico.
p114
sg6
I1235
sg7
I1246
sa(dp115
g3
I1
sg4
VBrown University
p116
sg6
I1272
sg7
I1287
sa(dp117
g3
I0
sg4
VUniversity Cornell
p118
sg6
I1278
sg7
I1295
sa(dp119
g3
I1
sg4
VCornell University
p120
sg6
I1289
sg7
I1306
sa(dp121
g3
I1
sg4
VTulane University
p122
sg6
I1312
sg7
I1328
sa(dp123
g3
I0
sg4
VPuerto Rico
p124
sg6
I1411
sg7
I1421
sa(dp125
g3
I0
sg4
VUnited States
p126
sg6
I1431
sg7
I1443
sa(dp127
g3
I0
sg4
VStates Virgin
p128
sg6
I1438
sg7
I1450
sa(dp129
g3
I0
sg4
VVirgin Islands
p130
sg6
I1445
sg7
I1458
sa(dp131
g3
I0
sg4
VState University
p132
sg6
I1475
sg7
I1490
sa(dp133
g3
I0
sg4
VNew York
p134
sg6
I1495
sg7
I1502
sa(dp135
g3
I0
sg4
VHurricane Maria
p136
sg6
I1548
sg7
I1562
sa(dp137
g3
I0
sg4
VPuerto Rico.
p138
sg6
I1605
sg7
I1616
sasI3
(lp139
(dp140
g3
I1
sg4
VNew York University
p141
sg6
I48
sg7
I66
sa(dp142
g3
I0
sg4
VCouncil of Puerto
p143
sg6
I1224
sg7
I1240
sa(dp144
g3
I0
sg4
VBrown University Cornell
p145
sg6
I1272
sg7
I1295
sa(dp146
g3
I0
sg4
VUniversity and Tulane
p147
sg6
I1297
sg7
I1317
sa(dp148
g3
I0
sg4
VUnited States Virgin
p149
sg6
I1431
sg7
I1450
sa(dp150
g3
I0
sg4
VStates Virgin Islands
p151
sg6
I1438
sg7
I1458
sa(dp152
g3
I0
sg4
VUniversity of New
p153
sg6
I1481
sg7
I1497
sasI4
(lp154
(dp155
g3
I0
sg4
VEducation Council of Puerto
p156
sg6
I1214
sg7
I1240
sa(dp157
g3
I0
sg4
VCouncil of Puerto Rico.
p158
sg6
I1224
sg7
I1246
sa(dp159
g3
I0
sg4
VCornell University and Tulane
p160
sg6
I1289
sg7
I1317
sa(dp161
g3
I0
sg4
VUnited States Virgin Islands
p162
sg6
I1431
sg7
I1458
sa(dp163
g3
I0
sg4
VState University of New
p164
sg6
I1475
sg7
I1497
sa(dp165
g3
I0
sg4
VUniversity of New York
p166
sg6
I1481
sg7
I1502
sasI5
(lp167
(dp168
g3
I0
sg4
VEducation Council of Puerto Rico.
p169
sg6
I1214
sg7
I1246
sa(dp170
g3
I1
sg4
VState University of New York
p171
sg6
I1475
sg7
I1502
sasI6
(lp172
s.