(dp0
I1
(lp1
(dp2
S'label'
p3
I0
sS'string'
p4
VPuerto
p5
sS'start_index'
p6
I173
sS'end_index'
p7
I178
sa(dp8
g3
I0
sg4
VRico
p9
sg6
I180
sg7
I183
sa(dp10
g3
I0
sg4
VClasses
p11
sg6
I343
sg7
I349
sa(dp12
g3
I0
sg4
VFebruary.
p13
sg6
I468
sg7
I476
sa(dp14
g3
I0
sg4
VSan
p15
sg6
I595
sg7
I597
sa(dp16
g3
I0
sg4
VJuan
p17
sg6
I599
sg7
I602
sa(dp18
g3
I1
sg4
VNYU
p19
sg6
I663
sg7
I665
sa(dp20
g3
I0
sg4
VNew
p21
sg6
I682
sg7
I684
sa(dp22
g3
I0
sg4
VYork
p23
sg6
I686
sg7
I689
sa(dp24
g3
I0
sg4
VHurricane
p25
sg6
I761
sg7
I769
sa(dp26
g3
I0
sg4
VKatrina.
p27
sg6
I771
sg7
I778
sa(dp28
g3
I0
sg4
VHamilton
p29
sg6
I827
sg7
I834
sa(dp30
g3
I1
sg4
VNYU
p31
sg6
I858
sg7
I860
sa(dp32
g3
I0
sg4
VHurricane
p33
sg6
I937
sg7
I945
sa(dp34
g3
I0
sg4
VKatrina
p35
sg6
I947
sg7
I953
sa(dp36
g3
I0
sg4
VPuerto
p37
sg6
I1023
sg7
I1028
sa(dp38
g3
I0
sg4
VRico
p39
sg6
I1030
sg7
I1033
sa(dp40
g3
I0
sg4
VPuerto
p41
sg6
I1140
sg7
I1145
sa(dp42
g3
I0
sg4
VRico
p43
sg6
I1147
sg7
I1150
sa(dp44
g3
I1
sg4
VNYU
p45
sg6
I1172
sg7
I1174
sa(dp46
g3
I0
sg4
VDec.
p47
sg6
I1201
sg7
I1204
sa(dp48
g3
I0
sg4
VPoly
p49
sg6
I1226
sg7
I1229
sa(dp50
g3
I0
sg4
VPrep
p51
sg6
I1231
sg7
I1234
sa(dp52
g3
I0
sg4
VCountry
p53
sg6
I1236
sg7
I1242
sa(dp54
g3
I0
sg4
VDay
p55
sg6
I1244
sg7
I1246
sa(dp56
g3
I0
sg4
VBrooklyn.
p57
sg6
I1258
sg7
I1266
sa(dp58
g3
I0
sg4
VHouse
p59
sg6
I1272
sg7
I1276
sasI2
(lp60
(dp61
g3
I0
sg4
VPuerto Rico
p62
sg6
I173
sg7
I183
sa(dp63
g3
I0
sg4
VSan Juan
p64
sg6
I595
sg7
I602
sa(dp65
g3
I0
sg4
VNew York
p66
sg6
I682
sg7
I689
sa(dp67
g3
I0
sg4
VHurricane Katrina.
p68
sg6
I761
sg7
I778
sa(dp69
g3
I0
sg4
VHurricane Katrina
p70
sg6
I937
sg7
I953
sa(dp71
g3
I0
sg4
VPuerto Rico
p72
sg6
I1023
sg7
I1033
sa(dp73
g3
I0
sg4
VPuerto Rico
p74
sg6
I1140
sg7
I1150
sa(dp75
g3
I0
sg4
VPoly Prep
p76
sg6
I1226
sg7
I1234
sa(dp77
g3
I0
sg4
VPrep Country
p78
sg6
I1231
sg7
I1242
sa(dp79
g3
I0
sg4
VCountry Day
p80
sg6
I1236
sg7
I1246
sa(dp81
g3
I0
sg4
VDay School
p82
sg6
I1244
sg7
I1253
sasI3
(lp83
(dp84
g3
I0
sg4
VUniversity of Puerto
p85
sg6
I159
sg7
I178
sa(dp86
g3
I0
sg4
VPoly Prep Country
p87
sg6
I1226
sg7
I1242
sa(dp88
g3
I0
sg4
VPrep Country Day
p89
sg6
I1231
sg7
I1246
sa(dp90
g3
I0
sg4
VCountry Day School
p91
sg6
I1236
sg7
I1253
sasI4
(lp92
(dp93
g3
I1
sg4
VUniversity of Puerto Rico
p94
sg6
I159
sg7
I183
sa(dp95
g3
I0
sg4
VPoly Prep Country Day
p96
sg6
I1226
sg7
I1246
sa(dp97
g3
I0
sg4
VPrep Country Day School
p98
sg6
I1231
sg7
I1253
sasI5
(lp99
(dp100
g3
I1
sg4
VPoly Prep Country Day School
p101
sg6
I1226
sg7
I1253
sasI6
(lp102
s.