(dp0
I1
(lp1
(dp2
S'label'
p3
I0
sS'string'
p4
VIndiana
p5
sS'start_index'
p6
I26
sS'end_index'
p7
I32
sa(dp8
g3
I0
sg4
VTexas
p9
sg6
I49
sg7
I53
sa(dp10
g3
I0
sg4
VChristian
p11
sg6
I55
sg7
I63
sa(dp12
g3
I0
sg4
VHouston
p13
sg6
I201
sg7
I207
sa(dp14
g3
I0
sg4
VQuintana
p15
sg6
I215
sg7
I222
sa(dp16
g3
I0
sg4
VCapital
p17
sg6
I224
sg7
I230
sa(dp18
g3
I0
sg4
VGroup
p19
sg6
I232
sg7
I236
sa(dp20
g3
I0
sg4
VDonald
p21
sg6
I263
sg7
I268
sa(dp22
g3
I0
sg4
VEvans
p23
sg6
I273
sg7
I277
sa(dp24
g3
I0
sg4
VTexan
p25
sg6
I294
sg7
I298
sa(dp26
g3
I0
sg4
VPresident
p27
sg6
I333
sg7
I341
sa(dp28
g3
I0
sg4
VGeorge
p29
sg6
I343
sg7
I348
sa(dp30
g3
I0
sg4
VBush.
p31
sg6
I353
sg7
I357
sa(dp32
g3
I0
sg4
VEvans
p33
sg6
I395
sg7
I399
sa(dp34
g3
I0
sg4
VTexas
p35
sg6
I489
sg7
I493
sa(dp36
g3
I0
sg4
VUnited
p37
sg6
I560
sg7
I565
sa(dp38
g3
I0
sg4
VStates
p39
sg6
I567
sg7
I572
sa(dp40
g3
I0
sg4
VCayman
p41
sg6
I617
sg7
I622
sa(dp42
g3
I0
sg4
VIslands.
p43
sg6
I624
sg7
I631
sa(dp44
g3
I0
sg4
VIndiana
p45
sg6
I867
sg7
I873
sa(dp46
g3
I0
sg4
VCayman
p47
sg6
I910
sg7
I915
sa(dp48
g3
I0
sg4
VIslands
p49
sg6
I917
sg7
I923
sa(dp50
g3
I0
sg4
VUnited
p51
sg6
I1016
sg7
I1021
sa(dp52
g3
I0
sg4
VStates.
p53
sg6
I1023
sg7
I1029
sasI2
(lp54
(dp55
g3
I1
sg4
VIndiana University
p56
sg6
I26
sg7
I43
sa(dp57
g3
I0
sg4
VTexas Christian
p58
sg6
I49
sg7
I63
sa(dp59
g3
I0
sg4
VChristian University
p60
sg6
I55
sg7
I74
sa(dp61
g3
I0
sg4
VQuintana Capital
p62
sg6
I215
sg7
I230
sa(dp63
g3
I0
sg4
VCapital Group
p64
sg6
I224
sg7
I236
sa(dp65
g3
I0
sg4
VDonald L.
p66
sg6
I263
sg7
I271
sa(dp67
g3
I0
sg4
VL. Evans
p68
sg6
I270
sg7
I277
sa(dp69
g3
I0
sg4
VPresident George
p70
sg6
I333
sg7
I348
sa(dp71
g3
I0
sg4
VGeorge W.
p72
sg6
I343
sg7
I351
sa(dp73
g3
I0
sg4
VW. Bush.
p74
sg6
I350
sg7
I357
sa(dp75
g3
I0
sg4
VUnited States
p76
sg6
I560
sg7
I572
sa(dp77
g3
I0
sg4
VCayman Islands.
p78
sg6
I617
sg7
I631
sa(dp79
g3
I1
sg4
VIndiana University
p80
sg6
I867
sg7
I884
sa(dp81
g3
I0
sg4
VCayman Islands
p82
sg6
I910
sg7
I923
sa(dp83
g3
I0
sg4
VUnited States.
p84
sg6
I1016
sg7
I1029
sasI3
(lp85
(dp86
g3
I0
sg4
VUniversity and Texas
p87
sg6
I34
sg7
I53
sa(dp88
g3
I1
sg4
VTexas Christian University
p89
sg6
I49
sg7
I74
sa(dp90
g3
I0
sg4
VQuintana Capital Group
p91
sg6
I215
sg7
I236
sa(dp92
g3
I0
sg4
VDonald L. Evans
p93
sg6
I263
sg7
I277
sa(dp94
g3
I0
sg4
VPresident George W.
p95
sg6
I333
sg7
I351
sa(dp96
g3
I0
sg4
VGeorge W. Bush.
p97
sg6
I343
sg7
I357
sasI4
(lp98
(dp99
g3
I0
sg4
VIndiana University and Texas
p100
sg6
I26
sg7
I53
sa(dp101
g3
I0
sg4
VUniversity and Texas Christian
p102
sg6
I34
sg7
I63
sa(dp103
g3
I0
sg4
VPresident George W. Bush.
p104
sg6
I333
sg7
I357
sasI5
(lp105
(dp106
g3
I0
sg4
VIndiana University and Texas Christian
p107
sg6
I26
sg7
I63
sasI6
(lp108
s.