(dp0
I1
(lp1
(dp2
S'label'
p3
I0
sS'string'
p4
VTax
p5
sS'start_index'
p6
I0
sS'end_index'
p7
I2
sa(dp8
g3
I0
sg4
VUnited
p9
sg6
I223
sg7
I228
sa(dp10
g3
I0
sg4
VStates
p11
sg6
I230
sg7
I235
sa(dp12
g3
I0
sg4
VEstablishing
p13
sg6
I625
sg7
I636
sa(dp14
g3
I0
sg4
VCayman
p15
sg6
I934
sg7
I939
sa(dp16
g3
I0
sg4
VIslands
p17
sg6
I941
sg7
I947
sa(dp18
g3
I0
sg4
VBritish
p19
sg6
I956
sg7
I962
sa(dp20
g3
I0
sg4
VVirgin
p21
sg6
I964
sg7
I969
sa(dp22
g3
I0
sg4
VIslands.
p23
sg6
I971
sg7
I978
sa(dp24
g3
I0
sg4
VCongress
p25
sg6
I980
sg7
I987
sa(dp26
g3
I0
sg4
VNorman
p27
sg6
I1081
sg7
I1086
sa(dp28
g3
I0
sg4
VSilber
p29
sg6
I1091
sg7
I1096
sa(dp30
g3
I0
sg4
VHofstra
p31
sg6
I1117
sg7
I1123
sa(dp32
g3
I0
sg4
VSamuel
p33
sg6
I1341
sg7
I1346
sa(dp34
g3
I0
sg4
VBrunson
p35
sg6
I1348
sg7
I1354
sa(dp36
g3
I0
sg4
VLoyola
p37
sg6
I1375
sg7
I1380
sa(dp38
g3
I0
sg4
VChicago
p39
sg6
I1393
sg7
I1399
sa(dp40
g3
I0
sg4
VPerhaps
p41
sg6
I1634
sg7
I1640
sa(dp42
g3
I1
sg4
VColgate
p43
sg6
I1783
sg7
I1789
sa(dp44
g3
I1
sg4
VDartmouth
p45
sg6
I1791
sg7
I1799
sa(dp46
g3
I1
sg4
VDuke
p47
sg6
I1801
sg7
I1804
sa(dp48
g3
I1
sg4
VStanford
p49
sg6
I1810
sg7
I1817
sa(dp50
g3
I0
sg4
VMatt
p51
sg6
I1934
sg7
I1937
sa(dp52
g3
I0
sg4
VKavgian
p53
sg6
I1939
sg7
I1945
sa(dp54
g3
I0
sg4
VIndiana
p55
sg6
I1992
sg7
I1998
sa(dp56
g3
I0
sg4
VQuintana.
p57
sg6
I2065
sg7
I2073
sa(dp58
g3
I0
sg4
VQuintana
p59
sg6
I2096
sg7
I2103
sa(dp60
g3
I0
sg4
VTexas
p61
sg6
I2117
sg7
I2121
sa(dp62
g3
I0
sg4
VChristian
p63
sg6
I2123
sg7
I2131
sa(dp64
g3
I0
sg4
VJim
p65
sg6
I2175
sg7
I2177
sa(dp66
g3
I0
sg4
VHille
p67
sg6
I2179
sg7
I2183
sa(dp68
g3
I0
sg4
VHille
p69
sg6
I2263
sg7
I2267
sa(dp70
g3
I0
sg4
VReferences
p71
sg6
I2406
sg7
I2415
sa(dp72
g3
I0
sg4
VAppleby
p73
sg6
I2445
sg7
I2451
sa(dp74
g3
I0
sg4
VNew
p75
sg6
I2475
sg7
I2477
sa(dp76
g3
I0
sg4
VYork
p77
sg6
I2479
sg7
I2482
sa(dp78
g3
I0
sg4
VTimes
p79
sg6
I2484
sg7
I2488
sa(dp80
g3
I0
sg4
VInternational
p81
sg6
I2497
sg7
I2509
sa(dp82
g3
I0
sg4
VConsortium
p83
sg6
I2511
sg7
I2520
sa(dp84
g3
I0
sg4
VInvestigative
p85
sg6
I2525
sg7
I2537
sa(dp86
g3
I0
sg4
VJournalists
p87
sg6
I2539
sg7
I2549
sa(dp88
g3
I0
sg4
VGerman
p89
sg6
I2580
sg7
I2585
sa(dp90
g3
I0
sg4
VZeitung
p91
sg6
I2609
sg7
I2615
sa(dp92
g3
I0
sg4
VColumbia
p93
sg6
I2677
sg7
I2684
sa(dp94
g3
I0
sg4
VDartmouth
p95
sg6
I2697
sg7
I2705
sa(dp96
g3
I0
sg4
VSouthern
p97
sg6
I2733
sg7
I2740
sa(dp98
g3
I0
sg4
VCalifornia
p99
sg6
I2742
sg7
I2751
sa(dp100
g3
I0
sg4
VStanford
p101
sg6
I2753
sg7
I2760
sa(dp102
g3
I0
sg4
VJohns
p103
sg6
I2777
sg7
I2781
sa(dp104
g3
I0
sg4
VHopkins
p105
sg6
I2783
sg7
I2789
sa(dp106
g3
I0
sg4
VBermuda
p107
sg6
I2823
sg7
I2829
sa(dp108
g3
I0
sg4
VH&amp
p109
sg6
I2850
sg7
I2854
sa(dp110
g3
I0
sg4
VInvestors
p111
sg6
I2858
sg7
I2866
sa(dp112
g3
I0
sg4
VBlocker.
p113
sg6
I2868
sg7
I2875
sa(dp114
g3
I0
sg4
VH&amp
p115
sg6
I2877
sg7
I2881
sa(dp116
g3
I0
sg4
VInvestors
p117
sg6
I2885
sg7
I2893
sa(dp118
g3
I0
sg4
VBlocker
p119
sg6
I2895
sg7
I2901
sa(dp120
g3
I0
sg4
VHellman
p121
sg6
I2969
sg7
I2975
sa(dp122
g3
I0
sg4
V&amp
p123
sg6
I2977
sg7
I2980
sa(dp124
g3
I0
sg4
VFriedman
p125
sg6
I2982
sg7
I2989
sa(dp126
g3
I0
sg4
VAxel
p127
sg6
I3004
sg7
I3007
sa(dp128
g3
I0
sg4
VSpringer
p129
sg6
I3009
sg7
I3016
sa(dp130
g3
I0
sg4
VGerman
p131
sg6
I3020
sg7
I3025
sa(dp132
g3
I0
sg4
VMinutes
p133
sg6
I3066
sg7
I3072
sa(dp134
g3
I0
sg4
VAppleby
p135
sg6
I3091
sg7
I3097
sa(dp136
g3
I0
sg4
VHamilton
p137
sg6
I3111
sg7
I3118
sa(dp138
g3
I0
sg4
VBermuda
p139
sg6
I3120
sg7
I3126
sa(dp140
g3
I0
sg4
VErnst
p141
sg6
I3245
sg7
I3249
sa(dp142
g3
I0
sg4
V&amp
p143
sg6
I3251
sg7
I3254
sa(dp144
g3
I0
sg4
VYoung
p145
sg6
I3256
sg7
I3260
sa(dp146
g3
I0
sg4
VH&amp
p147
sg6
I3298
sg7
I3302
sa(dp148
g3
I0
sg4
VInvestors
p149
sg6
I3306
sg7
I3314
sa(dp150
g3
I0
sg4
VBlocker
p151
sg6
I3316
sg7
I3322
sa(dp152
g3
I0
sg4
VTexas
p153
sg6
I3383
sg7
I3387
sa(dp154
g3
I1
sg4
VHarvard
p155
sg6
I3446
sg7
I3452
sa(dp156
g3
I1
sg4
VYale
p157
sg6
I3473
sg7
I3476
sa(dp158
g3
I0
sg4
VAppleby
p159
sg6
I3499
sg7
I3505
sa(dp160
g3
I0
sg4
VCayman
p161
sg6
I3519
sg7
I3524
sa(dp162
g3
I0
sg4
VIslands
p163
sg6
I3526
sg7
I3532
sa(dp164
g3
I0
sg4
VLiquidity
p165
sg6
I3552
sg7
I3560
sa(dp166
g3
I0
sg4
VCapital
p167
sg6
I3562
sg7
I3568
sasI2
(lp168
(dp169
g3
I0
sg4
VUnited States
p170
sg6
I223
sg7
I235
sa(dp171
g3
I0
sg4
VCayman Islands
p172
sg6
I934
sg7
I947
sa(dp173
g3
I0
sg4
VBritish Virgin
p174
sg6
I956
sg7
I969
sa(dp175
g3
I0
sg4
VVirgin Islands.
p176
sg6
I964
sg7
I978
sa(dp177
g3
I0
sg4
VNorman I.
p178
sg6
I1081
sg7
I1089
sa(dp179
g3
I0
sg4
VI. Silber
p180
sg6
I1088
sg7
I1096
sa(dp181
g3
I1
sg4
VHofstra University
p182
sg6
I1117
sg7
I1134
sa(dp183
g3
I0
sg4
VSamuel Brunson
p184
sg6
I1341
sg7
I1354
sa(dp185
g3
I0
sg4
VLoyola University
p186
sg6
I1375
sg7
I1391
sa(dp187
g3
I0
sg4
VUniversity Chicago
p188
sg6
I1382
sg7
I1399
sa(dp189
g3
I0
sg4
VColgate Dartmouth
p190
sg6
I1783
sg7
I1799
sa(dp191
g3
I0
sg4
VDartmouth Duke
p192
sg6
I1791
sg7
I1804
sa(dp193
g3
I0
sg4
VMatt Kavgian
p194
sg6
I1934
sg7
I1945
sa(dp195
g3
I1
sg4
VIndiana University
p196
sg6
I1992
sg7
I2009
sa(dp197
g3
I0
sg4
VTexas Christian
p198
sg6
I2117
sg7
I2131
sa(dp199
g3
I0
sg4
VChristian University
p200
sg6
I2123
sg7
I2142
sa(dp201
g3
I0
sg4
VJim Hille
p202
sg6
I2175
sg7
I2183
sa(dp203
g3
I0
sg4
VNew York
p204
sg6
I2475
sg7
I2482
sa(dp205
g3
I0
sg4
VYork Times
p206
sg6
I2479
sg7
I2488
sa(dp207
g3
I0
sg4
VInternational Consortium
p208
sg6
I2497
sg7
I2520
sa(dp209
g3
I0
sg4
VInvestigative Journalists
p210
sg6
I2525
sg7
I2549
sa(dp211
g3
I1
sg4
VColumbia University
p212
sg6
I2677
sg7
I2695
sa(dp213
g3
I0
sg4
VUniversity Dartmouth
p214
sg6
I2686
sg7
I2705
sa(dp215
g3
I1
sg4
VDartmouth College
p216
sg6
I2697
sg7
I2713
sa(dp217
g3
I0
sg4
VSouthern California
p218
sg6
I2733
sg7
I2751
sa(dp219
g3
I0
sg4
VCalifornia Stanford
p220
sg6
I2742
sg7
I2760
sa(dp221
g3
I1
sg4
VStanford University
p222
sg6
I2753
sg7
I2771
sa(dp223
g3
I0
sg4
VJohns Hopkins
p224
sg6
I2777
sg7
I2789
sa(dp225
g3
I0
sg4
VHopkins University
p226
sg6
I2783
sg7
I2800
sa(dp227
g3
I0
sg4
VH&amp F
p228
sg6
I2850
sg7
I2856
sa(dp229
g3
I0
sg4
VF Investors
p230
sg6
I2856
sg7
I2866
sa(dp231
g3
I0
sg4
VInvestors Blocker.
p232
sg6
I2858
sg7
I2875
sa(dp233
g3
I0
sg4
VH&amp F
p234
sg6
I2877
sg7
I2883
sa(dp235
g3
I0
sg4
VF Investors
p236
sg6
I2883
sg7
I2893
sa(dp237
g3
I0
sg4
VInvestors Blocker
p238
sg6
I2885
sg7
I2901
sa(dp239
g3
I0
sg4
VHellman &amp
p240
sg6
I2969
sg7
I2980
sa(dp241
g3
I0
sg4
V&amp Friedman
p242
sg6
I2977
sg7
I2989
sa(dp243
g3
I0
sg4
VAxel Springer
p244
sg6
I3004
sg7
I3016
sa(dp245
g3
I0
sg4
VHamilton Bermuda
p246
sg6
I3111
sg7
I3126
sa(dp247
g3
I0
sg4
VErnst &amp
p248
sg6
I3245
sg7
I3254
sa(dp249
g3
I0
sg4
V&amp Young
p250
sg6
I3251
sg7
I3260
sa(dp251
g3
I0
sg4
VH&amp F
p252
sg6
I3298
sg7
I3304
sa(dp253
g3
I0
sg4
VF Investors
p254
sg6
I3304
sg7
I3314
sa(dp255
g3
I0
sg4
VInvestors Blocker
p256
sg6
I3306
sg7
I3322
sa(dp257
g3
I0
sg4
VCayman Islands
p258
sg6
I3519
sg7
I3532
sa(dp259
g3
I0
sg4
VTX Liquidity
p260
sg6
I3549
sg7
I3560
sa(dp261
g3
I0
sg4
VLiquidity Capital
p262
sg6
I3552
sg7
I3568
sasI3
(lp263
(dp264
g3
I0
sg4
VBritish Virgin Islands.
p265
sg6
I956
sg7
I978
sa(dp266
g3
I0
sg4
VNorman I. Silber
p267
sg6
I1081
sg7
I1096
sa(dp268
g3
I1
sg4
VLoyola University Chicago
p269
sg6
I1375
sg7
I1399
sa(dp270
g3
I0
sg4
VColgate Dartmouth Duke
p271
sg6
I1783
sg7
I1804
sa(dp272
g3
I0
sg4
VDuke and Stanford
p273
sg6
I1801
sg7
I1817
sa(dp274
g3
I1
sg4
VTexas Christian University
p275
sg6
I2117
sg7
I2142
sa(dp276
g3
I0
sg4
VNew York Times
p277
sg6
I2475
sg7
I2488
sa(dp278
g3
I0
sg4
VConsortium of Investigative
p279
sg6
I2511
sg7
I2537
sa(dp280
g3
I0
sg4
VColumbia University Dartmouth
p281
sg6
I2677
sg7
I2705
sa(dp282
g3
I0
sg4
VUniversity of Southern
p283
sg6
I2719
sg7
I2740
sa(dp284
g3
I0
sg4
VSouthern California Stanford
p285
sg6
I2733
sg7
I2760
sa(dp286
g3
I0
sg4
VCalifornia Stanford University
p287
sg6
I2742
sg7
I2771
sa(dp288
g3
I0
sg4
VUniversity and Johns
p289
sg6
I2762
sg7
I2781
sa(dp290
g3
I1
sg4
VJohns Hopkins University
p291
sg6
I2777
sg7
I2800
sa(dp292
g3
I0
sg4
VH&amp F Investors
p293
sg6
I2850
sg7
I2866
sa(dp294
g3
I0
sg4
VF Investors Blocker.
p295
sg6
I2856
sg7
I2875
sa(dp296
g3
I0
sg4
VH&amp F Investors
p297
sg6
I2877
sg7
I2893
sa(dp298
g3
I0
sg4
VF Investors Blocker
p299
sg6
I2883
sg7
I2901
sa(dp300
g3
I0
sg4
VHellman &amp Friedman
p301
sg6
I2969
sg7
I2989
sa(dp302
g3
I0
sg4
VErnst &amp Young
p303
sg6
I3245
sg7
I3260
sa(dp304
g3
I0
sg4
VH&amp F Investors
p305
sg6
I3298
sg7
I3314
sa(dp306
g3
I0
sg4
VF Investors Blocker
p307
sg6
I3304
sg7
I3322
sa(dp308
g3
I1
sg4
VUniversity of Texas
p309
sg6
I3369
sg7
I3387
sa(dp310
g3
I0
sg4
VTX Liquidity Capital
p311
sg6
I3549
sg7
I3568
sasI4
(lp312
(dp313
g3
I0
sg4
VDartmouth Duke and Stanford
p314
sg6
I1791
sg7
I1817
sa(dp315
g3
I0
sg4
VInternational Consortium of Investigative
p316
sg6
I2497
sg7
I2537
sa(dp317
g3
I0
sg4
VConsortium of Investigative Journalists
p318
sg6
I2511
sg7
I2549
sa(dp319
g3
I1
sg4
VUniversity of Southern California
p320
sg6
I2719
sg7
I2751
sa(dp321
g3
I0
sg4
VSouthern California Stanford University
p322
sg6
I2733
sg7
I2771
sa(dp323
g3
I0
sg4
VStanford University and Johns
p324
sg6
I2753
sg7
I2781
sa(dp325
g3
I0
sg4
VUniversity and Johns Hopkins
p326
sg6
I2762
sg7
I2789
sa(dp327
g3
I0
sg4
VH&amp F Investors Blocker.
p328
sg6
I2850
sg7
I2875
sa(dp329
g3
I0
sg4
VH&amp F Investors Blocker
p330
sg6
I2877
sg7
I2901
sa(dp331
g3
I0
sg4
VH&amp F Investors Blocker
p332
sg6
I3298
sg7
I3322
sasI5
(lp333
(dp334
g3
I0
sg4
VColgate Dartmouth Duke and Stanford
p335
sg6
I1783
sg7
I1817
sa(dp336
g3
I0
sg4
VInternational Consortium of Investigative Journalists
p337
sg6
I2497
sg7
I2549
sa(dp338
g3
I0
sg4
VUniversity of Southern California Stanford
p339
sg6
I2719
sg7
I2760
sa(dp340
g3
I0
sg4
VCalifornia Stanford University and Johns
p341
sg6
I2742
sg7
I2781
sa(dp342
g3
I0
sg4
VStanford University and Johns Hopkins
p343
sg6
I2753
sg7
I2789
sasI6
(lp344
(dp345
g3
I0
sg4
VSouthern California Stanford University and Johns
p346
sg6
I2733
sg7
I2781
sa(dp347
g3
I0
sg4
VCalifornia Stanford University and Johns Hopkins
p348
sg6
I2742
sg7
I2789
sas.