(dp0
I1
(lp1
(dp2
S'label'
p3
I0
sS'string'
p4
VDartmouth
p5
sS'start_index'
p6
I8
sS'end_index'
p7
I16
sa(dp8
g3
I0
sg4
VBermuda
p9
sg6
I68
sg7
I74
sa(dp10
g3
I0
sg4
VShift
p11
sg6
I147
sg7
I151
sa(dp12
g3
I0
sg4
VPublic
p13
sg6
I156
sg7
I161
sa(dp14
g3
I0
sg4
VAttitudeWhile
p15
sg6
I163
sg7
I175
sa(dp16
g3
I0
sg4
VLast
p17
sg6
I521
sg7
I524
sa(dp18
g3
I0
sg4
VRepublican
p19
sg6
I549
sg7
I558
sa(dp20
g3
I0
sg4
VSenator
p21
sg6
I579
sg7
I585
sa(dp22
g3
I0
sg4
VOrrin
p23
sg6
I587
sg7
I591
sa(dp24
g3
I0
sg4
VHatch
p25
sg6
I596
sg7
I600
sa(dp26
g3
I1
sg4
VUtah
p27
sg6
I605
sg7
I608
sa(dp28
g3
I0
sg4
VCharlie
p29
sg6
I1080
sg7
I1086
sa(dp30
g3
I0
sg4
VEaton
p31
sg6
I1088
sg7
I1092
sa(dp32
g3
I0
sg4
VCalifornia
p33
sg6
I1127
sg7
I1136
sasI2
(lp34
(dp35
g3
I1
sg4
VDartmouth College
p36
sg6
I8
sg7
I24
sa(dp37
g3
I0
sg4
VPublic AttitudeWhile
p38
sg6
I156
sg7
I175
sa(dp39
g3
I0
sg4
VSenator Orrin
p40
sg6
I579
sg7
I591
sa(dp41
g3
I0
sg4
VOrrin G.
p42
sg6
I587
sg7
I594
sa(dp43
g3
I0
sg4
VG. Hatch
p44
sg6
I593
sg7
I600
sa(dp45
g3
I0
sg4
VCharlie Eaton
p46
sg6
I1080
sg7
I1092
sasI3
(lp47
(dp48
g3
I0
sg4
VSenator Orrin G.
p49
sg6
I579
sg7
I594
sa(dp50
g3
I0
sg4
VOrrin G. Hatch
p51
sg6
I587
sg7
I600
sa(dp52
g3
I0
sg4
VHatch of Utah
p53
sg6
I596
sg7
I608
sa(dp54
g3
I1
sg4
VUniversity of California
p55
sg6
I1113
sg7
I1136
sasI4
(lp56
(dp57
g3
I0
sg4
VSenator Orrin G. Hatch
p58
sg6
I579
sg7
I600
sa(dp59
g3
I0
sg4
VG. Hatch of Utah
p60
sg6
I593
sg7
I608
sasI5
(lp61
(dp62
g3
I0
sg4
VOrrin G. Hatch of Utah
p63
sg6
I587
sg7
I608
sasI6
(lp64
(dp65
g3
I0
sg4
VSenator Orrin G. Hatch of Utah
p66
sg6
I579
sg7
I608
sas.