(dp0
I1
(lp1
(dp2
S'label'
p3
I0
sS'string'
p4
VColumbia
p5
sS'start_index'
p6
I0
sS'end_index'
p7
I7
sa(dp8
g3
I0
sg4
VIsle
p9
sg6
I81
sg7
I84
sa(dp10
g3
I0
sg4
VMan
p11
sg6
I89
sg7
I91
sa(dp12
g3
I0
sg4
VBrazil.
p13
sg6
I147
sg7
I153
sa(dp14
g3
I0
sg4
VAppleby
p15
sg6
I159
sg7
I165
sa(dp16
g3
I1
sg4
VColumbia
p17
sg6
I205
sg7
I212
sa(dp18
g3
I1
sg4
VDuke
p19
sg6
I218
sg7
I221
sa(dp20
g3
I0
sg4
VFerrous
p21
sg6
I295
sg7
I301
sa(dp22
g3
I0
sg4
VResources
p23
sg6
I303
sg7
I311
sa(dp24
g3
I0
sg4
VIsle
p25
sg6
I331
sg7
I334
sa(dp26
g3
I0
sg4
VMan.
p27
sg6
I339
sg7
I342
sa(dp28
g3
I0
sg4
VBrazil.
p29
sg6
I383
sg7
I389
sa(dp30
g3
I0
sg4
VMinas
p31
sg6
I502
sg7
I506
sa(dp32
g3
I0
sg4
VGerais
p33
sg6
I508
sg7
I513
sa(dp34
g3
I0
sg4
VMajor
p35
sg6
I526
sg7
I530
sa(dp36
g3
I0
sg4
VSociety
p37
sg6
I685
sg7
I691
sa(dp38
g3
I0
sg4
V&amp
p39
sg6
I693
sg7
I696
sa(dp40
g3
I0
sg4
VNature.
p41
sg6
I698
sg7
I704
sa(dp42
g3
I0
sg4
VFerrous
p43
sg6
I942
sg7
I948
sa(dp44
g3
I0
sg4
VResources
p45
sg6
I950
sg7
I958
sa(dp46
g3
I1
sg4
VColumbia
p47
sg6
I1034
sg7
I1041
sa(dp48
g3
I0
sg4
VFerrous
p49
sg6
I1089
sg7
I1095
sa(dp50
g3
I0
sg4
VRecources
p51
sg6
I1097
sg7
I1105
sa(dp52
g3
I0
sg4
VVarious
p53
sg6
I1159
sg7
I1165
sa(dp54
g3
I1
sg4
VDuke
p55
sg6
I1197
sg7
I1200
sasI2
(lp56
(dp57
g3
I1
sg4
VColumbia University
p58
sg6
I0
sg7
I18
sa(dp59
g3
I0
sg4
VFerrous Resources
p60
sg6
I295
sg7
I311
sa(dp61
g3
I0
sg4
VMinas Gerais
p62
sg6
I502
sg7
I513
sa(dp63
g3
I0
sg4
VSociety &amp
p64
sg6
I685
sg7
I696
sa(dp65
g3
I0
sg4
V&amp Nature.
p66
sg6
I693
sg7
I704
sa(dp67
g3
I0
sg4
VFerrous Resources
p68
sg6
I942
sg7
I958
sa(dp69
g3
I0
sg4
VFerrous Recources
p70
sg6
I1089
sg7
I1105
sasI3
(lp71
(dp72
g3
I0
sg4
VIsle of Man
p73
sg6
I81
sg7
I91
sa(dp74
g3
I0
sg4
VColumbia and Duke
p75
sg6
I205
sg7
I221
sa(dp76
g3
I0
sg4
VIsle of Man.
p77
sg6
I331
sg7
I342
sa(dp78
g3
I0
sg4
VSociety &amp Nature.
p79
sg6
I685
sg7
I704
sasI4
(lp80
sI5
(lp81
sI6
(lp82
s.