(dp0
I1
(lp1
(dp2
S'label'
p3
I0
sS'string'
p4
VUnderscoring
p5
sS'start_index'
p6
I0
sS'end_index'
p7
I11
sa(dp8
g3
I0
sg4
VCayman
p9
sg6
I82
sg7
I87
sa(dp10
g3
I0
sg4
VIslands
p11
sg6
I89
sg7
I95
sa(dp12
g3
I0
sg4
VEnCap
p13
sg6
I126
sg7
I130
sa(dp14
g3
I0
sg4
VEnergy
p15
sg6
I132
sg7
I137
sa(dp16
g3
I0
sg4
VCapital
p17
sg6
I139
sg7
I145
sa(dp18
g3
I0
sg4
VFund
p19
sg6
I147
sg7
I150
sa(dp20
g3
I0
sg4
VEnCap
p21
sg6
I165
sg7
I169
sa(dp22
g3
I0
sg4
VInvestments
p23
sg6
I171
sg7
I181
sa(dp24
g3
I0
sg4
VNorth
p25
sg6
I250
sg7
I254
sa(dp26
g3
I0
sg4
VAmerican
p27
sg6
I256
sg7
I263
sa(dp28
g3
I0
sg4
VAlabama
p29
sg6
I332
sg7
I338
sa(dp30
g3
I1
sg4
VDePauw
p31
sg6
I340
sg7
I345
sa(dp32
g3
I1
sg4
VNortheastern
p33
sg6
I347
sg7
I358
sa(dp34
g3
I1
sg4
VPittsburgh
p35
sg6
I360
sg7
I369
sa(dp36
g3
I1
sg4
VPurdue
p37
sg6
I371
sg7
I376
sa(dp38
g3
I0
sg4
VReed
p39
sg6
I378
sg7
I381
sa(dp40
g3
I1
sg4
VRutgers
p41
sg6
I391
sg7
I397
sa(dp42
g3
I1
sg4
VSyracuse
p43
sg6
I399
sg7
I406
sa(dp44
g3
I0
sg4
VTexas
p45
sg6
I408
sg7
I412
sa(dp46
g3
I0
sg4
VTech
p47
sg6
I414
sg7
I417
sa(dp48
g3
I0
sg4
VWashington
p49
sg6
I423
sg7
I432
sa(dp50
g3
I0
sg4
VState.
p51
sg6
I434
sg7
I439
sa(dp52
g3
I0
sg4
VJournalism
p53
sg6
I441
sg7
I450
sa(dp54
g3
I0
sg4
VNew
p55
sg6
I466
sg7
I468
sa(dp56
g3
I0
sg4
VYork
p57
sg6
I470
sg7
I473
sa(dp58
g3
I0
sg4
VAbu
p59
sg6
I524
sg7
I526
sa(dp60
g3
I0
sg4
VDhabi
p61
sg6
I528
sg7
I532
sa(dp62
g3
I0
sg4
VUnited
p63
sg6
I564
sg7
I569
sa(dp64
g3
I0
sg4
VArab
p65
sg6
I571
sg7
I574
sa(dp66
g3
I0
sg4
VEmirates
p67
sg6
I576
sg7
I583
sa(dp68
g3
I0
sg4
VMohamad
p69
sg6
I781
sg7
I787
sa(dp70
g3
I0
sg4
VBazzi
p71
sg6
I789
sg7
I793
sa(dp72
g3
I1
sg4
VNYU
p73
sg6
I841
sg7
I843
sa(dp74
g3
I0
sg4
VUnited
p75
sg6
I909
sg7
I914
sa(dp76
g3
I0
sg4
VArab
p77
sg6
I916
sg7
I919
sa(dp78
g3
I0
sg4
VEmirates
p79
sg6
I921
sg7
I928
sa(dp80
g3
I0
sg4
VBazzi
p81
sg6
I987
sg7
I991
sa(dp82
g3
I0
sg4
VLebanon
p83
sg6
I1009
sg7
I1015
sa(dp84
g3
I0
sg4
VArang
p85
sg6
I1021
sg7
I1025
sa(dp86
g3
I0
sg4
VKeshavarzian
p87
sg6
I1027
sg7
I1038
sa(dp88
g3
I0
sg4
VShiite
p89
sg6
I1154
sg7
I1159
sa(dp90
g3
I0
sg4
VMuslims
p91
sg6
I1161
sg7
I1167
sa(dp92
g3
I0
sg4
VAbu
p93
sg6
I1235
sg7
I1237
sa(dp94
g3
I0
sg4
VDhabi
p95
sg6
I1239
sg7
I1243
sa(dp96
g3
I0
sg4
VSunni
p97
sg6
I1309
sg7
I1313
sa(dp98
g3
I0
sg4
VMuslim
p99
sg6
I1315
sg7
I1320
sa(dp100
g3
I0
sg4
VArthur
p101
sg6
I1462
sg7
I1467
sa(dp102
g3
I0
sg4
VCarter
p103
sg6
I1472
sg7
I1477
sa(dp104
g3
I0
sg4
VJournalism
p105
sg6
I1479
sg7
I1488
sa(dp106
g3
I0
sg4
VAndrew
p107
sg6
I1544
sg7
I1549
sa(dp108
g3
I0
sg4
VHamilton
p109
sg6
I1554
sg7
I1561
sa(dp110
g3
I0
sg4
VNov.
p111
sg6
I1566
sg7
I1569
sasI2
(lp112
(dp113
g3
I0
sg4
VCayman Islands
p114
sg6
I82
sg7
I95
sa(dp115
g3
I0
sg4
VEnCap Energy
p116
sg6
I126
sg7
I137
sa(dp117
g3
I0
sg4
VEnergy Capital
p118
sg6
I132
sg7
I145
sa(dp119
g3
I0
sg4
VCapital Fund
p120
sg6
I139
sg7
I150
sa(dp121
g3
I0
sg4
VFund IX
p122
sg6
I147
sg7
I153
sa(dp123
g3
I0
sg4
VIX C
p124
sg6
I152
sg7
I155
sa(dp125
g3
I0
sg4
VEnCap Investments
p126
sg6
I165
sg7
I181
sa(dp127
g3
I0
sg4
VNorth American
p128
sg6
I250
sg7
I263
sa(dp129
g3
I0
sg4
VAlabama DePauw
p130
sg6
I332
sg7
I345
sa(dp131
g3
I0
sg4
VDePauw Northeastern
p132
sg6
I340
sg7
I358
sa(dp133
g3
I0
sg4
VNortheastern Pittsburgh
p134
sg6
I347
sg7
I369
sa(dp135
g3
I0
sg4
VPittsburgh Purdue
p136
sg6
I360
sg7
I376
sa(dp137
g3
I0
sg4
VPurdue Reed
p138
sg6
I371
sg7
I381
sa(dp139
g3
I1
sg4
VReed College
p140
sg6
I378
sg7
I389
sa(dp141
g3
I0
sg4
VCollege Rutgers
p142
sg6
I383
sg7
I397
sa(dp143
g3
I0
sg4
VRutgers Syracuse
p144
sg6
I391
sg7
I406
sa(dp145
g3
I0
sg4
VSyracuse Texas
p146
sg6
I399
sg7
I412
sa(dp147
g3
I1
sg4
VTexas Tech
p148
sg6
I408
sg7
I417
sa(dp149
g3
I1
sg4
VWashington State.
p150
sg6
I423
sg7
I439
sa(dp151
g3
I0
sg4
VNew York
p152
sg6
I466
sg7
I473
sa(dp153
g3
I0
sg4
VYork University
p154
sg6
I470
sg7
I484
sa(dp155
g3
I0
sg4
VAbu Dhabi
p156
sg6
I524
sg7
I532
sa(dp157
g3
I0
sg4
VUnited Arab
p158
sg6
I564
sg7
I574
sa(dp159
g3
I0
sg4
VArab Emirates
p160
sg6
I571
sg7
I583
sa(dp161
g3
I0
sg4
VMohamad Bazzi
p162
sg6
I781
sg7
I793
sa(dp163
g3
I0
sg4
VUnited Arab
p164
sg6
I909
sg7
I919
sa(dp165
g3
I0
sg4
VArab Emirates
p166
sg6
I916
sg7
I928
sa(dp167
g3
I0
sg4
VArang Keshavarzian
p168
sg6
I1021
sg7
I1038
sa(dp169
g3
I0
sg4
VShiite Muslims
p170
sg6
I1154
sg7
I1167
sa(dp171
g3
I0
sg4
VAbu Dhabi
p172
sg6
I1235
sg7
I1243
sa(dp173
g3
I0
sg4
VSunni Muslim
p174
sg6
I1309
sg7
I1320
sa(dp175
g3
I0
sg4
VArthur L.
p176
sg6
I1462
sg7
I1470
sa(dp177
g3
I0
sg4
VL. Carter
p178
sg6
I1469
sg7
I1477
sa(dp179
g3
I0
sg4
VCarter Journalism
p180
sg6
I1472
sg7
I1488
sa(dp181
g3
I0
sg4
VJournalism Institute
p182
sg6
I1479
sg7
I1498
sa(dp183
g3
I0
sg4
VAndrew D.
p184
sg6
I1544
sg7
I1552
sa(dp185
g3
I0
sg4
VD. Hamilton
p186
sg6
I1551
sg7
I1561
sasI3
(lp187
(dp188
g3
I0
sg4
VEnCap Energy Capital
p189
sg6
I126
sg7
I145
sa(dp190
g3
I0
sg4
VEnergy Capital Fund
p191
sg6
I132
sg7
I150
sa(dp192
g3
I0
sg4
VCapital Fund IX
p193
sg6
I139
sg7
I153
sa(dp194
g3
I0
sg4
VFund IX C
p195
sg6
I147
sg7
I155
sa(dp196
g3
I1
sg4
VUniversity of Alabama
p197
sg6
I318
sg7
I338
sa(dp198
g3
I0
sg4
VAlabama DePauw Northeastern
p199
sg6
I332
sg7
I358
sa(dp200
g3
I0
sg4
VDePauw Northeastern Pittsburgh
p201
sg6
I340
sg7
I369
sa(dp202
g3
I0
sg4
VNortheastern Pittsburgh Purdue
p203
sg6
I347
sg7
I376
sa(dp204
g3
I0
sg4
VPittsburgh Purdue Reed
p205
sg6
I360
sg7
I381
sa(dp206
g3
I0
sg4
VPurdue Reed College
p207
sg6
I371
sg7
I389
sa(dp208
g3
I0
sg4
VReed College Rutgers
p209
sg6
I378
sg7
I397
sa(dp210
g3
I0
sg4
VCollege Rutgers Syracuse
p211
sg6
I383
sg7
I406
sa(dp212
g3
I0
sg4
VRutgers Syracuse Texas
p213
sg6
I391
sg7
I412
sa(dp214
g3
I0
sg4
VSyracuse Texas Tech
p215
sg6
I399
sg7
I417
sa(dp216
g3
I0
sg4
VTech and Washington
p217
sg6
I414
sg7
I432
sa(dp218
g3
I1
sg4
VNew York University
p219
sg6
I466
sg7
I484
sa(dp220
g3
I0
sg4
VUnited Arab Emirates
p221
sg6
I564
sg7
I583
sa(dp222
g3
I0
sg4
VUnited Arab Emirates
p223
sg6
I909
sg7
I928
sa(dp224
g3
I0
sg4
VLebanon and Arang
p225
sg6
I1009
sg7
I1025
sa(dp226
g3
I0
sg4
VArthur L. Carter
p227
sg6
I1462
sg7
I1477
sa(dp228
g3
I0
sg4
VL. Carter Journalism
p229
sg6
I1469
sg7
I1488
sa(dp230
g3
I0
sg4
VCarter Journalism Institute
p231
sg6
I1472
sg7
I1498
sa(dp232
g3
I0
sg4
VAndrew D. Hamilton
p233
sg6
I1544
sg7
I1561
sasI4
(lp234
(dp235
g3
I0
sg4
VEnCap Energy Capital Fund
p236
sg6
I126
sg7
I150
sa(dp237
g3
I0
sg4
VEnergy Capital Fund IX
p238
sg6
I132
sg7
I153
sa(dp239
g3
I0
sg4
VCapital Fund IX C
p240
sg6
I139
sg7
I155
sa(dp241
g3
I0
sg4
VUniversity of Alabama DePauw
p242
sg6
I318
sg7
I345
sa(dp243
g3
I0
sg4
VAlabama DePauw Northeastern Pittsburgh
p244
sg6
I332
sg7
I369
sa(dp245
g3
I0
sg4
VDePauw Northeastern Pittsburgh Purdue
p246
sg6
I340
sg7
I376
sa(dp247
g3
I0
sg4
VNortheastern Pittsburgh Purdue Reed
p248
sg6
I347
sg7
I381
sa(dp249
g3
I0
sg4
VPittsburgh Purdue Reed College
p250
sg6
I360
sg7
I389
sa(dp251
g3
I0
sg4
VPurdue Reed College Rutgers
p252
sg6
I371
sg7
I397
sa(dp253
g3
I0
sg4
VReed College Rutgers Syracuse
p254
sg6
I378
sg7
I406
sa(dp255
g3
I0
sg4
VCollege Rutgers Syracuse Texas
p256
sg6
I383
sg7
I412
sa(dp257
g3
I0
sg4
VRutgers Syracuse Texas Tech
p258
sg6
I391
sg7
I417
sa(dp259
g3
I0
sg4
VTexas Tech and Washington
p260
sg6
I408
sg7
I432
sa(dp261
g3
I0
sg4
VTech and Washington State.
p262
sg6
I414
sg7
I439
sa(dp263
g3
I0
sg4
VLebanon and Arang Keshavarzian
p264
sg6
I1009
sg7
I1038
sa(dp265
g3
I0
sg4
VArthur L. Carter Journalism
p266
sg6
I1462
sg7
I1488
sa(dp267
g3
I0
sg4
VL. Carter Journalism Institute
p268
sg6
I1469
sg7
I1498
sasI5
(lp269
(dp270
g3
I0
sg4
VEnCap Energy Capital Fund IX
p271
sg6
I126
sg7
I153
sa(dp272
g3
I0
sg4
VEnergy Capital Fund IX C
p273
sg6
I132
sg7
I155
sa(dp274
g3
I0
sg4
VUniversity of Alabama DePauw Northeastern
p275
sg6
I318
sg7
I358
sa(dp276
g3
I0
sg4
VAlabama DePauw Northeastern Pittsburgh Purdue
p277
sg6
I332
sg7
I376
sa(dp278
g3
I0
sg4
VDePauw Northeastern Pittsburgh Purdue Reed
p279
sg6
I340
sg7
I381
sa(dp280
g3
I0
sg4
VNortheastern Pittsburgh Purdue Reed College
p281
sg6
I347
sg7
I389
sa(dp282
g3
I0
sg4
VPittsburgh Purdue Reed College Rutgers
p283
sg6
I360
sg7
I397
sa(dp284
g3
I0
sg4
VPurdue Reed College Rutgers Syracuse
p285
sg6
I371
sg7
I406
sa(dp286
g3
I0
sg4
VReed College Rutgers Syracuse Texas
p287
sg6
I378
sg7
I412
sa(dp288
g3
I0
sg4
VCollege Rutgers Syracuse Texas Tech
p289
sg6
I383
sg7
I417
sa(dp290
g3
I0
sg4
VSyracuse Texas Tech and Washington
p291
sg6
I399
sg7
I432
sa(dp292
g3
I0
sg4
VTexas Tech and Washington State.
p293
sg6
I408
sg7
I439
sa(dp294
g3
I1
sg4
VArthur L. Carter Journalism Institute
p295
sg6
I1462
sg7
I1498
sasI6
(lp296
(dp297
g3
I0
sg4
VEnCap Energy Capital Fund IX C
p298
sg6
I126
sg7
I155
sa(dp299
g3
I0
sg4
VUniversity of Alabama DePauw Northeastern Pittsburgh
p300
sg6
I318
sg7
I369
sa(dp301
g3
I0
sg4
VAlabama DePauw Northeastern Pittsburgh Purdue Reed
p302
sg6
I332
sg7
I381
sa(dp303
g3
I0
sg4
VDePauw Northeastern Pittsburgh Purdue Reed College
p304
sg6
I340
sg7
I389
sa(dp305
g3
I0
sg4
VNortheastern Pittsburgh Purdue Reed College Rutgers
p306
sg6
I347
sg7
I397
sa(dp307
g3
I0
sg4
VPittsburgh Purdue Reed College Rutgers Syracuse
p308
sg6
I360
sg7
I406
sa(dp309
g3
I0
sg4
VPurdue Reed College Rutgers Syracuse Texas
p310
sg6
I371
sg7
I412
sa(dp311
g3
I0
sg4
VReed College Rutgers Syracuse Texas Tech
p312
sg6
I378
sg7
I417
sa(dp313
g3
I0
sg4
VRutgers Syracuse Texas Tech and Washington
p314
sg6
I391
sg7
I432
sa(dp315
g3
I0
sg4
VSyracuse Texas Tech and Washington State.
p316
sg6
I399
sg7
I439
sas.