(dp0
I1
(lp1
(dp2
S'label'
p3
I0
sS'string'
p4
VHamilton
p5
sS'start_index'
p6
I14
sS'end_index'
p7
I21
sa(dp8
g3
I1
sg4
VNYU
p9
sg6
I327
sg7
I329
sa(dp10
g3
I0
sg4
VAbu
p11
sg6
I331
sg7
I333
sa(dp12
g3
I0
sg4
VDhabi
p13
sg6
I335
sg7
I339
sa(dp14
g3
I0
sg4
VHamilton
p15
sg6
I421
sg7
I428
sa(dp16
g3
I0
sg4
VEmirati
p17
sg6
I483
sg7
I489
sa(dp18
g3
I1
sg4
VNYU
p19
sg6
I528
sg7
I530
sa(dp20
g3
I0
sg4
VKeshavarzian
p21
sg6
I634
sg7
I645
sa(dp22
g3
I0
sg4
VTrump
p23
sg6
I791
sg7
I795
sa(dp24
g3
I0
sg4
VDeferred
p25
sg6
I827
sg7
I834
sa(dp26
g3
I0
sg4
VAction
p27
sg6
I836
sg7
I841
sa(dp28
g3
I0
sg4
VChildhood
p29
sg6
I847
sg7
I855
sa(dp30
g3
I0
sg4
VArrivals
p31
sg6
I857
sg7
I864
sa(dp32
g3
I0
sg4
VDACA
p33
sg6
I869
sg7
I872
sa(dp34
g3
I0
sg4
VKeshavarzian
p35
sg6
I1001
sg7
I1012
sa(dp36
g3
I1
sg4
VNYU
p37
sg6
I1292
sg7
I1294
sa(dp38
g3
I0
sg4
VNew
p39
sg6
I1518
sg7
I1520
sa(dp40
g3
I0
sg4
VYork
p41
sg6
I1522
sg7
I1525
sa(dp42
g3
I0
sg4
VTimes.
p43
sg6
I1527
sg7
I1532
sa(dp44
g3
I1
sg4
VNYU
p45
sg6
I1814
sg7
I1816
sa(dp46
g3
I0
sg4
VShanghai
p47
sg6
I1820
sg7
I1827
sa(dp48
g3
I0
sg4
VEmirati
p49
sg6
I1875
sg7
I1881
sa(dp50
g3
I0
sg4
VAbu
p51
sg6
I2039
sg7
I2041
sa(dp52
g3
I0
sg4
VDhabi
p53
sg6
I2043
sg7
I2047
sa(dp54
g3
I0
sg4
VAbu
p55
sg6
I2106
sg7
I2108
sa(dp56
g3
I0
sg4
VDhabi
p57
sg6
I2110
sg7
I2114
sa(dp58
g3
I1
sg4
VNYU
p59
sg6
I2145
sg7
I2147
sa(dp60
g3
I0
sg4
VJohn
p61
sg6
I2173
sg7
I2176
sa(dp62
g3
I0
sg4
VSexton
p63
sg6
I2178
sg7
I2183
sa(dp64
g3
I1
sg4
VNYU
p65
sg6
I2297
sg7
I2299
sa(dp66
g3
I0
sg4
VWashington
p67
sg6
I2303
sg7
I2312
sa(dp68
g3
I0
sg4
VSquare
p69
sg6
I2314
sg7
I2319
sasI2
(lp70
(dp71
g3
I0
sg4
VNYU Abu
p72
sg6
I327
sg7
I333
sa(dp73
g3
I0
sg4
VAbu Dhabi
p74
sg6
I331
sg7
I339
sa(dp75
g3
I0
sg4
VDeferred Action
p76
sg6
I827
sg7
I841
sa(dp77
g3
I0
sg4
VChildhood Arrivals
p78
sg6
I847
sg7
I864
sa(dp79
g3
I0
sg4
VNew York
p80
sg6
I1518
sg7
I1525
sa(dp81
g3
I0
sg4
VYork Times.
p82
sg6
I1522
sg7
I1532
sa(dp83
g3
I0
sg4
VAbu Dhabi
p84
sg6
I2039
sg7
I2047
sa(dp85
g3
I0
sg4
VAbu Dhabi
p86
sg6
I2106
sg7
I2114
sa(dp87
g3
I0
sg4
VJohn Sexton
p88
sg6
I2173
sg7
I2183
sa(dp89
g3
I0
sg4
VWashington Square
p90
sg6
I2303
sg7
I2319
sasI3
(lp91
(dp92
g3
I0
sg4
VNYU Abu Dhabi
p93
sg6
I327
sg7
I339
sa(dp94
g3
I0
sg4
VNew York Times.
p95
sg6
I1518
sg7
I1532
sasI4
(lp96
sI5
(lp97
sI6
(lp98
s.