(dp0
I1
(lp1
(dp2
S'label'
p3
I0
sS'string'
p4
VHamilton
p5
sS'start_index'
p6
I18
sS'end_index'
p7
I25
sa(dp8
g3
I0
sg4
VAbu
p9
sg6
I137
sg7
I139
sa(dp10
g3
I0
sg4
VDhabi
p11
sg6
I141
sg7
I145
sa(dp12
g3
I0
sg4
VShiite
p13
sg6
I491
sg7
I496
sa(dp14
g3
I0
sg4
VSunni
p15
sg6
I498
sg7
I502
sa(dp16
g3
I0
sg4
VJewish
p17
sg6
I504
sg7
I509
sa(dp18
g3
I0
sg4
VChristian
p19
sg6
I515
sg7
I523
sa(dp20
g3
I0
sg4
VAlya
p21
sg6
I560
sg7
I563
sa(dp22
g3
I0
sg4
VHosseiny
p23
sg6
I568
sg7
I575
sa(dp24
g3
I0
sg4
VEgyptian
p25
sg6
I580
sg7
I587
sa(dp26
g3
I1
sg4
VNYU
p27
sg6
I645
sg7
I647
sa(dp28
g3
I0
sg4
VAbu
p29
sg6
I651
sg7
I653
sa(dp30
g3
I0
sg4
VDhabi
p31
sg6
I655
sg7
I659
sa(dp32
g3
I0
sg4
VArab
p33
sg6
I743
sg7
I746
sa(dp34
g3
I0
sg4
VSpring
p35
sg6
I748
sg7
I753
sa(dp36
g3
I0
sg4
VEgypt
p37
sg6
I822
sg7
I826
sa(dp38
g3
I0
sg4
VUnited
p39
sg6
I946
sg7
I951
sa(dp40
g3
I0
sg4
VArab
p41
sg6
I953
sg7
I956
sa(dp42
g3
I0
sg4
VEmirates
p43
sg6
I958
sg7
I965
sa(dp44
g3
I0
sg4
VHosseiny
p45
sg6
I1226
sg7
I1233
sa(dp46
g3
I0
sg4
VCairo
p47
sg6
I1265
sg7
I1269
sa(dp48
g3
I0
sg4
VStanford
p49
sg6
I1365
sg7
I1372
sa(dp50
g3
I0
sg4
VMonday.
p51
sg6
I1578
sg7
I1584
sa(dp52
g3
I0
sg4
VMichele
p53
sg6
I1631
sg7
I1637
sa(dp54
g3
I0
sg4
VLandis
p55
sg6
I1639
sg7
I1644
sa(dp56
g3
I0
sg4
VDauber
p57
sg6
I1646
sg7
I1651
sa(dp58
g3
I0
sg4
VEmily
p59
sg6
I1741
sg7
I1745
sa(dp60
g3
I0
sg4
VDoe.
p61
sg6
I1747
sg7
I1750
sa(dp62
g3
I0
sg4
VDoe
p63
sg6
I1767
sg7
I1769
sa(dp64
g3
I0
sg4
VDauber
p65
sg6
I2031
sg7
I2036
sa(dp66
g3
I1
sg4
VStanford
p67
sg6
I2062
sg7
I2069
sa(dp68
g3
I0
sg4
VLisa
p69
sg6
I2071
sg7
I2074
sa(dp70
g3
I0
sg4
VLapin
p71
sg6
I2076
sg7
I2080
sa(dp72
g3
I0
sg4
VDoe
p73
sg6
I2108
sg7
I2110
sasI2
(lp74
(dp75
g3
I0
sg4
VAbu Dhabi
p76
sg6
I137
sg7
I145
sa(dp77
g3
I0
sg4
VU. S.
p78
sg6
I241
sg7
I245
sa(dp79
g3
I0
sg4
VShiite Sunni
p80
sg6
I491
sg7
I502
sa(dp81
g3
I0
sg4
VSunni Jewish
p82
sg6
I498
sg7
I509
sa(dp83
g3
I0
sg4
VAlya El
p84
sg6
I560
sg7
I566
sa(dp85
g3
I0
sg4
VEl Hosseiny
p86
sg6
I565
sg7
I575
sa(dp87
g3
I0
sg4
VAbu Dhabi
p88
sg6
I651
sg7
I659
sa(dp89
g3
I0
sg4
VArab Spring
p90
sg6
I743
sg7
I753
sa(dp91
g3
I0
sg4
VUnited Arab
p92
sg6
I946
sg7
I956
sa(dp93
g3
I0
sg4
VArab Emirates
p94
sg6
I953
sg7
I965
sa(dp95
g3
I0
sg4
VEl Hosseiny
p96
sg6
I1223
sg7
I1233
sa(dp97
g3
I1
sg4
VStanford University
p98
sg6
I1365
sg7
I1383
sa(dp99
g3
I0
sg4
VMichele Landis
p100
sg6
I1631
sg7
I1644
sa(dp101
g3
I0
sg4
VLandis Dauber
p102
sg6
I1639
sg7
I1651
sa(dp103
g3
I0
sg4
VEmily Doe.
p104
sg6
I1741
sg7
I1750
sa(dp105
g3
I0
sg4
VO. K.
p106
sg6
I1926
sg7
I1930
sa(dp107
g3
I0
sg4
VO. K.
p108
sg6
I1945
sg7
I1949
sa(dp109
g3
I0
sg4
VStanford Lisa
p110
sg6
I2062
sg7
I2074
sa(dp111
g3
I0
sg4
VLisa Lapin
p112
sg6
I2071
sg7
I2080
sasI3
(lp113
(dp114
g3
I0
sg4
VShiite Sunni Jewish
p115
sg6
I491
sg7
I509
sa(dp116
g3
I0
sg4
VJewish and Christian
p117
sg6
I504
sg7
I523
sa(dp118
g3
I0
sg4
VAlya El Hosseiny
p119
sg6
I560
sg7
I575
sa(dp120
g3
I0
sg4
VUnited Arab Emirates
p121
sg6
I946
sg7
I965
sa(dp122
g3
I0
sg4
VMichele Landis Dauber
p123
sg6
I1631
sg7
I1651
sa(dp124
g3
I0
sg4
VStanford Lisa Lapin
p125
sg6
I2062
sg7
I2080
sasI4
(lp126
(dp127
g3
I0
sg4
VSunni Jewish and Christian
p128
sg6
I498
sg7
I523
sasI5
(lp129
(dp130
g3
I0
sg4
VShiite Sunni Jewish and Christian
p131
sg6
I491
sg7
I523
sasI6
(lp132
s.