(dp0
I1
(lp1
(dp2
S'label'
p3
I0
sS'string'
p4
VCarrico
p5
sS'start_index'
p6
I4
sS'end_index'
p7
I10
sa(dp8
g3
I0
sg4
VMacquarie
p9
sg6
I33
sg7
I41
sa(dp10
g3
I0
sg4
VSydney.
p11
sg6
I57
sg7
I63
sa(dp12
g3
I0
sg4
VChinese
p13
sg6
I193
sg7
I199
sa(dp14
g3
I0
sg4
VNewcastle
p15
sg6
I259
sg7
I267
sa(dp16
g3
I0
sg4
VNew
p17
sg6
I272
sg7
I274
sa(dp18
g3
I0
sg4
VSouth
p19
sg6
I276
sg7
I280
sa(dp20
g3
I0
sg4
VWales
p21
sg6
I282
sg7
I286
sa(dp22
g3
I0
sg4
VChinese
p23
sg6
I299
sg7
I305
sa(dp24
g3
I0
sg4
VNimay
p25
sg6
I383
sg7
I387
sa(dp26
g3
I0
sg4
VKalyani
p27
sg6
I389
sg7
I395
sa(dp28
g3
I0
sg4
VTaiwan
p29
sg6
I417
sg7
I422
sa(dp30
g3
I0
sg4
VChina
p31
sg6
I451
sg7
I455
sa(dp32
g3
I0
sg4
VChinese
p33
sg6
I665
sg7
I671
sa(dp34
g3
I0
sg4
VChinese
p35
sg6
I720
sg7
I726
sa(dp36
g3
I0
sg4
VKalyani
p37
sg6
I850
sg7
I856
sa(dp38
g3
I0
sg4
VKhimji
p39
sg6
I1033
sg7
I1038
sa(dp40
g3
I0
sg4
VVaghjiani
p41
sg6
I1040
sg7
I1048
sa(dp42
g3
I0
sg4
VSydney
p43
sg6
I1099
sg7
I1104
sa(dp44
g3
I0
sg4
VIndia
p45
sg6
I1186
sg7
I1190
sa(dp46
g3
I0
sg4
VChina.
p47
sg6
I1244
sg7
I1249
sa(dp48
g3
I0
sg4
VChinese
p49
sg6
I1251
sg7
I1257
sa(dp50
g3
I0
sg4
VChinese
p51
sg6
I1288
sg7
I1294
sa(dp52
g3
I0
sg4
VVaghjiani
p53
sg6
I1349
sg7
I1357
sasI2
(lp54
(dp55
g3
I1
sg4
VMacquarie University
p56
sg6
I33
sg7
I52
sa(dp57
g3
I0
sg4
VNew South
p58
sg6
I272
sg7
I280
sa(dp59
g3
I0
sg4
VSouth Wales
p60
sg6
I276
sg7
I286
sa(dp61
g3
I0
sg4
VNimay Kalyani
p62
sg6
I383
sg7
I395
sa(dp63
g3
I0
sg4
VKhimji Vaghjiani
p64
sg6
I1033
sg7
I1048
sasI3
(lp65
(dp66
g3
I1
sg4
VUniversity of Newcastle
p67
sg6
I245
sg7
I267
sa(dp68
g3
I0
sg4
VNew South Wales
p69
sg6
I272
sg7
I286
sa(dp70
g3
I1
sg4
VUniversity of Sydney
p71
sg6
I1085
sg7
I1104
sasI4
(lp72
sI5
(lp73
sI6
(lp74
s.