(dp0
I1
(lp1
(dp2
S'label'
p3
I0
sS'string'
p4
VDoe
p5
sS'start_index'
p6
I136
sS'end_index'
p7
I138
sa(dp8
g3
I0
sg4
VDauber
p9
sg6
I260
sg7
I265
sa(dp10
g3
I0
sg4
VDoe
p11
sg6
I300
sg7
I302
sa(dp12
g3
I0
sg4
VTuesday.
p13
sg6
I427
sg7
I434
sa(dp14
g3
I0
sg4
VDauber
p15
sg6
I446
sg7
I451
sa(dp16
g3
I0
sg4
VDoe
p17
sg6
I472
sg7
I474
sa(dp18
g3
I0
sg4
VDoe
p19
sg6
I606
sg7
I608
sa(dp20
g3
I0
sg4
VDauber
p21
sg6
I629
sg7
I634
sa(dp22
g3
I0
sg4
VLapin
p23
sg6
I699
sg7
I703
sa(dp24
g3
I0
sg4
VDoe
p25
sg6
I770
sg7
I772
sa(dp26
g3
I0
sg4
VDoe
p27
sg6
I821
sg7
I823
sa(dp28
g3
I0
sg4
VBrock
p29
sg6
I895
sg7
I899
sa(dp30
g3
I0
sg4
VTurner
p31
sg6
I901
sg7
I906
sa(dp32
g3
I1
sg4
VStanford
p33
sg6
I910
sg7
I917
sa(dp34
g3
I0
sg4
VTurner
p35
sg6
I971
sg7
I976
sa(dp36
g3
I0
sg4
VDauber
p37
sg6
I1262
sg7
I1267
sa(dp38
g3
I0
sg4
VDoe
p39
sg6
I1356
sg7
I1358
sa(dp40
g3
I1
sg4
VStanford
p41
sg6
I1369
sg7
I1376
sa(dp42
g3
I0
sg4
VDauber
p43
sg6
I1603
sg7
I1608
sasI2
(lp44
(dp45
g3
I0
sg4
VBrock Turner
p46
sg6
I895
sg7
I906
sasI3
(lp47
sI4
(lp48
sI5
(lp49
sI6
(lp50
s.