(dp0
I1
(lp1
(dp2
S'label'
p3
I0
sS'string'
p4
VEmily
p5
sS'start_index'
p6
I36
sS'end_index'
p7
I40
sa(dp8
g3
I1
sg4
VStanford
p9
sg6
I54
sg7
I61
sa(dp10
g3
I0
sg4
VDauber
p11
sg6
I96
sg7
I101
sa(dp12
g3
I0
sg4
VDauber
p13
sg6
I203
sg7
I208
sa(dp14
g3
I1
sg4
VStanford
p15
sg6
I362
sg7
I369
sa(dp16
g3
I0
sg4
VDoe
p17
sg6
I473
sg7
I475
sa(dp18
g3
I0
sg4
VLast
p19
sg6
I500
sg7
I503
sa(dp20
g3
I0
sg4
VDumpster
p21
sg6
I514
sg7
I521
sa(dp22
g3
I0
sg4
VKappa
p23
sg6
I540
sg7
I544
sa(dp24
g3
I0
sg4
VAlpha
p25
sg6
I546
sg7
I550
sa(dp26
g3
I0
sg4
VDoe
p27
sg6
I584
sg7
I586
sa(dp28
g3
I0
sg4
VStanford
p29
sg6
I699
sg7
I706
sa(dp30
g3
I0
sg4
V.Professor
p31
sg6
I725
sg7
I734
sa(dp32
g3
I0
sg4
VDauber
p33
sg6
I736
sg7
I741
sa(dp34
g3
I0
sg4
VStanford
p35
sg6
I1037
sg7
I1044
sa(dp36
g3
I0
sg4
VTurner
p37
sg6
I1131
sg7
I1136
sa(dp38
g3
I0
sg4
VDoe
p39
sg6
I1225
sg7
I1227
sa(dp40
g3
I0
sg4
VDoe
p41
sg6
I1374
sg7
I1376
sa(dp42
g3
I0
sg4
VStanford
p43
sg6
I1432
sg7
I1439
sa(dp44
g3
I0
sg4
VDoe
p45
sg6
I1486
sg7
I1488
sa(dp46
g3
I0
sg4
VLapin
p47
sg6
I1558
sg7
I1562
sa(dp48
g3
I0
sg4
VEditor
p49
sg6
I1577
sg7
I1582
sa(dp50
g3
I0
sg4
VWinners
p51
sg6
I1587
sg7
I1593
sa(dp52
g3
I0
sg4
VLosers
p53
sg6
I1599
sg7
I1604
sa(dp54
g3
I0
sg4
VO.P.
p55
sg6
I1612
sg7
I1615
sa(dp56
g3
I0
sg4
VTax
p57
sg6
I1617
sg7
I1619
sa(dp58
g3
I0
sg4
VOverhaul
p59
sg6
I1621
sg7
I1628
sa(dp60
g3
I0
sg4
VNov.
p61
sg6
I1643
sg7
I1646
sa(dp62
g3
I0
sg4
VTaxing
p63
sg6
I1650
sg7
I1655
sa(dp64
g3
I0
sg4
VHouse
p65
sg6
I1709
sg7
I1713
sa(dp66
g3
I0
sg4
VRepublicans
p67
sg6
I1715
sg7
I1725
sa(dp68
g3
I0
sg4
VHigher
p69
sg6
I1907
sg7
I1912
sa(dp70
g3
I0
sg4
VAmericans
p71
sg6
I2145
sg7
I2153
sa(dp72
g3
I0
sg4
VAmerican
p73
sg6
I2328
sg7
I2335
sa(dp74
g3
I0
sg4
VTalent
p75
sg6
I2337
sg7
I2342
sa(dp76
g3
I0
sg4
VInitiative.
p77
sg6
I2344
sg7
I2354
sa(dp78
g3
I0
sg4
VJust
p79
sg6
I2518
sg7
I2521
sa(dp80
g3
I0
sg4
VAmerica
p81
sg6
I2566
sg7
I2572
sa(dp82
g3
I0
sg4
VAmerican
p83
sg6
I2720
sg7
I2727
sa(dp84
g3
I0
sg4
VAmerican
p85
sg6
I2798
sg7
I2805
sa(dp86
g3
I0
sg4
VCATHARINE
p87
sg6
I2815
sg7
I2823
sa(dp88
g3
I0
sg4
VBOND
p89
sg6
I2825
sg7
I2828
sa(dp90
g3
I0
sg4
VHILLNEW
p91
sg6
I2830
sg7
I2836
sa(dp92
g3
I0
sg4
VYORKThe
p93
sg6
I2838
sg7
I2844
sa(dp94
g3
I0
sg4
VVassar
p95
sg6
I2874
sg7
I2879
sa(dp96
g3
I0
sg4
VIthaka
p97
sg6
I2917
sg7
I2922
sasI2
(lp98
(dp99
g3
I0
sg4
VKappa Alpha
p100
sg6
I540
sg7
I550
sa(dp101
g3
I0
sg4
V.Professor Dauber
p102
sg6
I725
sg7
I741
sa(dp103
g3
I0
sg4
VEditor Re
p104
sg6
I1577
sg7
I1585
sa(dp105
g3
I0
sg4
VRe Winners
p106
sg6
I1584
sg7
I1593
sa(dp107
g3
I0
sg4
VG. O.P.
p108
sg6
I1609
sg7
I1615
sa(dp109
g3
I0
sg4
VO.P. Tax
p110
sg6
I1612
sg7
I1619
sa(dp111
g3
I0
sg4
VTax Overhaul
p112
sg6
I1617
sg7
I1628
sa(dp113
g3
I0
sg4
VHouse Republicans
p114
sg6
I1709
sg7
I1725
sa(dp115
g3
I0
sg4
VAmerican Talent
p116
sg6
I2328
sg7
I2342
sa(dp117
g3
I0
sg4
VTalent Initiative.
p118
sg6
I2337
sg7
I2354
sa(dp119
g3
I0
sg4
VCATHARINE BOND
p120
sg6
I2815
sg7
I2828
sa(dp121
g3
I0
sg4
VBOND HILLNEW
p122
sg6
I2825
sg7
I2836
sa(dp123
g3
I0
sg4
VHILLNEW YORKThe
p124
sg6
I2830
sg7
I2844
sa(dp125
g3
I1
sg4
VVassar College
p126
sg6
I2874
sg7
I2887
sa(dp127
g3
I0
sg4
VIthaka S
p128
sg6
I2917
sg7
I2924
sa(dp129
g3
I0
sg4
VS R
p130
sg6
I2924
sg7
I2926
sasI3
(lp131
(dp132
g3
I0
sg4
VEditor Re Winners
p133
sg6
I1577
sg7
I1593
sa(dp134
g3
I0
sg4
VWinners and Losers
p135
sg6
I1587
sg7
I1604
sa(dp136
g3
I0
sg4
VG. O.P. Tax
p137
sg6
I1609
sg7
I1619
sa(dp138
g3
I0
sg4
VO.P. Tax Overhaul
p139
sg6
I1612
sg7
I1628
sa(dp140
g3
I0
sg4
VAmerican Talent Initiative.
p141
sg6
I2328
sg7
I2354
sa(dp142
g3
I0
sg4
VCATHARINE BOND HILLNEW
p143
sg6
I2815
sg7
I2836
sa(dp144
g3
I0
sg4
VBOND HILLNEW YORKThe
p145
sg6
I2825
sg7
I2844
sa(dp146
g3
I0
sg4
VIthaka S R
p147
sg6
I2917
sg7
I2926
sasI4
(lp148
(dp149
g3
I0
sg4
VRe Winners and Losers
p150
sg6
I1584
sg7
I1604
sa(dp151
g3
I0
sg4
VG. O.P. Tax Overhaul
p152
sg6
I1609
sg7
I1628
sa(dp153
g3
I0
sg4
VCATHARINE BOND HILLNEW YORKThe
p154
sg6
I2815
sg7
I2844
sasI5
(lp155
(dp156
g3
I0
sg4
VEditor Re Winners and Losers
p157
sg6
I1577
sg7
I1604
sasI6
(lp158
s.