(dp0
I1
(lp1
(dp2
S'label'
p3
I0
sS'string'
p4
VTariq
p5
sS'start_index'
p6
I0
sS'end_index'
p7
I4
sa(dp8
g3
I0
sg4
VRamadan
p9
sg6
I6
sg7
I12
sa(dp10
g3
I0
sg4
VIslam
p11
sg6
I36
sg7
I40
sa(dp12
g3
I0
sg4
VOxford
p13
sg6
I97
sg7
I102
sa(dp14
g3
I0
sg4
VFrance.
p15
sg6
I183
sg7
I189
sa(dp16
g3
I0
sg4
VRamadan
p17
sg6
I246
sg7
I252
sa(dp18
g3
I0
sg4
VCollege.
p19
sg6
I388
sg7
I395
sa(dp20
g3
I0
sg4
VRamadan
p21
sg6
I511
sg7
I517
sa(dp22
g3
I0
sg4
VRamadan
p23
sg6
I635
sg7
I641
sa(dp24
g3
I0
sg4
VSwiss
p25
sg6
I648
sg7
I652
sa(dp26
g3
I0
sg4
VIslamic
p27
sg6
I717
sg7
I723
sa(dp28
g3
I0
sg4
VSt.
p29
sg6
I783
sg7
I785
sa(dp30
g3
I0
sg4
VAntony
p31
sg6
I787
sg7
I792
sa(dp32
g3
I1
sg4
VOxford
p33
sg6
I799
sg7
I804
sa(dp34
g3
I0
sg4
VOther
p35
sg6
I853
sg7
I857
sa(dp36
g3
I0
sg4
VFrench
p37
sg6
I888
sg7
I893
sa(dp38
g3
I0
sg4
VSwiss
p39
sg6
I899
sg7
I903
sa(dp40
g3
I0
sg4
VRamadan
p41
sg6
I994
sg7
I1000
sa(dp42
g3
I0
sg4
VFacebook
p43
sg6
I1148
sg7
I1155
sa(dp44
g3
I0
sg4
VRamadan
p45
sg6
I1177
sg7
I1183
sa(dp46
g3
I1
sg4
VOxford.
p47
sg6
I1215
sg7
I1221
sa(dp48
g3
I0
sg4
VRamadan
p49
sg6
I1371
sg7
I1377
sa(dp50
g3
I0
sg4
VFacebook
p51
sg6
I1398
sg7
I1405
sa(dp52
g3
I0
sg4
VAyari
p53
sg6
I1572
sg7
I1576
sa(dp54
g3
I0
sg4
VZionist
p55
sg6
I1663
sg7
I1669
sa(dp56
g3
I0
sg4
VRamadan.
p57
sg6
I1688
sg7
I1695
sasI2
(lp58
(dp59
g3
I0
sg4
VTariq Ramadan
p60
sg6
I0
sg7
I12
sa(dp61
g3
I1
sg4
VOxford University
p62
sg6
I97
sg7
I113
sa(dp63
g3
I1
sg4
VSt. Antony
p64
sg6
I783
sg7
I792
sasI3
(lp65
(dp66
g3
I0
sg4
VFrench and Swiss
p67
sg6
I888
sg7
I903
sasI4
(lp68
sI5
(lp69
sI6
(lp70
s.