(dp0
I1
(lp1
(dp2
S'label'
p3
I1
sS'string'
p4
VOxford
p5
sS'start_index'
p6
I12
sS'end_index'
p7
I17
sa(dp8
g3
I0
sg4
VFaculty
p9
sg6
I21
sg7
I27
sa(dp10
g3
I0
sg4
VOriental
p11
sg6
I32
sg7
I39
sa(dp12
g3
I0
sg4
VStudies
p13
sg6
I41
sg7
I47
sa(dp14
g3
I0
sg4
VRamadan
p15
sg6
I59
sg7
I65
sa(dp16
g3
I0
sg4
VCherwell
p17
sg6
I159
sg7
I166
sa(dp18
g3
I0
sg4
VMembers
p19
sg6
I189
sg7
I195
sa(dp20
g3
I0
sg4
VRamadan
p21
sg6
I244
sg7
I250
sa(dp22
g3
I0
sg4
VRamadan
p23
sg6
I370
sg7
I376
sa(dp24
g3
I0
sg4
VRamadan
p25
sg6
I464
sg7
I470
sa(dp26
g3
I1
sg4
VOxford
p27
sg6
I534
sg7
I539
sa(dp28
g3
I0
sg4
VAsked
p29
sg6
I704
sg7
I708
sa(dp30
g3
I0
sg4
VEugene
p31
sg6
I736
sg7
I741
sa(dp32
g3
I0
sg4
VRogan
p33
sg6
I743
sg7
I747
sa(dp34
g3
I0
sg4
VMiddle
p35
sg6
I765
sg7
I770
sa(dp36
g3
I0
sg4
VEast
p37
sg6
I772
sg7
I775
sa(dp38
g3
I0
sg4
VCenter
p39
sg6
I777
sg7
I782
sa(dp40
g3
I0
sg4
VSt.
p41
sg6
I787
sg7
I789
sa(dp42
g3
I0
sg4
VAnthony
p43
sg6
I791
sg7
I797
sa(dp44
g3
I0
sg4
VTariq
p45
sg6
I915
sg7
I919
sa(dp46
g3
I0
sg4
VRamadan
p47
sg6
I921
sg7
I927
sa(dp48
g3
I1
sg4
VOxford
p49
sg6
I947
sg7
I952
sa(dp50
g3
I0
sg4
VNevertheless
p51
sg6
I1015
sg7
I1026
sa(dp52
g3
I0
sg4
VRamadan
p53
sg6
I1076
sg7
I1082
sa(dp54
g3
I0
sg4
VPrivate
p55
sg6
I1174
sg7
I1180
sa(dp56
g3
I0
sg4
VRice
p57
sg6
I1539
sg7
I1542
sa(dp58
g3
I0
sg4
VHouston
p59
sg6
I1558
sg7
I1564
sa(dp60
g3
I0
sg4
VShark
p61
sg6
I1739
sg7
I1743
sa(dp62
g3
I0
sg4
VTank
p63
sg6
I1745
sg7
I1748
sa(dp64
g3
I0
sg4
VMark
p65
sg6
I1859
sg7
I1862
sa(dp66
g3
I0
sg4
VCuban
p67
sg6
I1864
sg7
I1868
sa(dp68
g3
I0
sg4
VMaybe
p69
sg6
I1984
sg7
I1988
sasI2
(lp70
(dp71
g3
I0
sg4
VOriental Studies
p72
sg6
I32
sg7
I47
sa(dp73
g3
I0
sg4
VEugene Rogan
p74
sg6
I736
sg7
I747
sa(dp75
g3
I0
sg4
VMiddle East
p76
sg6
I765
sg7
I775
sa(dp77
g3
I0
sg4
VEast Center
p78
sg6
I772
sg7
I782
sa(dp79
g3
I1
sg4
VSt. Anthony
p80
sg6
I787
sg7
I797
sa(dp81
g3
I0
sg4
VTariq Ramadan
p82
sg6
I915
sg7
I927
sa(dp83
g3
I1
sg4
VRice University
p84
sg6
I1539
sg7
I1553
sa(dp85
g3
I0
sg4
VShark Tank
p86
sg6
I1739
sg7
I1748
sa(dp87
g3
I0
sg4
VMark Cuban
p88
sg6
I1859
sg7
I1868
sasI3
(lp89
(dp90
g3
I0
sg4
VFaculty of Oriental
p91
sg6
I21
sg7
I39
sa(dp92
g3
I0
sg4
VMiddle East Center
p93
sg6
I765
sg7
I782
sasI4
(lp94
(dp95
g3
I0
sg4
VFaculty of Oriental Studies
p96
sg6
I21
sg7
I47
sasI5
(lp97
sI6
(lp98
s.