(dp0
I1
(lp1
(dp2
S'label'
p3
I0
sS'string'
p4
VFlorida
p5
sS'start_index'
p6
I0
sS'end_index'
p7
I6
sa(dp8
g3
I0
sg4
VState
p9
sg6
I8
sg7
I12
sa(dp10
g3
I0
sg4
VJohn
p11
sg6
I252
sg7
I255
sa(dp12
g3
I0
sg4
VThrasher
p13
sg6
I260
sg7
I267
sa(dp14
g3
I0
sg4
VGreek
p15
sg6
I343
sg7
I347
sa(dp16
g3
I0
sg4
VAlmost
p17
sg6
I426
sg7
I431
sa(dp18
g3
I0
sg4
VGreek
p19
sg6
I448
sg7
I452
sa(dp20
g3
I0
sg4
VThrasher
p21
sg6
I578
sg7
I585
sa(dp22
g3
I0
sg4
VFlorida
p23
sg6
I721
sg7
I727
sa(dp24
g3
I0
sg4
VState
p25
sg6
I729
sg7
I733
sa(dp26
g3
I0
sg4
VFlorida
p27
sg6
I1036
sg7
I1042
sa(dp28
g3
I0
sg4
VState
p29
sg6
I1044
sg7
I1048
sa(dp30
g3
I0
sg4
VJohn
p31
sg6
I1062
sg7
I1065
sa(dp32
g3
I0
sg4
VThrasher
p33
sg6
I1070
sg7
I1077
sa(dp34
g3
I0
sg4
VGreek
p35
sg6
I1111
sg7
I1115
sa(dp36
g3
I0
sg4
VTallahassee
p37
sg6
I1157
sg7
I1167
sa(dp38
g3
I0
sg4
VFla.
p39
sg6
I1169
sg7
I1172
sa(dp40
g3
I0
sg4
VMonday.
p41
sg6
I1177
sg7
I1183
sasI2
(lp42
(dp43
g3
I0
sg4
VFlorida State
p44
sg6
I0
sg7
I12
sa(dp45
g3
I0
sg4
VState University
p46
sg6
I8
sg7
I23
sa(dp47
g3
I0
sg4
VJohn E.
p48
sg6
I252
sg7
I258
sa(dp49
g3
I0
sg4
VE. Thrasher
p50
sg6
I257
sg7
I267
sa(dp51
g3
I1
sg4
VFlorida State
p52
sg6
I721
sg7
I733
sa(dp53
g3
I1
sg4
VFlorida State
p54
sg6
I1036
sg7
I1048
sa(dp55
g3
I0
sg4
VJohn E.
p56
sg6
I1062
sg7
I1068
sa(dp57
g3
I0
sg4
VE. Thrasher
p58
sg6
I1067
sg7
I1077
sa(dp59
g3
I0
sg4
VTallahassee Fla.
p60
sg6
I1157
sg7
I1172
sasI3
(lp61
(dp62
g3
I1
sg4
VFlorida State University
p63
sg6
I0
sg7
I23
sa(dp64
g3
I0
sg4
VJohn E. Thrasher
p65
sg6
I252
sg7
I267
sa(dp66
g3
I0
sg4
VJohn E. Thrasher
p67
sg6
I1062
sg7
I1077
sasI4
(lp68
sI5
(lp69
sI6
(lp70
s.