(dp0
I1
(lp1
(dp2
S'label'
p3
I0
sS'string'
p4
VPenn
p5
sS'start_index'
p6
I0
sS'end_index'
p7
I3
sa(dp8
g3
I0
sg4
VState
p9
sg6
I5
sg7
I9
sa(dp10
g3
I0
sg4
VFebruary.
p11
sg6
I147
sg7
I155
sa(dp12
g3
I0
sg4
VLouisiana
p13
sg6
I157
sg7
I165
sa(dp14
g3
I0
sg4
VState
p15
sg6
I167
sg7
I171
sa(dp16
g3
I0
sg4
VGreek
p17
sg6
I196
sg7
I200
sa(dp18
g3
I0
sg4
VThrasher
p19
sg6
I286
sg7
I293
sa(dp20
g3
I0
sg4
VAndrew
p21
sg6
I362
sg7
I367
sa(dp22
g3
I0
sg4
VCoffey
p23
sg6
I369
sg7
I374
sa(dp24
g3
I0
sg4
VTallahassee
p25
sg6
I442
sg7
I452
sa(dp26
g3
I0
sg4
VKappa
p27
sg6
I483
sg7
I487
sa(dp28
g3
I0
sg4
VPhi
p29
sg6
I489
sg7
I491
sa(dp30
g3
I0
sg4
VCoffey
p31
sg6
I504
sg7
I509
sa(dp32
g3
I0
sg4
VLighthouse
p33
sg6
I578
sg7
I587
sa(dp34
g3
I0
sg4
VPoint
p35
sg6
I589
sg7
I593
sa(dp36
g3
I0
sg4
VFlorida
p37
sg6
I598
sg7
I604
sa(dp38
g3
I0
sg4
VTallahassee
p39
sg6
I662
sg7
I672
sa(dp40
g3
I0
sg4
VPolice
p41
sg6
I674
sg7
I679
sa(dp42
g3
I0
sg4
VDepartment
p43
sg6
I681
sg7
I690
sa(dp44
g3
I0
sg4
VPhi
p45
sg6
I832
sg7
I834
sa(dp46
g3
I0
sg4
VDelta
p47
sg6
I836
sg7
I840
sa(dp48
g3
I0
sg4
VTheta
p49
sg6
I842
sg7
I846
sa(dp50
g3
I0
sg4
VGarrett
p51
sg6
I866
sg7
I872
sa(dp52
g3
I0
sg4
VJohn
p53
sg6
I874
sg7
I877
sa(dp54
g3
I0
sg4
VMarcy
p55
sg6
I879
sg7
I883
sa(dp56
g3
I0
sg4
VFlorida
p57
sg6
I937
sg7
I943
sa(dp58
g3
I0
sg4
VState
p59
sg6
I945
sg7
I949
sa(dp60
g3
I0
sg4
VThrasher
p61
sg6
I976
sg7
I983
sa(dp62
g3
I0
sg4
VGreek
p63
sg6
I990
sg7
I994
sa(dp64
g3
I0
sg4
VDivision
p65
sg6
I1099
sg7
I1106
sa(dp66
g3
I0
sg4
VAffairs
p67
sg6
I1119
sg7
I1125
sasI2
(lp68
(dp69
g3
I0
sg4
VPenn State
p70
sg6
I0
sg7
I9
sa(dp71
g3
I0
sg4
VState University
p72
sg6
I5
sg7
I20
sa(dp73
g3
I0
sg4
VLouisiana State
p74
sg6
I157
sg7
I171
sa(dp75
g3
I0
sg4
VState University
p76
sg6
I167
sg7
I182
sa(dp77
g3
I0
sg4
VAndrew Coffey
p78
sg6
I362
sg7
I374
sa(dp79
g3
I0
sg4
VPi Kappa
p80
sg6
I480
sg7
I487
sa(dp81
g3
I0
sg4
VKappa Phi
p82
sg6
I483
sg7
I491
sa(dp83
g3
I0
sg4
VLighthouse Point
p84
sg6
I578
sg7
I593
sa(dp85
g3
I0
sg4
VTallahassee Police
p86
sg6
I662
sg7
I679
sa(dp87
g3
I0
sg4
VPolice Department
p88
sg6
I674
sg7
I690
sa(dp89
g3
I0
sg4
VPhi Delta
p90
sg6
I832
sg7
I840
sa(dp91
g3
I0
sg4
VDelta Theta
p92
sg6
I836
sg7
I846
sa(dp93
g3
I0
sg4
VGarrett John
p94
sg6
I866
sg7
I877
sa(dp95
g3
I0
sg4
VJohn Marcy
p96
sg6
I874
sg7
I883
sa(dp97
g3
I1
sg4
VFlorida State
p98
sg6
I937
sg7
I949
sasI3
(lp99
(dp100
g3
I1
sg4
VPenn State University
p101
sg6
I0
sg7
I20
sa(dp102
g3
I1
sg4
VLouisiana State University
p103
sg6
I157
sg7
I182
sa(dp104
g3
I0
sg4
VPi Kappa Phi
p105
sg6
I480
sg7
I491
sa(dp106
g3
I0
sg4
VTallahassee Police Department
p107
sg6
I662
sg7
I690
sa(dp108
g3
I0
sg4
VPhi Delta Theta
p109
sg6
I832
sg7
I846
sa(dp110
g3
I0
sg4
VGarrett John Marcy
p111
sg6
I866
sg7
I883
sasI4
(lp112
sI5
(lp113
sI6
(lp114
s.