(dp0
I1
(lp1
(dp2
S'label'
p3
I0
sS'string'
p4
VWanted
p5
sS'start_index'
p6
I22
sS'end_index'
p7
I27
sa(dp8
g3
I0
sg4
VMason
p9
sg6
I35
sg7
I39
sa(dp10
g3
I0
sg4
VSaxton
p11
sg6
I41
sg7
I46
sa(dp12
g3
I0
sg4
VPreston
p13
sg6
I51
sg7
I57
sa(dp14
g3
I0
sg4
VIdaho.
p15
sg6
I71
sg7
I76
sa(dp16
g3
I0
sg4
VMason
p17
sg6
I78
sg7
I82
sa(dp18
g3
I0
sg4
VDoug
p19
sg6
I193
sg7
I196
sa(dp20
g3
I0
sg4
VCamille
p21
sg6
I202
sg7
I208
sa(dp22
g3
I0
sg4
VSaxton
p23
sg6
I210
sg7
I215
sa(dp24
g3
I0
sg4
VSeated
p25
sg6
I227
sg7
I232
sa(dp26
g3
I0
sg4
VMason
p27
sg6
I306
sg7
I310
sa(dp28
g3
I0
sg4
VMason
p29
sg6
I344
sg7
I348
sa(dp30
g3
I0
sg4
VLook
p31
sg6
I427
sg7
I430
sa(dp32
g3
I0
sg4
VMason
p33
sg6
I473
sg7
I477
sa(dp34
g3
I0
sg4
VSeeing
p35
sg6
I541
sg7
I546
sa(dp36
g3
I0
sg4
VGot
p37
sg6
I789
sg7
I791
sa(dp38
g3
I0
sg4
VRoute
p39
sg6
I803
sg7
I807
sa(dp40
g3
I0
sg4
VHarrington
p41
sg6
I812
sg7
I821
sa(dp42
g3
I0
sg4
VHillcrest
p43
sg6
I826
sg7
I834
sa(dp44
g3
I0
sg4
VIdaho
p45
sg6
I848
sg7
I852
sa(dp46
g3
I0
sg4
VFalls.
p47
sg6
I854
sg7
I859
sa(dp48
g3
I0
sg4
VSalt
p49
sg6
I958
sg7
I961
sa(dp50
g3
I0
sg4
VLake
p51
sg6
I963
sg7
I966
sa(dp52
g3
I0
sg4
VCity.
p53
sg6
I968
sg7
I972
sa(dp54
g3
I0
sg4
VBoard
p55
sg6
I1893
sg7
I1897
sa(dp56
g3
I0
sg4
VNational
p57
sg6
I1903
sg7
I1910
sa(dp58
g3
I0
sg4
VJournal
p59
sg6
I1912
sg7
I1918
sasI2
(lp60
(dp61
g3
I0
sg4
VDo Mason
p62
sg6
I32
sg7
I39
sa(dp63
g3
I0
sg4
VMason Saxton
p64
sg6
I35
sg7
I46
sa(dp65
g3
I0
sg4
VPreston High
p66
sg6
I51
sg7
I62
sa(dp67
g3
I0
sg4
VHigh School
p68
sg6
I59
sg7
I69
sa(dp69
g3
I0
sg4
VSchool Idaho.
p70
sg6
I64
sg7
I76
sa(dp71
g3
I0
sg4
VCamille Saxton
p72
sg6
I202
sg7
I215
sa(dp73
g3
I0
sg4
VRoute Ty
p74
sg6
I803
sg7
I810
sa(dp75
g3
I0
sg4
VTy Harrington
p76
sg6
I809
sg7
I821
sa(dp77
g3
I0
sg4
VHillcrest High
p78
sg6
I826
sg7
I839
sa(dp79
g3
I0
sg4
VHigh School
p80
sg6
I836
sg7
I846
sa(dp81
g3
I0
sg4
VSchool Idaho
p82
sg6
I841
sg7
I852
sa(dp83
g3
I0
sg4
VIdaho Falls.
p84
sg6
I848
sg7
I859
sa(dp85
g3
I0
sg4
VSalt Lake
p86
sg6
I958
sg7
I966
sa(dp87
g3
I0
sg4
VLake City.
p88
sg6
I963
sg7
I972
sa(dp89
g3
I0
sg4
VD. J.
p90
sg6
I1231
sg7
I1235
sa(dp91
g3
I0
sg4
VCollege Board
p92
sg6
I1885
sg7
I1897
sa(dp93
g3
I0
sg4
VNational Journal
p94
sg6
I1903
sg7
I1918
sasI3
(lp95
(dp96
g3
I0
sg4
VDo Mason Saxton
p97
sg6
I32
sg7
I46
sa(dp98
g3
I0
sg4
VPreston High School
p99
sg6
I51
sg7
I69
sa(dp100
g3
I0
sg4
VHigh School Idaho.
p101
sg6
I59
sg7
I76
sa(dp102
g3
I0
sg4
VDoug and Camille
p103
sg6
I193
sg7
I208
sa(dp104
g3
I0
sg4
VRoute Ty Harrington
p105
sg6
I803
sg7
I821
sa(dp106
g3
I0
sg4
VHillcrest High School
p107
sg6
I826
sg7
I846
sa(dp108
g3
I0
sg4
VHigh School Idaho
p109
sg6
I836
sg7
I852
sa(dp110
g3
I0
sg4
VSchool Idaho Falls.
p111
sg6
I841
sg7
I859
sa(dp112
g3
I0
sg4
VSalt Lake City.
p113
sg6
I958
sg7
I972
sa(dp114
g3
I0
sg4
VBoard and National
p115
sg6
I1893
sg7
I1910
sasI4
(lp116
(dp117
g3
I1
sg4
VPreston High School Idaho.
p118
sg6
I51
sg7
I76
sa(dp119
g3
I0
sg4
VDoug and Camille Saxton
p120
sg6
I193
sg7
I215
sa(dp121
g3
I0
sg4
VHillcrest High School Idaho
p122
sg6
I826
sg7
I852
sa(dp123
g3
I0
sg4
VHigh School Idaho Falls.
p124
sg6
I836
sg7
I859
sa(dp125
g3
I0
sg4
VCollege Board and National
p126
sg6
I1885
sg7
I1910
sa(dp127
g3
I0
sg4
VBoard and National Journal
p128
sg6
I1893
sg7
I1918
sasI5
(lp129
(dp130
g3
I1
sg4
VHillcrest High School Idaho Falls.
p131
sg6
I826
sg7
I859
sa(dp132
g3
I0
sg4
VCollege Board and National Journal
p133
sg6
I1885
sg7
I1918
sasI6
(lp134
s.