(dp0
I1
(lp1
(dp2
S'label'
p3
I0
sS'string'
p4
VDon
p5
sS'start_index'
p6
I9
sS'end_index'
p7
I11
sa(dp8
g3
I0
sg4
VThinking
p9
sg6
I20
sg7
I27
sa(dp10
g3
I0
sg4
VFuture
p11
sg6
I39
sg7
I44
sa(dp12
g3
I0
sg4
VAsiah
p13
sg6
I46
sg7
I50
sa(dp14
g3
I0
sg4
VHarris
p15
sg6
I52
sg7
I57
sa(dp16
g3
I0
sg4
VNorthrop
p17
sg6
I62
sg7
I69
sa(dp18
g3
I0
sg4
VFort
p19
sg6
I83
sg7
I86
sa(dp20
g3
I0
sg4
VWayne
p21
sg6
I88
sg7
I92
sa(dp22
g3
I0
sg4
VInd.
p23
sg6
I94
sg7
I97
sa(dp24
g3
I0
sg4
VPutt
p25
sg6
I231
sg7
I234
sa(dp26
g3
I0
sg4
VPutt
p27
sg6
I236
sg7
I239
sa(dp28
g3
I0
sg4
VFun
p29
sg6
I241
sg7
I243
sa(dp30
g3
I0
sg4
VCenter
p31
sg6
I245
sg7
I250
sa(dp32
g3
I0
sg4
VAsiah
p33
sg6
I627
sg7
I631
sa(dp34
g3
I0
sg4
VAsi
p35
sg6
I1131
sg7
I1133
sa(dp36
g3
I0
sg4
VMom
p37
sg6
I1202
sg7
I1204
sa(dp38
g3
I0
sg4
VReady
p39
sg6
I1325
sg7
I1329
sa(dp40
g3
I0
sg4
VJump
p41
sg6
I1334
sg7
I1337
sa(dp42
g3
I0
sg4
VShanel
p43
sg6
I1349
sg7
I1354
sa(dp44
g3
I0
sg4
VSchrader
p45
sg6
I1356
sg7
I1363
sa(dp46
g3
I0
sg4
VNorthrop
p47
sg6
I1368
sg7
I1375
sa(dp48
g3
I0
sg4
VFort
p49
sg6
I1389
sg7
I1392
sa(dp50
g3
I0
sg4
VWayne
p51
sg6
I1394
sg7
I1398
sa(dp52
g3
I0
sg4
VInd.
p53
sg6
I1400
sg7
I1403
sa(dp54
g3
I0
sg4
VTitle
p55
sg6
I1829
sg7
I1833
sa(dp56
g3
I0
sg4
VBoys
p57
sg6
I1951
sg7
I1954
sa(dp58
g3
I0
sg4
VGirls
p59
sg6
I2038
sg7
I2042
sa(dp60
g3
I0
sg4
VShanel
p61
sg6
I2137
sg7
I2142
sa(dp62
g3
I0
sg4
VFort
p63
sg6
I2317
sg7
I2320
sa(dp64
g3
I0
sg4
VWayne.
p65
sg6
I2322
sg7
I2327
sa(dp66
g3
I0
sg4
VWalmart
p67
sg6
I2373
sg7
I2379
sa(dp68
g3
I0
sg4
VTen
p69
sg6
I2563
sg7
I2565
sasI2
(lp70
(dp71
g3
I0
sg4
VFuture Asiah
p72
sg6
I39
sg7
I50
sa(dp73
g3
I0
sg4
VAsiah Harris
p74
sg6
I46
sg7
I57
sa(dp75
g3
I0
sg4
VNorthrop High
p76
sg6
I62
sg7
I74
sa(dp77
g3
I0
sg4
VHigh School
p78
sg6
I71
sg7
I81
sa(dp79
g3
I0
sg4
VSchool Fort
p80
sg6
I76
sg7
I86
sa(dp81
g3
I0
sg4
VFort Wayne
p82
sg6
I83
sg7
I92
sa(dp83
g3
I0
sg4
VWayne Ind.
p84
sg6
I88
sg7
I97
sa(dp85
g3
I0
sg4
VPutt Fun
p86
sg6
I236
sg7
I243
sa(dp87
g3
I0
sg4
VFun Center
p88
sg6
I241
sg7
I250
sa(dp89
g3
I0
sg4
VShanel Schrader
p90
sg6
I1349
sg7
I1363
sa(dp91
g3
I0
sg4
VNorthrop High
p92
sg6
I1368
sg7
I1380
sa(dp93
g3
I0
sg4
VHigh School
p94
sg6
I1377
sg7
I1387
sa(dp95
g3
I0
sg4
VSchool Fort
p96
sg6
I1382
sg7
I1392
sa(dp97
g3
I0
sg4
VFort Wayne
p98
sg6
I1389
sg7
I1398
sa(dp99
g3
I0
sg4
VWayne Ind.
p100
sg6
I1394
sg7
I1403
sa(dp101
g3
I0
sg4
VTitle IX
p102
sg6
I1829
sg7
I1836
sa(dp103
g3
I0
sg4
VFort Wayne.
p104
sg6
I2317
sg7
I2327
sasI3
(lp105
(dp106
g3
I0
sg4
VFuture Asiah Harris
p107
sg6
I39
sg7
I57
sa(dp108
g3
I0
sg4
VNorthrop High School
p109
sg6
I62
sg7
I81
sa(dp110
g3
I0
sg4
VHigh School Fort
p111
sg6
I71
sg7
I86
sa(dp112
g3
I0
sg4
VSchool Fort Wayne
p113
sg6
I76
sg7
I92
sa(dp114
g3
I0
sg4
VFort Wayne Ind.
p115
sg6
I83
sg7
I97
sa(dp116
g3
I0
sg4
VPutt Fun Center
p117
sg6
I236
sg7
I250
sa(dp118
g3
I0
sg4
VNorthrop High School
p119
sg6
I1368
sg7
I1387
sa(dp120
g3
I0
sg4
VHigh School Fort
p121
sg6
I1377
sg7
I1392
sa(dp122
g3
I0
sg4
VSchool Fort Wayne
p123
sg6
I1382
sg7
I1398
sa(dp124
g3
I0
sg4
VFort Wayne Ind.
p125
sg6
I1389
sg7
I1403
sasI4
(lp126
(dp127
g3
I0
sg4
VNorthrop High School Fort
p128
sg6
I62
sg7
I86
sa(dp129
g3
I0
sg4
VHigh School Fort Wayne
p130
sg6
I71
sg7
I92
sa(dp131
g3
I0
sg4
VSchool Fort Wayne Ind.
p132
sg6
I76
sg7
I97
sa(dp133
g3
I0
sg4
VNorthrop High School Fort
p134
sg6
I1368
sg7
I1392
sa(dp135
g3
I0
sg4
VHigh School Fort Wayne
p136
sg6
I1377
sg7
I1398
sa(dp137
g3
I0
sg4
VSchool Fort Wayne Ind.
p138
sg6
I1382
sg7
I1403
sasI5
(lp139
(dp140
g3
I0
sg4
VNorthrop High School Fort Wayne
p141
sg6
I62
sg7
I92
sa(dp142
g3
I0
sg4
VHigh School Fort Wayne Ind.
p143
sg6
I71
sg7
I97
sa(dp144
g3
I1
sg4
VNorthrop High School Fort Wayne
p145
sg6
I1368
sg7
I1398
sa(dp146
g3
I0
sg4
VHigh School Fort Wayne Ind.
p147
sg6
I1377
sg7
I1403
sasI6
(lp148
(dp149
g3
I1
sg4
VNorthrop High School Fort Wayne Ind.
p150
sg6
I62
sg7
I97
sa(dp151
g3
I0
sg4
VNorthrop High School Fort Wayne Ind.
p152
sg6
I1368
sg7
I1403
sas.