(dp0
I1
(lp1
(dp2
S'label'
p3
I0
sS'string'
p4
VRich.
p5
sS'start_index'
p6
I13
sS'end_index'
p7
I17
sa(dp8
g3
I0
sg4
VDon
p9
sg6
I21
sg7
I23
sa(dp10
g3
I0
sg4
VPoor.
p11
sg6
I38
sg7
I42
sa(dp12
g3
I0
sg4
VAlfred
p13
sg6
I44
sg7
I49
sa(dp14
g3
I0
sg4
VWilliams
p15
sg6
I51
sg7
I58
sa(dp16
g3
I0
sg4
VRaincross
p17
sg6
I63
sg7
I71
sa(dp18
g3
I0
sg4
VRiverside
p19
sg6
I85
sg7
I93
sa(dp20
g3
I0
sg4
VCalif.
p21
sg6
I95
sg7
I100
sa(dp22
g3
I0
sg4
VAlfred
p23
sg6
I226
sg7
I231
sa(dp24
g3
I0
sg4
VRiverside
p25
sg6
I301
sg7
I309
sa(dp26
g3
I0
sg4
VUnified
p27
sg6
I311
sg7
I317
sa(dp28
g3
I0
sg4
VDistrict.
p29
sg6
I326
sg7
I334
sa(dp30
g3
I0
sg4
VSEOUL
p31
sg6
I569
sg7
I573
sa(dp32
g3
I0
sg4
VSouth
p33
sg6
I575
sg7
I579
sa(dp34
g3
I0
sg4
VKorea
p35
sg6
I581
sg7
I585
sa(dp36
g3
I0
sg4
VPark
p37
sg6
I608
sg7
I611
sa(dp38
g3
I0
sg4
VGeun
p39
sg6
I613
sg7
I616
sa(dp40
g3
I0
sg4
VSouth
p41
sg6
I646
sg7
I650
sa(dp42
g3
I0
sg4
VKorea
p43
sg6
I652
sg7
I656
sa(dp44
g3
I0
sg4
VChoi
p45
sg6
I844
sg7
I847
sa(dp46
g3
I0
sg4
VPark
p47
sg6
I1082
sg7
I1085
sa(dp48
g3
I0
sg4
VMarch.
p49
sg6
I1170
sg7
I1175
sa(dp50
g3
I0
sg4
VChoi
p51
sg6
I1209
sg7
I1212
sa(dp52
g3
I0
sg4
VEwha
p53
sg6
I1275
sg7
I1278
sa(dp54
g3
I0
sg4
VWomans
p55
sg6
I1280
sg7
I1285
sa(dp56
g3
I0
sg4
VSeoul
p57
sg6
I1313
sg7
I1317
sa(dp58
g3
I0
sg4
VChoi
p59
sg6
I1350
sg7
I1353
sa(dp60
g3
I0
sg4
VKyung
p61
sg6
I1355
sg7
I1359
sa(dp62
g3
I0
sg4
VChung
p63
sg6
I1386
sg7
I1390
sa(dp64
g3
I0
sg4
VYoo
p65
sg6
I1392
sg7
I1394
sa(dp66
g3
I0
sg4
VEducation
p67
sg6
I1470
sg7
I1478
sa(dp68
g3
I0
sg4
VMinistry
p69
sg6
I1480
sg7
I1487
sa(dp70
g3
I0
sg4
VChung
p71
sg6
I1515
sg7
I1519
sa(dp72
g3
I0
sg4
VChoi
p73
sg6
I1593
sg7
I1596
sa(dp74
g3
I0
sg4
VChung
p75
sg6
I1672
sg7
I1676
sasI2
(lp76
(dp77
g3
I0
sg4
VAlfred Williams
p78
sg6
I44
sg7
I58
sa(dp79
g3
I0
sg4
VRaincross High
p80
sg6
I63
sg7
I76
sa(dp81
g3
I0
sg4
VHigh School
p82
sg6
I73
sg7
I83
sa(dp83
g3
I0
sg4
VSchool Riverside
p84
sg6
I78
sg7
I93
sa(dp85
g3
I0
sg4
VRiverside Calif.
p86
sg6
I85
sg7
I100
sa(dp87
g3
I0
sg4
VRiverside Unified
p88
sg6
I301
sg7
I317
sa(dp89
g3
I0
sg4
VUnified School
p90
sg6
I311
sg7
I324
sa(dp91
g3
I0
sg4
VSchool District.
p92
sg6
I319
sg7
I334
sa(dp93
g3
I0
sg4
VSEOUL South
p94
sg6
I569
sg7
I579
sa(dp95
g3
I0
sg4
VSouth Korea
p96
sg6
I575
sg7
I585
sa(dp97
g3
I0
sg4
VPark Geun
p98
sg6
I608
sg7
I616
sa(dp99
g3
I0
sg4
VSouth Korea
p100
sg6
I646
sg7
I656
sa(dp101
g3
I0
sg4
VEwha Womans
p102
sg6
I1275
sg7
I1285
sa(dp103
g3
I0
sg4
VWomans University
p104
sg6
I1280
sg7
I1296
sa(dp105
g3
I0
sg4
VChoi Kyung
p106
sg6
I1350
sg7
I1359
sa(dp107
g3
I0
sg4
VChung Yoo
p108
sg6
I1386
sg7
I1394
sa(dp109
g3
I0
sg4
VEducation Ministry
p110
sg6
I1470
sg7
I1487
sasI3
(lp111
(dp112
g3
I0
sg4
VRaincross High School
p113
sg6
I63
sg7
I83
sa(dp114
g3
I0
sg4
VHigh School Riverside
p115
sg6
I73
sg7
I93
sa(dp116
g3
I0
sg4
VSchool Riverside Calif.
p117
sg6
I78
sg7
I100
sa(dp118
g3
I1
sg4
VRiverside Unified School
p119
sg6
I301
sg7
I324
sa(dp120
g3
I0
sg4
VUnified School District.
p121
sg6
I311
sg7
I334
sa(dp122
g3
I0
sg4
VSEOUL South Korea
p123
sg6
I569
sg7
I585
sa(dp124
g3
I1
sg4
VEwha Womans University
p125
sg6
I1275
sg7
I1296
sasI4
(lp126
(dp127
g3
I0
sg4
VRaincross High School Riverside
p128
sg6
I63
sg7
I93
sa(dp129
g3
I0
sg4
VHigh School Riverside Calif.
p130
sg6
I73
sg7
I100
sa(dp131
g3
I0
sg4
VRiverside Unified School District.
p132
sg6
I301
sg7
I334
sasI5
(lp133
(dp134
g3
I1
sg4
VRaincross High School Riverside Calif.
p135
sg6
I63
sg7
I100
sasI6
(lp136
s.