(dp0
I1
(lp1
(dp2
S'label'
p3
I0
sS'string'
p4
VGreens
p5
sS'start_index'
p6
I93
sS'end_index'
p7
I98
sa(dp8
g3
I0
sg4
VAustralians
p9
sg6
I205
sg7
I215
sa(dp10
g3
I0
sg4
VNina
p11
sg6
I481
sg7
I484
sa(dp12
g3
I0
sg4
VFunnell
p13
sg6
I486
sg7
I492
sa(dp14
g3
I0
sg4
VAustralia.
p15
sg6
I553
sg7
I562
sa(dp16
g3
I0
sg4
VAustralian
p17
sg6
I564
sg7
I573
sa(dp18
g3
I0
sg4
VAustralian
p19
sg6
I663
sg7
I672
sa(dp20
g3
I0
sg4
VNational
p21
sg6
I674
sg7
I681
sa(dp22
g3
I1
sg4
VSydney
p23
sg6
I687
sg7
I692
sa(dp24
g3
I0
sg4
VSydney
p25
sg6
I745
sg7
I750
sa(dp26
g3
I0
sg4
VTyrone
p27
sg6
I831
sg7
I836
sa(dp28
g3
I0
sg4
VCarlin
p29
sg6
I838
sg7
I843
sa(dp30
g3
I1
sg4
VANU
p31
sg6
I869
sg7
I871
sa(dp32
g3
I0
sg4
VRichard
p33
sg6
I960
sg7
I966
sa(dp34
g3
I0
sg4
VBaker
p35
sg6
I968
sg7
I972
sa(dp36
g3
I0
sg4
VAustralia
p37
sg6
I1016
sg7
I1024
sa(dp38
g3
I1
sg4
VANU
p39
sg6
I1181
sg7
I1183
sa(dp40
g3
I1
sg4
VSydney
p41
sg6
I1189
sg7
I1194
sa(dp42
g3
I0
sg4
VLast
p43
sg6
I1233
sg7
I1236
sa(dp44
g3
I0
sg4
VSydney
p45
sg6
I1264
sg7
I1269
sa(dp46
g3
I0
sg4
VSydney
p47
sg6
I1525
sg7
I1530
sa(dp48
g3
I0
sg4
VSafer
p49
sg6
I1559
sg7
I1563
sa(dp50
g3
I0
sg4
VCommunities
p51
sg6
I1565
sg7
I1575
sa(dp52
g3
I0
sg4
VWorking
p53
sg6
I1577
sg7
I1583
sa(dp54
g3
I0
sg4
VGroup
p55
sg6
I1585
sg7
I1589
sa(dp56
g3
I0
sg4
VAnna
p57
sg6
I1831
sg7
I1834
sa(dp58
g3
I0
sg4
VHush
p59
sg6
I1836
sg7
I1839
sasI2
(lp60
(dp61
g3
I0
sg4
VNina Funnell
p62
sg6
I481
sg7
I492
sa(dp63
g3
I1
sg4
VAustralian National
p64
sg6
I663
sg7
I681
sa(dp65
g3
I1
sg4
VSydney University
p66
sg6
I745
sg7
I761
sa(dp67
g3
I0
sg4
VTyrone Carlin
p68
sg6
I831
sg7
I843
sa(dp69
g3
I0
sg4
VRichard Baker
p70
sg6
I960
sg7
I972
sa(dp71
g3
I1
sg4
VSydney University
p72
sg6
I1264
sg7
I1280
sa(dp73
g3
I1
sg4
VSydney University
p74
sg6
I1525
sg7
I1541
sa(dp75
g3
I0
sg4
VSafer Communities
p76
sg6
I1559
sg7
I1575
sa(dp77
g3
I0
sg4
VCommunities Working
p78
sg6
I1565
sg7
I1583
sa(dp79
g3
I0
sg4
VWorking Group
p80
sg6
I1577
sg7
I1589
sa(dp81
g3
I0
sg4
VAnna Hush
p82
sg6
I1831
sg7
I1839
sasI3
(lp83
(dp84
g3
I0
sg4
VNational and Sydney
p85
sg6
I674
sg7
I692
sa(dp86
g3
I0
sg4
VANU and Sydney
p87
sg6
I1181
sg7
I1194
sa(dp88
g3
I0
sg4
VSafer Communities Working
p89
sg6
I1559
sg7
I1583
sa(dp90
g3
I0
sg4
VCommunities Working Group
p91
sg6
I1565
sg7
I1589
sasI4
(lp92
(dp93
g3
I0
sg4
VAustralian National and Sydney
p94
sg6
I663
sg7
I692
sa(dp95
g3
I0
sg4
VSafer Communities Working Group
p96
sg6
I1559
sg7
I1589
sasI5
(lp97
sI6
(lp98
s.