(dp0
I1
(lp1
(dp2
S'label'
p3
I0
sS'string'
p4
VSydney
p5
sS'start_index'
p6
I117
sS'end_index'
p7
I122
sa(dp8
g3
I0
sg4
VChina.
p9
sg6
I219
sg7
I224
sa(dp10
g3
I0
sg4
VAustralian
p11
sg6
I256
sg7
I265
sa(dp12
g3
I0
sg4
VChinese
p13
sg6
I342
sg7
I348
sa(dp14
g3
I0
sg4
VMerriden
p15
sg6
I407
sg7
I414
sa(dp16
g3
I0
sg4
VVarrall
p17
sg6
I416
sg7
I422
sa(dp18
g3
I0
sg4
VEast
p19
sg6
I440
sg7
I443
sa(dp20
g3
I0
sg4
VAsia
p21
sg6
I445
sg7
I448
sa(dp22
g3
I0
sg4
VLowy
p23
sg6
I465
sg7
I468
sa(dp24
g3
I0
sg4
VSydney
p25
sg6
I496
sg7
I501
sa(dp26
g3
I0
sg4
VChinese
p27
sg6
I546
sg7
I552
sa(dp28
g3
I0
sg4
VChina
p29
sg6
I659
sg7
I663
sa(dp30
g3
I0
sg4
VOpium
p31
sg6
I680
sg7
I684
sa(dp32
g3
I0
sg4
VWars
p33
sg6
I686
sg7
I689
sa(dp34
g3
I0
sg4
VVarrall
p35
sg6
I806
sg7
I812
sa(dp36
g3
I0
sg4
VChinese
p37
sg6
I874
sg7
I880
sa(dp38
g3
I0
sg4
VChinese
p39
sg6
I998
sg7
I1004
sa(dp40
g3
I0
sg4
VChinese
p41
sg6
I1128
sg7
I1134
sa(dp42
g3
I0
sg4
VWang
p43
sg6
I1154
sg7
I1157
sa(dp44
g3
I0
sg4
VJunling
p45
sg6
I1159
sg7
I1165
sa(dp46
g3
I0
sg4
VChinese
p47
sg6
I1172
sg7
I1178
sa(dp48
g3
I0
sg4
VJames
p49
sg6
I1214
sg7
I1218
sa(dp50
g3
I0
sg4
VCook
p51
sg6
I1220
sg7
I1223
sa(dp52
g3
I0
sg4
VQueensland.
p53
sg6
I1239
sg7
I1249
sa(dp54
g3
I0
sg4
VGao
p55
sg6
I1284
sg7
I1286
sa(dp56
g3
I1
sg4
VMonash
p57
sg6
I1292
sg7
I1297
sa(dp58
g3
I0
sg4
VAustralian
p59
sg6
I1337
sg7
I1346
sa(dp60
g3
I0
sg4
VChina
p61
sg6
I1463
sg7
I1467
sa(dp62
g3
I0
sg4
VGao
p63
sg6
I1473
sg7
I1475
sa(dp64
g3
I0
sg4
VWeChat
p65
sg6
I1774
sg7
I1779
sa(dp66
g3
I0
sg4
VChinese
p67
sg6
I1783
sg7
I1789
sa(dp68
g3
I0
sg4
VCarrico
p69
sg6
I1903
sg7
I1909
sa(dp70
g3
I0
sg4
VSydney.
p71
sg6
I1932
sg7
I1938
sasI2
(lp72
(dp73
g3
I0
sg4
VMerriden Varrall
p74
sg6
I407
sg7
I422
sa(dp75
g3
I0
sg4
VEast Asia
p76
sg6
I440
sg7
I448
sa(dp77
g3
I1
sg4
VLowy Institute
p78
sg6
I465
sg7
I478
sa(dp79
g3
I0
sg4
VOpium Wars
p80
sg6
I680
sg7
I689
sa(dp81
g3
I0
sg4
VWang Junling
p82
sg6
I1154
sg7
I1165
sa(dp83
g3
I0
sg4
VJames Cook
p84
sg6
I1214
sg7
I1223
sa(dp85
g3
I0
sg4
VCook University
p86
sg6
I1220
sg7
I1234
sasI3
(lp87
(dp88
g3
I1
sg4
VUniversity of Sydney
p89
sg6
I103
sg7
I122
sa(dp90
g3
I1
sg4
VJames Cook University
p91
sg6
I1214
sg7
I1234
sa(dp92
g3
I1
sg4
VUniversity of Sydney.
p93
sg6
I1918
sg7
I1938
sasI4
(lp94
sI5
(lp95
sI6
(lp96
s.