(dp0
I1
(lp1
(dp2
S'label'
p3
I0
sS'string'
p4
VKatie
p5
sS'start_index'
p6
I0
sS'end_index'
p7
I4
sa(dp8
g3
I0
sg4
VThorburn
p9
sg6
I6
sg7
I13
sa(dp10
g3
I0
sg4
VSydney
p11
sg6
I63
sg7
I68
sa(dp12
g3
I0
sg4
VSydney
p13
sg6
I326
sg7
I331
sasI2
(lp14
(dp15
g3
I0
sg4
VKatie Thorburn
p16
sg6
I0
sg7
I13
sa(dp17
g3
I1
sg4
VSydney University
p18
sg6
I63
sg7
I79
sa(dp19
g3
I1
sg4
VSydney University
p20
sg6
I326
sg7
I342
sasI3
(lp21
sI4
(lp22
sI5
(lp23
sI6
(lp24
s.