(dp0
I1
(lp1
(dp2
S'label'
p3
I0
sS'string'
p4
VThorburn
p5
sS'start_index'
p6
I34
sS'end_index'
p7
I41
sa(dp8
g3
I0
sg4
VSydney
p9
sg6
I51
sg7
I56
sa(dp10
g3
I0
sg4
VEagle
p11
sg6
I158
sg7
I162
sa(dp12
g3
I0
sg4
VRock
p13
sg6
I164
sg7
I167
sa(dp14
g3
I0
sg4
VBurton
p15
sg6
I249
sg7
I254
sa(dp16
g3
I0
sg4
VGarran
p17
sg6
I260
sg7
I265
sa(dp18
g3
I0
sg4
VAugust.
p19
sg6
I287
sg7
I293
sa(dp20
g3
I0
sg4
VEver
p21
sg6
I295
sg7
I298
sa(dp22
g3
I0
sg4
VResidents
p23
sg6
I418
sg7
I426
sa(dp24
g3
I0
sg4
VEagle
p25
sg6
I457
sg7
I461
sa(dp26
g3
I0
sg4
VRock
p27
sg6
I463
sg7
I466
sa(dp28
g3
I0
sg4
VAustralian
p29
sg6
I475
sg7
I484
sa(dp30
g3
I0
sg4
VKaren
p31
sg6
I658
sg7
I662
sa(dp32
g3
I0
sg4
VWillis
p33
sg6
I664
sg7
I669
sa(dp34
g3
I0
sg4
VRape
p35
sg6
I692
sg7
I695
sa(dp36
g3
I0
sg4
VDomestic
p37
sg6
I701
sg7
I708
sa(dp38
g3
I0
sg4
VViolence
p39
sg6
I710
sg7
I717
sa(dp40
g3
I0
sg4
VServices
p41
sg6
I719
sg7
I726
sa(dp42
g3
I0
sg4
VAustralia
p43
sg6
I728
sg7
I736
sa(dp44
g3
I1
sg4
VANU
p45
sg6
I851
sg7
I853
sa(dp46
g3
I0
sg4
VAmerican
p47
sg6
I1035
sg7
I1042
sasI2
(lp48
(dp49
g3
I1
sg4
VSydney University
p50
sg6
I51
sg7
I67
sa(dp51
g3
I0
sg4
VEagle Rock
p52
sg6
I158
sg7
I167
sa(dp53
g3
I0
sg4
VEagle Rock
p54
sg6
I457
sg7
I466
sa(dp55
g3
I0
sg4
VKaren Willis
p56
sg6
I658
sg7
I669
sa(dp57
g3
I0
sg4
VDomestic Violence
p58
sg6
I701
sg7
I717
sa(dp59
g3
I0
sg4
VViolence Services
p60
sg6
I710
sg7
I726
sa(dp61
g3
I0
sg4
VServices Australia
p62
sg6
I719
sg7
I736
sasI3
(lp63
(dp64
g3
I1
sg4
VBurton and Garran
p65
sg6
I249
sg7
I265
sa(dp66
g3
I0
sg4
VRape and Domestic
p67
sg6
I692
sg7
I708
sa(dp68
g3
I0
sg4
VDomestic Violence Services
p69
sg6
I701
sg7
I726
sa(dp70
g3
I0
sg4
VViolence Services Australia
p71
sg6
I710
sg7
I736
sasI4
(lp72
(dp73
g3
I0
sg4
VRape and Domestic Violence
p74
sg6
I692
sg7
I717
sa(dp75
g3
I0
sg4
VDomestic Violence Services Australia
p76
sg6
I701
sg7
I736
sasI5
(lp77
(dp78
g3
I0
sg4
VRape and Domestic Violence Services
p79
sg6
I692
sg7
I726
sasI6
(lp80
(dp81
g3
I0
sg4
VRape and Domestic Violence Services Australia
p82
sg6
I692
sg7
I736
sas.