(dp0
I1
(lp1
(dp2
S'label'
p3
I0
sS'string'
p4
VLast
p5
sS'start_index'
p6
I0
sS'end_index'
p7
I3
sa(dp8
g3
I0
sg4
VJohn
p9
sg6
I87
sg7
I90
sa(dp10
g3
I0
sg4
VXXIII
p11
sg6
I92
sg7
I96
sa(dp12
g3
I0
sg4
VCatholic
p13
sg6
I112
sg7
I119
sa(dp14
g3
I0
sg4
VFacebook.
p15
sg6
I206
sg7
I214
sa(dp16
g3
I0
sg4
VAustralian
p17
sg6
I220
sg7
I229
sa(dp18
g3
I0
sg4
VNational
p19
sg6
I231
sg7
I238
sa(dp20
g3
I0
sg4
VAustralian
p21
sg6
I349
sg7
I358
sasI2
(lp22
(dp23
g3
I1
sg4
VJohn XXIII
p24
sg6
I87
sg7
I96
sa(dp25
g3
I0
sg4
VAustralian National
p26
sg6
I220
sg7
I238
sa(dp27
g3
I0
sg4
VNational University
p28
sg6
I231
sg7
I249
sasI3
(lp29
(dp30
g3
I1
sg4
VAustralian National University
p31
sg6
I220
sg7
I249
sasI4
(lp32
sI5
(lp33
sI6
(lp34
s.