(dp0
I1
(lp1
(dp2
S'label'
p3
I0
sS'string'
p4
VBurton
p5
sS'start_index'
p6
I162
sS'end_index'
p7
I167
sa(dp8
g3
I0
sg4
VGarran
p9
sg6
I173
sg7
I178
sa(dp10
g3
I0
sg4
VHall
p11
sg6
I180
sg7
I183
sa(dp12
g3
I0
sg4
VEagle
p13
sg6
I245
sg7
I249
sa(dp14
g3
I0
sg4
VRock
p15
sg6
I251
sg7
I254
sa(dp16
g3
I0
sg4
VJane
p17
sg6
I267
sg7
I270
sa(dp18
g3
I0
sg4
VDwyer
p19
sg6
I274
sg7
I278
sa(dp20
g3
I0
sg4
VAustralian
p21
sg6
I283
sg7
I292
sa(dp22
g3
I0
sg4
VNational
p23
sg6
I294
sg7
I301
sa(dp24
g3
I0
sg4
VAustralia
p25
sg6
I405
sg7
I413
sa(dp26
g3
I0
sg4
VJones
p27
sg6
I569
sg7
I573
sa(dp28
g3
I0
sg4
VCatholic
p29
sg6
I724
sg7
I731
sa(dp30
g3
I0
sg4
VChurch
p31
sg6
I733
sg7
I738
sa(dp32
g3
I0
sg4
VEnd
p33
sg6
I769
sg7
I771
sa(dp34
g3
I0
sg4
VRape
p35
sg6
I773
sg7
I776
sa(dp36
g3
I0
sg4
VCampus
p37
sg6
I781
sg7
I786
sa(dp38
g3
I0
sg4
VAustralian
p39
sg6
I929
sg7
I938
sa(dp40
g3
I0
sg4
VAustralian
p41
sg6
I1009
sg7
I1018
sa(dp42
g3
I0
sg4
VNational
p43
sg6
I1020
sg7
I1027
sa(dp44
g3
I0
sg4
VBaker
p45
sg6
I1245
sg7
I1249
sa(dp46
g3
I0
sg4
VSydney
p47
sg6
I1358
sg7
I1363
sa(dp48
g3
I0
sg4
VChu
p49
sg6
I1412
sg7
I1414
sa(dp50
g3
I0
sg4
VYelp
p51
sg6
I1434
sg7
I1437
sa(dp52
g3
I0
sg4
VNews
p53
sg6
I1518
sg7
I1521
sa(dp54
g3
I0
sg4
VChu
p55
sg6
I1646
sg7
I1648
sa(dp56
g3
I0
sg4
VChu
p57
sg6
I1914
sg7
I1916
sa(dp58
g3
I0
sg4
VPierson
p59
sg6
I1973
sg7
I1979
sa(dp60
g3
I0
sg4
VStephen
p61
sg6
I2013
sg7
I2019
sa(dp62
g3
I0
sg4
VDavis
p63
sg6
I2021
sg7
I2025
sa(dp64
g3
I0
sg4
VChu
p65
sg6
I2065
sg7
I2067
sa(dp66
g3
I0
sg4
VDean
p67
sg6
I2117
sg7
I2120
sa(dp68
g3
I0
sg4
VChu
p69
sg6
I2122
sg7
I2124
sa(dp70
g3
I0
sg4
VPierson
p71
sg6
I2151
sg7
I2157
sa(dp72
g3
I0
sg4
VDavis
p73
sg6
I2207
sg7
I2211
sa(dp74
g3
I0
sg4
VWednesday.
p75
sg6
I2265
sg7
I2274
sasI2
(lp76
(dp77
g3
I0
sg4
VGarran Hall
p78
sg6
I173
sg7
I183
sa(dp79
g3
I0
sg4
VEagle Rock
p80
sg6
I245
sg7
I254
sa(dp81
g3
I0
sg4
VJane O
p82
sg6
I267
sg7
I272
sa(dp83
g3
I0
sg4
VO Dwyer
p84
sg6
I272
sg7
I278
sa(dp85
g3
I1
sg4
VAustralian National
p86
sg6
I283
sg7
I301
sa(dp87
g3
I0
sg4
VCatholic Church
p88
sg6
I724
sg7
I738
sa(dp89
g3
I0
sg4
VEnd Rape
p90
sg6
I769
sg7
I776
sa(dp91
g3
I1
sg4
VAustralian National
p92
sg6
I1009
sg7
I1027
sa(dp93
g3
I1
sg4
VSydney University
p94
sg6
I1358
sg7
I1374
sa(dp95
g3
I1
sg4
VPierson College
p96
sg6
I1973
sg7
I1987
sa(dp97
g3
I0
sg4
VStephen Davis
p98
sg6
I2013
sg7
I2025
sa(dp99
g3
I0
sg4
VDean Chu
p100
sg6
I2117
sg7
I2124
sa(dp101
g3
I1
sg4
VPierson College
p102
sg6
I2151
sg7
I2165
sasI3
(lp103
(dp104
g3
I0
sg4
VBurton and Garran
p105
sg6
I162
sg7
I178
sa(dp106
g3
I0
sg4
VJane O Dwyer
p107
sg6
I267
sg7
I278
sasI4
(lp108
(dp109
g3
I0
sg4
VBurton and Garran Hall
p110
sg6
I162
sg7
I183
sasI5
(lp111
sI6
(lp112
s.