(dp0
I1
(lp1
(dp2
S'label'
p3
I0
sS'string'
p4
VDavis
p5
sS'start_index'
p6
I155
sS'end_index'
p7
I159
sa(dp8
g3
I0
sg4
VChu
p9
sg6
I175
sg7
I177
sa(dp10
g3
I0
sg4
VDean
p11
sg6
I536
sg7
I539
sa(dp12
g3
I0
sg4
VChu
p13
sg6
I541
sg7
I543
sa(dp14
g3
I0
sg4
VPierson
p15
sg6
I604
sg7
I610
sa(dp16
g3
I0
sg4
VCollege.
p17
sg6
I612
sg7
I619
sa(dp18
g3
I0
sg4
VChu
p19
sg6
I625
sg7
I627
sa(dp20
g3
I1
sg4
VYale
p21
sg6
I667
sg7
I670
sa(dp22
g3
I0
sg4
VMark
p23
sg6
I749
sg7
I752
sa(dp24
g3
I0
sg4
VSchenker
p25
sg6
I754
sg7
I761
sa(dp26
g3
I1
sg4
VYale.
p27
sg6
I790
sg7
I794
sa(dp28
g3
I0
sg4
VSchenker
p29
sg6
I800
sg7
I807
sa(dp30
g3
I0
sg4
VWednesday.
p31
sg6
I846
sg7
I855
sa(dp32
g3
I0
sg4
VCalls
p33
sg6
I857
sg7
I861
sa(dp34
g3
I0
sg4
VChu
p35
sg6
I913
sg7
I915
sa(dp36
g3
I0
sg4
VChu
p37
sg6
I940
sg7
I942
sa(dp38
g3
I0
sg4
VPerspectives
p39
sg6
I1012
sg7
I1023
sa(dp40
g3
I0
sg4
VAsian
p41
sg6
I1028
sg7
I1032
sa(dp42
g3
I0
sg4
VAmerican
p43
sg6
I1034
sg7
I1041
sa(dp44
g3
I0
sg4
VPsychology
p45
sg6
I1043
sg7
I1052
sa(dp46
g3
I0
sg4
VAsian
p47
sg6
I1081
sg7
I1085
sa(dp48
g3
I0
sg4
VAmerican
p49
sg6
I1087
sg7
I1094
sa(dp50
g3
I0
sg4
VAccording
p51
sg6
I1213
sg7
I1221
sa(dp52
g3
I0
sg4
VChu
p53
sg6
I1276
sg7
I1278
sa(dp54
g3
I0
sg4
VBachelor
p55
sg6
I1289
sg7
I1296
sa(dp56
g3
I0
sg4
VArts
p57
sg6
I1301
sg7
I1304
sa(dp58
g3
I0
sg4
VPsychology
p59
sg6
I1316
sg7
I1325
sa(dp60
g3
I0
sg4
VBryn
p61
sg6
I1332
sg7
I1335
sa(dp62
g3
I0
sg4
VMawr
p63
sg6
I1337
sg7
I1340
sa(dp64
g3
I0
sg4
VHarvard
p65
sg6
I1376
sg7
I1382
sa(dp66
g3
I0
sg4
VCalifornia
p67
sg6
I1417
sg7
I1426
sa(dp68
g3
I0
sg4
VDavis.
p69
sg6
I1428
sg7
I1433
sa(dp70
g3
I0
sg4
VDavis
p71
sg6
I1463
sg7
I1467
sa(dp72
g3
I0
sg4
VPennsylvania
p73
sg6
I1491
sg7
I1502
sa(dp74
g3
I0
sg4
VPan
p75
sg6
I1534
sg7
I1536
sa(dp76
g3
I0
sg4
VAsian
p77
sg6
I1538
sg7
I1542
sa(dp78
g3
I0
sg4
VAmerican
p79
sg6
I1544
sg7
I1551
sa(dp80
g3
I0
sg4
VCommunity
p81
sg6
I1553
sg7
I1561
sa(dp82
g3
I0
sg4
VHouse
p83
sg6
I1563
sg7
I1567
sa(dp84
g3
I0
sg4
VJonathan
p85
sg6
I1599
sg7
I1606
sa(dp86
g3
I0
sg4
VHolloway
p87
sg6
I1608
sg7
I1615
sa(dp88
g3
I1
sg4
VYale.
p89
sg6
I1629
sg7
I1633
sasI2
(lp90
(dp91
g3
I0
sg4
VDean Chu
p92
sg6
I536
sg7
I543
sa(dp93
g3
I1
sg4
VPierson College.
p94
sg6
I604
sg7
I619
sa(dp95
g3
I0
sg4
VMark Schenker
p96
sg6
I749
sg7
I761
sa(dp97
g3
I0
sg4
VAsian American
p98
sg6
I1028
sg7
I1041
sa(dp99
g3
I0
sg4
VAmerican Psychology
p100
sg6
I1034
sg7
I1052
sa(dp101
g3
I0
sg4
VAsian American
p102
sg6
I1081
sg7
I1094
sa(dp103
g3
I0
sg4
VBryn Mawr
p104
sg6
I1332
sg7
I1340
sa(dp105
g3
I0
sg4
VMawr College
p106
sg6
I1337
sg7
I1348
sa(dp107
g3
I1
sg4
VHarvard University
p108
sg6
I1376
sg7
I1393
sa(dp109
g3
I0
sg4
VCalifornia Davis.
p110
sg6
I1417
sg7
I1433
sa(dp111
g3
I0
sg4
VU. C.
p112
sg6
I1457
sg7
I1461
sa(dp113
g3
I0
sg4
VC. Davis
p114
sg6
I1460
sg7
I1467
sa(dp115
g3
I0
sg4
VPan Asian
p116
sg6
I1534
sg7
I1542
sa(dp117
g3
I0
sg4
VAsian American
p118
sg6
I1538
sg7
I1551
sa(dp119
g3
I0
sg4
VAmerican Community
p120
sg6
I1544
sg7
I1561
sa(dp121
g3
I0
sg4
VCommunity House
p122
sg6
I1553
sg7
I1567
sa(dp123
g3
I0
sg4
VJonathan Holloway
p124
sg6
I1599
sg7
I1615
sasI3
(lp125
(dp126
g3
I0
sg4
VAsian American Psychology
p127
sg6
I1028
sg7
I1052
sa(dp128
g3
I0
sg4
VBachelor of Arts
p129
sg6
I1289
sg7
I1304
sa(dp130
g3
I1
sg4
VBryn Mawr College
p131
sg6
I1332
sg7
I1348
sa(dp132
g3
I0
sg4
VUniversity of California
p133
sg6
I1403
sg7
I1426
sa(dp134
g3
I1
sg4
VU. C. Davis
p135
sg6
I1457
sg7
I1467
sa(dp136
g3
I1
sg4
VUniversity of Pennsylvania
p137
sg6
I1477
sg7
I1502
sa(dp138
g3
I0
sg4
VPan Asian American
p139
sg6
I1534
sg7
I1551
sa(dp140
g3
I0
sg4
VAsian American Community
p141
sg6
I1538
sg7
I1561
sa(dp142
g3
I0
sg4
VAmerican Community House
p143
sg6
I1544
sg7
I1567
sasI4
(lp144
(dp145
g3
I1
sg4
VUniversity of California Davis.
p146
sg6
I1403
sg7
I1433
sa(dp147
g3
I0
sg4
VPan Asian American Community
p148
sg6
I1534
sg7
I1561
sa(dp149
g3
I0
sg4
VAsian American Community House
p150
sg6
I1538
sg7
I1567
sasI5
(lp151
(dp152
g3
I0
sg4
VPan Asian American Community House
p153
sg6
I1534
sg7
I1567
sasI6
(lp154
s.