(dp0
I1
(lp1
(dp2
S'label'
p3
I0
sS'string'
p4
VNational
p5
sS'start_index'
p6
I107
sS'end_index'
p7
I114
sa(dp8
g3
I0
sg4
VSalvador.
p9
sg6
I133
sg7
I141
sa(dp10
g3
I0
sg4
VSalvadoran
p11
sg6
I184
sg7
I193
sa(dp12
g3
I0
sg4
VUnited
p13
sg6
I490
sg7
I495
sa(dp14
g3
I0
sg4
VStates
p15
sg6
I497
sg7
I502
sa(dp16
g3
I0
sg4
VNational
p17
sg6
I590
sg7
I597
sa(dp18
g3
I1
sg4
VUCLA
p19
sg6
I828
sg7
I831
sa(dp20
g3
I0
sg4
VBel
p21
sg6
I851
sg7
I853
sa(dp22
g3
I0
sg4
VAir
p23
sg6
I855
sg7
I857
sa(dp24
g3
I1
sg4
VStanford
p25
sg6
I964
sg7
I971
sa(dp26
g3
I0
sg4
VNuestra
p27
sg6
I1227
sg7
I1233
sa(dp28
g3
I0
sg4
VGraduaci
p29
sg6
I1235
sg7
I1242
sa(dp30
g3
I0
sg4
VLatino
p31
sg6
I1283
sg7
I1288
sa(dp32
g3
I1
sg4
VStanford
p33
sg6
I1302
sg7
I1309
sa(dp34
g3
I1
sg4
VStanford
p35
sg6
I1384
sg7
I1391
sa(dp36
g3
I0
sg4
VSpanish
p37
sg6
I1433
sg7
I1439
sa(dp38
g3
I0
sg4
VStanford
p39
sg6
I1462
sg7
I1469
sa(dp40
g3
I0
sg4
VMemorial
p41
sg6
I1471
sg7
I1478
sa(dp42
g3
I0
sg4
VChurch
p43
sg6
I1480
sg7
I1485
sa(dp44
g3
I0
sg4
VRomanesque
p45
sg6
I1489
sg7
I1498
sa(dp46
g3
I0
sg4
VGraduates
p47
sg6
I1586
sg7
I1594
sa(dp48
g3
I0
sg4
VFaculty
p49
sg6
I1689
sg7
I1695
sa(dp50
g3
I0
sg4
VCentro
p51
sg6
I1743
sg7
I1748
sa(dp52
g3
I0
sg4
VChicano
p53
sg6
I1750
sg7
I1756
sa(dp54
g3
I0
sg4
VLatino
p55
sg6
I1760
sg7
I1765
sa(dp56
g3
I0
sg4
VNuestra
p57
sg6
I2134
sg7
I2140
sa(dp58
g3
I0
sg4
VAlternative
p59
sg6
I2169
sg7
I2179
sa(dp60
g3
I1
sg4
VHarvard
p61
sg6
I2250
sg7
I2256
sa(dp62
g3
I1
sg4
VColumbia
p63
sg6
I2329
sg7
I2336
sa(dp64
g3
I0
sg4
VDelaware
p65
sg6
I2412
sg7
I2419
sa(dp66
g3
I0
sg4
VLavender
p67
sg6
I2464
sg7
I2471
sa(dp68
g3
I0
sg4
VG.B.
p69
sg6
I2491
sg7
I2494
sa(dp70
g3
I0
sg4
VAlternative
p71
sg6
I2878
sg7
I2888
sa(dp72
g3
I0
sg4
VStanford
p73
sg6
I3094
sg7
I3101
sa(dp74
g3
I0
sg4
VMemorial
p75
sg6
I3103
sg7
I3110
sa(dp76
g3
I0
sg4
VChurch.
p77
sg6
I3112
sg7
I3118
sa(dp78
g3
I0
sg4
VNuestra
p79
sg6
I3325
sg7
I3331
sa(dp80
g3
I0
sg4
VGraduaci
p81
sg6
I3333
sg7
I3340
sasI2
(lp82
(dp83
g3
I0
sg4
VNational University
p84
sg6
I107
sg7
I125
sa(dp85
g3
I0
sg4
VEl Salvador.
p86
sg6
I130
sg7
I141
sa(dp87
g3
I0
sg4
VUnited States
p88
sg6
I490
sg7
I502
sa(dp89
g3
I1
sg4
VNational University
p90
sg6
I590
sg7
I608
sa(dp91
g3
I0
sg4
VBel Air
p92
sg6
I851
sg7
I857
sa(dp93
g3
I0
sg4
VNuestra Graduaci
p94
sg6
I1227
sg7
I1242
sa(dp95
g3
I0
sg4
VStanford Memorial
p96
sg6
I1462
sg7
I1478
sa(dp97
g3
I0
sg4
VMemorial Church
p98
sg6
I1471
sg7
I1485
sa(dp99
g3
I0
sg4
VEl Centro
p100
sg6
I1740
sg7
I1748
sa(dp101
g3
I0
sg4
VCentro Chicano
p102
sg6
I1743
sg7
I1756
sa(dp103
g3
I0
sg4
VL. G.B.
p104
sg6
I2488
sg7
I2494
sa(dp105
g3
I0
sg4
VG.B. T.
p106
sg6
I2491
sg7
I2497
sa(dp107
g3
I0
sg4
VStanford Memorial
p108
sg6
I3094
sg7
I3110
sa(dp109
g3
I0
sg4
VMemorial Church.
p110
sg6
I3103
sg7
I3118
sa(dp111
g3
I0
sg4
VNuestra Graduaci
p112
sg6
I3325
sg7
I3340
sasI3
(lp113
(dp114
g3
I0
sg4
VUniversity of El
p115
sg6
I116
sg7
I131
sa(dp116
g3
I0
sg4
VStanford Memorial Church
p117
sg6
I1462
sg7
I1485
sa(dp118
g3
I0
sg4
VEl Centro Chicano
p119
sg6
I1740
sg7
I1756
sa(dp120
g3
I1
sg4
VUniversity of Delaware
p121
sg6
I2398
sg7
I2419
sa(dp122
g3
I0
sg4
VL. G.B. T.
p123
sg6
I2488
sg7
I2497
sa(dp124
g3
I0
sg4
VStanford Memorial Church.
p125
sg6
I3094
sg7
I3118
sasI4
(lp126
(dp127
g3
I0
sg4
VNational University of El
p128
sg6
I107
sg7
I131
sa(dp129
g3
I0
sg4
VUniversity of El Salvador.
p130
sg6
I116
sg7
I141
sasI5
(lp131
(dp132
g3
I1
sg4
VNational University of El Salvador.
p133
sg6
I107
sg7
I141
sasI6
(lp134
s.