(dp0
I1
(lp1
(dp2
S'label'
p3
I0
sS'string'
p4
VPressures
p5
sS'start_index'
p6
I79
sS'end_index'
p7
I87
sa(dp8
g3
I0
sg4
VHigher
p9
sg6
I197
sg7
I202
sa(dp10
g3
I0
sg4
VNew
p11
sg6
I404
sg7
I406
sa(dp12
g3
I0
sg4
VYork
p13
sg6
I408
sg7
I411
sa(dp14
g3
I0
sg4
VNew
p15
sg6
I538
sg7
I540
sa(dp16
g3
I0
sg4
VYork
p17
sg6
I542
sg7
I545
sa(dp18
g3
I0
sg4
VAndrew
p19
sg6
I564
sg7
I569
sa(dp20
g3
I0
sg4
VHamilton
p21
sg6
I571
sg7
I578
sa(dp22
g3
I0
sg4
VPace
p23
sg6
I598
sg7
I601
sa(dp24
g3
I0
sg4
VJohn
p25
sg6
I618
sg7
I621
sa(dp26
g3
I0
sg4
VJay
p27
sg6
I623
sg7
I625
sa(dp28
g3
I0
sg4
VCriminal
p29
sg6
I638
sg7
I645
sa(dp30
g3
I0
sg4
VJustice
p31
sg6
I647
sg7
I653
sa(dp32
g3
I0
sg4
VVassar
p33
sg6
I655
sg7
I660
sa(dp34
g3
I0
sg4
VBarnard
p35
sg6
I674
sg7
I680
sa(dp36
g3
I0
sg4
VCollege.
p37
sg6
I682
sg7
I689
sa(dp38
g3
I0
sg4
VState
p39
sg6
I695
sg7
I699
sa(dp40
g3
I0
sg4
VNew
p41
sg6
I715
sg7
I717
sa(dp42
g3
I0
sg4
VYork
p43
sg6
I719
sg7
I722
sa(dp44
g3
I0
sg4
VApril.
p45
sg6
I750
sg7
I755
sa(dp46
g3
I0
sg4
VCity
p47
sg6
I761
sg7
I764
sa(dp48
g3
I0
sg4
VNew
p49
sg6
I777
sg7
I779
sa(dp50
g3
I0
sg4
VYork
p51
sg6
I781
sg7
I784
sa(dp52
g3
I0
sg4
VHispanics
p53
sg6
I1401
sg7
I1409
sa(dp54
g3
I0
sg4
VHispanic
p55
sg6
I1426
sg7
I1433
sa(dp56
g3
I0
sg4
VHispanic
p57
sg6
I1496
sg7
I1503
sa(dp58
g3
I0
sg4
VMEXICO
p59
sg6
I1556
sg7
I1561
sa(dp60
g3
I0
sg4
VCITY
p61
sg6
I1563
sg7
I1566
sa(dp62
g3
I0
sg4
VExams
p63
sg6
I1568
sg7
I1572
sa(dp64
g3
I0
sg4
VNational
p65
sg6
I1636
sg7
I1643
sa(dp66
g3
I0
sg4
VAutonomous
p67
sg6
I1645
sg7
I1654
sa(dp68
g3
I0
sg4
VMexico
p69
sg6
I1670
sg7
I1675
sa(dp70
g3
I0
sg4
VJusto
p71
sg6
I1985
sg7
I1989
sa(dp72
g3
I0
sg4
VSierra
p73
sg6
I1991
sg7
I1996
sa(dp74
g3
I0
sg4
VAuditorium
p75
sg6
I1998
sg7
I2007
sa(dp76
g3
I0
sg4
VColumbia
p77
sg6
I2218
sg7
I2225
sa(dp78
g3
I0
sg4
VNational
p79
sg6
I2292
sg7
I2299
sa(dp80
g3
I0
sg4
VAutonomous
p81
sg6
I2301
sg7
I2310
sa(dp82
g3
I0
sg4
VMexico
p83
sg6
I2326
sg7
I2331
sa(dp84
g3
I0
sg4
VSpanish
p85
sg6
I2346
sg7
I2352
sa(dp86
g3
I1
sg4
VUNAM
p87
sg6
I2363
sg7
I2366
sasI2
(lp88
(dp89
g3
I0
sg4
VNew York
p90
sg6
I404
sg7
I411
sa(dp91
g3
I0
sg4
VNew York
p92
sg6
I538
sg7
I545
sa(dp93
g3
I0
sg4
VYork University
p94
sg6
I542
sg7
I556
sa(dp95
g3
I0
sg4
VAndrew Hamilton
p96
sg6
I564
sg7
I578
sa(dp97
g3
I1
sg4
VPace University
p98
sg6
I598
sg7
I612
sa(dp99
g3
I0
sg4
VJohn Jay
p100
sg6
I618
sg7
I625
sa(dp101
g3
I0
sg4
VJay College
p102
sg6
I623
sg7
I633
sa(dp103
g3
I0
sg4
VCriminal Justice
p104
sg6
I638
sg7
I653
sa(dp105
g3
I0
sg4
VJustice Vassar
p106
sg6
I647
sg7
I660
sa(dp107
g3
I1
sg4
VVassar College
p108
sg6
I655
sg7
I668
sa(dp109
g3
I1
sg4
VBarnard College.
p110
sg6
I674
sg7
I689
sa(dp111
g3
I0
sg4
VState University
p112
sg6
I695
sg7
I710
sa(dp113
g3
I0
sg4
VNew York
p114
sg6
I715
sg7
I722
sa(dp115
g3
I0
sg4
VCity College
p116
sg6
I761
sg7
I772
sa(dp117
g3
I0
sg4
VNew York
p118
sg6
I777
sg7
I784
sa(dp119
g3
I0
sg4
VMEXICO CITY
p120
sg6
I1556
sg7
I1566
sa(dp121
g3
I0
sg4
VCITY Exams
p122
sg6
I1563
sg7
I1572
sa(dp123
g3
I0
sg4
VNational Autonomous
p124
sg6
I1636
sg7
I1654
sa(dp125
g3
I0
sg4
VAutonomous University
p126
sg6
I1645
sg7
I1665
sa(dp127
g3
I0
sg4
VJusto Sierra
p128
sg6
I1985
sg7
I1996
sa(dp129
g3
I0
sg4
VSierra Auditorium
p130
sg6
I1991
sg7
I2007
sa(dp131
g3
I1
sg4
VColumbia University
p132
sg6
I2218
sg7
I2236
sa(dp133
g3
I0
sg4
VNational Autonomous
p134
sg6
I2292
sg7
I2310
sa(dp135
g3
I0
sg4
VAutonomous University
p136
sg6
I2301
sg7
I2321
sasI3
(lp137
(dp138
g3
I1
sg4
VNew York University
p139
sg6
I538
sg7
I556
sa(dp140
g3
I0
sg4
VJohn Jay College
p141
sg6
I618
sg7
I633
sa(dp142
g3
I0
sg4
VCollege of Criminal
p143
sg6
I627
sg7
I645
sa(dp144
g3
I0
sg4
VCriminal Justice Vassar
p145
sg6
I638
sg7
I660
sa(dp146
g3
I0
sg4
VJustice Vassar College
p147
sg6
I647
sg7
I668
sa(dp148
g3
I0
sg4
VCollege and Barnard
p149
sg6
I662
sg7
I680
sa(dp150
g3
I0
sg4
VUniversity of New
p151
sg6
I701
sg7
I717
sa(dp152
g3
I0
sg4
VCollege of New
p153
sg6
I766
sg7
I779
sa(dp154
g3
I0
sg4
VMEXICO CITY Exams
p155
sg6
I1556
sg7
I1572
sa(dp156
g3
I0
sg4
VNational Autonomous University
p157
sg6
I1636
sg7
I1665
sa(dp158
g3
I0
sg4
VUniversity of Mexico
p159
sg6
I1656
sg7
I1675
sa(dp160
g3
I0
sg4
VJusto Sierra Auditorium
p161
sg6
I1985
sg7
I2007
sa(dp162
g3
I0
sg4
VNational Autonomous University
p163
sg6
I2292
sg7
I2321
sa(dp164
g3
I0
sg4
VUniversity of Mexico
p165
sg6
I2312
sg7
I2331
sasI4
(lp166
(dp167
g3
I0
sg4
VJay College of Criminal
p168
sg6
I623
sg7
I645
sa(dp169
g3
I0
sg4
VCollege of Criminal Justice
p170
sg6
I627
sg7
I653
sa(dp171
g3
I0
sg4
VCriminal Justice Vassar College
p172
sg6
I638
sg7
I668
sa(dp173
g3
I0
sg4
VVassar College and Barnard
p174
sg6
I655
sg7
I680
sa(dp175
g3
I0
sg4
VCollege and Barnard College.
p176
sg6
I662
sg7
I689
sa(dp177
g3
I0
sg4
VState University of New
p178
sg6
I695
sg7
I717
sa(dp179
g3
I0
sg4
VUniversity of New York
p180
sg6
I701
sg7
I722
sa(dp181
g3
I0
sg4
VCity College of New
p182
sg6
I761
sg7
I779
sa(dp183
g3
I0
sg4
VCollege of New York
p184
sg6
I766
sg7
I784
sa(dp185
g3
I0
sg4
VAutonomous University of Mexico
p186
sg6
I1645
sg7
I1675
sa(dp187
g3
I0
sg4
VAutonomous University of Mexico
p188
sg6
I2301
sg7
I2331
sasI5
(lp189
(dp190
g3
I0
sg4
VJohn Jay College of Criminal
p191
sg6
I618
sg7
I645
sa(dp192
g3
I0
sg4
VJay College of Criminal Justice
p193
sg6
I623
sg7
I653
sa(dp194
g3
I0
sg4
VCollege of Criminal Justice Vassar
p195
sg6
I627
sg7
I660
sa(dp196
g3
I0
sg4
VJustice Vassar College and Barnard
p197
sg6
I647
sg7
I680
sa(dp198
g3
I0
sg4
VVassar College and Barnard College.
p199
sg6
I655
sg7
I689
sa(dp200
g3
I1
sg4
VState University of New York
p201
sg6
I695
sg7
I722
sa(dp202
g3
I1
sg4
VCity College of New York
p203
sg6
I761
sg7
I784
sa(dp204
g3
I1
sg4
VNational Autonomous University of Mexico
p205
sg6
I1636
sg7
I1675
sa(dp206
g3
I1
sg4
VNational Autonomous University of Mexico
p207
sg6
I2292
sg7
I2331
sasI6
(lp208
(dp209
g3
I1
sg4
VJohn Jay College of Criminal Justice
p210
sg6
I618
sg7
I653
sa(dp211
g3
I0
sg4
VJay College of Criminal Justice Vassar
p212
sg6
I623
sg7
I660
sa(dp213
g3
I0
sg4
VCriminal Justice Vassar College and Barnard
p214
sg6
I638
sg7
I680
sa(dp215
g3
I0
sg4
VJustice Vassar College and Barnard College.
p216
sg6
I647
sg7
I689
sas.