(dp0
I1
(lp1
(dp2
S'label'
p3
I1
sS'string'
p4
VUNAM
p5
sS'start_index'
p6
I449
sS'end_index'
p7
I452
sa(dp8
g3
I0
sg4
VLatin
p9
sg6
I480
sg7
I484
sa(dp10
g3
I0
sg4
VAmerica
p11
sg6
I486
sg7
I492
sa(dp12
g3
I1
sg4
VUNAM
p13
sg6
I797
sg7
I800
sa(dp14
g3
I1
sg4
VUNAM
p15
sg6
I863
sg7
I866
sa(dp16
g3
I0
sg4
VStrikers
p17
sg6
I1094
sg7
I1101
sa(dp18
g3
I0
sg4
VLatin
p19
sg6
I1439
sg7
I1443
sa(dp20
g3
I0
sg4
VAmerica
p21
sg6
I1445
sg7
I1451
sa(dp22
g3
I0
sg4
VChe
p23
sg6
I1533
sg7
I1535
sa(dp24
g3
I0
sg4
VGuevara
p25
sg6
I1537
sg7
I1543
sa(dp26
g3
I0
sg4
VAuditorium.
p27
sg6
I1545
sg7
I1555
sa(dp28
g3
I0
sg4
VImanol
p29
sg6
I1662
sg7
I1667
sa(dp30
g3
I0
sg4
VOrdorika
p31
sg6
I1669
sg7
I1676
sa(dp32
g3
I0
sg4
VSacrist
p33
sg6
I1678
sg7
I1684
sa(dp34
g3
I1
sg4
VUNAM
p35
sg6
I1696
sg7
I1699
sa(dp36
g3
I1
sg4
VUNAM
p37
sg6
I1758
sg7
I1761
sa(dp38
g3
I0
sg4
VOrdorika
p39
sg6
I1767
sg7
I1774
sa(dp40
g3
I0
sg4
VLater
p41
sg6
I2553
sg7
I2557
sa(dp42
g3
I0
sg4
VBurn
p43
sg6
I3038
sg7
I3041
sasI2
(lp44
(dp45
g3
I0
sg4
VLatin America
p46
sg6
I480
sg7
I492
sa(dp47
g3
I0
sg4
VLatin America
p48
sg6
I1439
sg7
I1451
sa(dp49
g3
I0
sg4
VChe Guevara
p50
sg6
I1533
sg7
I1543
sa(dp51
g3
I0
sg4
VGuevara Auditorium.
p52
sg6
I1537
sg7
I1555
sa(dp53
g3
I0
sg4
VImanol Ordorika
p54
sg6
I1662
sg7
I1676
sa(dp55
g3
I0
sg4
VOrdorika Sacrist
p56
sg6
I1669
sg7
I1684
sasI3
(lp57
(dp58
g3
I0
sg4
VChe Guevara Auditorium.
p59
sg6
I1533
sg7
I1555
sa(dp60
g3
I0
sg4
VImanol Ordorika Sacrist
p61
sg6
I1662
sg7
I1684
sasI4
(lp62
sI5
(lp63
sI6
(lp64
s.