(dp0
I1
(lp1
(dp2
S'label'
p3
I0
sS'string'
p4
VGabriel
p5
sS'start_index'
p6
I72
sS'end_index'
p7
I78
sa(dp8
g3
I0
sg4
VRamos
p9
sg6
I80
sg7
I84
sa(dp10
g3
I0
sg4
VGarc
p11
sg6
I86
sg7
I89
sa(dp12
g3
I0
sg4
VPhilosophy
p13
sg6
I151
sg7
I160
sa(dp14
g3
I0
sg4
VLiterature.
p15
sg6
I166
sg7
I176
sa(dp16
g3
I1
sg4
VUNAM
p17
sg6
I230
sg7
I233
sa(dp18
g3
I0
sg4
VAmbrosio
p19
sg6
I612
sg7
I619
sa(dp20
g3
I0
sg4
VVelasco
p21
sg6
I621
sg7
I627
sa(dp22
g3
I0
sg4
VPhilosophy
p23
sg6
I670
sg7
I679
sa(dp24
g3
I0
sg4
VLiterature
p25
sg6
I685
sg7
I694
sa(dp26
g3
I0
sg4
VOccupiers
p27
sg6
I1337
sg7
I1345
sa(dp28
g3
I0
sg4
VNew
p29
sg6
I1369
sg7
I1371
sa(dp30
g3
I0
sg4
VYork
p31
sg6
I1373
sg7
I1376
sa(dp32
g3
I0
sg4
VTimes
p33
sg6
I1378
sg7
I1382
sasI2
(lp34
(dp35
g3
I0
sg4
VGabriel Ramos
p36
sg6
I72
sg7
I84
sa(dp37
g3
I0
sg4
VRamos Garc
p38
sg6
I80
sg7
I89
sa(dp39
g3
I0
sg4
VAmbrosio Velasco
p40
sg6
I612
sg7
I627
sa(dp41
g3
I0
sg4
VVelasco G
p42
sg6
I621
sg7
I629
sa(dp43
g3
I0
sg4
VNew York
p44
sg6
I1369
sg7
I1376
sa(dp45
g3
I0
sg4
VYork Times
p46
sg6
I1373
sg7
I1382
sasI3
(lp47
(dp48
g3
I0
sg4
VGabriel Ramos Garc
p49
sg6
I72
sg7
I89
sa(dp50
g3
I0
sg4
VSchool of Philosophy
p51
sg6
I141
sg7
I160
sa(dp52
g3
I0
sg4
VPhilosophy and Literature.
p53
sg6
I151
sg7
I176
sa(dp54
g3
I0
sg4
VAmbrosio Velasco G
p55
sg6
I612
sg7
I629
sa(dp56
g3
I0
sg4
VSchool of Philosophy
p57
sg6
I660
sg7
I679
sa(dp58
g3
I0
sg4
VPhilosophy and Literature
p59
sg6
I670
sg7
I694
sa(dp60
g3
I0
sg4
VNew York Times
p61
sg6
I1369
sg7
I1382
sasI4
(lp62
sI5
(lp63
(dp64
g3
I1
sg4
VSchool of Philosophy and Literature.
p65
sg6
I141
sg7
I176
sa(dp66
g3
I1
sg4
VSchool of Philosophy and Literature
p67
sg6
I660
sg7
I694
sasI6
(lp68
s.