(dp0
I1
(lp1
(dp2
S'label'
p3
I0
sS'string'
p4
VGabriel
p5
sS'start_index'
p6
I72
sS'end_index'
p7
I78
sa(dp8
g3
I0
sg4
VRamos
p9
sg6
I80
sg7
I84
sa(dp10
g3
I0
sg4
VGarc
p11
sg6
I86
sg7
I89
sa(dp12
g3
I0
sg4
VPhilosophy
p13
sg6
I140
sg7
I149
sa(dp14
g3
I0
sg4
VLiterature.
p15
sg6
I155
sg7
I165
sa(dp16
g3
I0
sg4
VNallely
p17
sg6
I270
sg7
I276
sa(dp18
g3
I0
sg4
VPhilosophy
p19
sg6
I348
sg7
I357
sa(dp20
g3
I0
sg4
VLiterature
p21
sg6
I363
sg7
I372
sa(dp22
g3
I1
sg4
VUNAM
p23
sg6
I648
sg7
I651
sa(dp24
g3
I0
sg4
VLatin
p25
sg6
I902
sg7
I906
sa(dp26
g3
I0
sg4
VAmerica.
p27
sg6
I908
sg7
I915
sa(dp28
g3
I1
sg4
VUNAM
p29
sg6
I917
sg7
I920
sa(dp30
g3
I1
sg4
VUNAM
p31
sg6
I1256
sg7
I1259
sa(dp32
g3
I0
sg4
VOrdorika
p33
sg6
I1276
sg7
I1283
sa(dp34
g3
I0
sg4
VSolve
p35
sg6
I1399
sg7
I1403
sa(dp36
g3
I0
sg4
VGet
p37
sg6
I1408
sg7
I1410
sa(dp38
g3
I1
sg4
VUNAM
p39
sg6
I1738
sg7
I1741
sa(dp40
g3
I0
sg4
VSASKATOON
p41
sg6
I1949
sg7
I1957
sa(dp42
g3
I0
sg4
VSaskatchewan
p43
sg6
I1959
sg7
I1970
sa(dp44
g3
I0
sg4
VSaskatchewan
p45
sg6
I2020
sg7
I2031
sa(dp46
g3
I0
sg4
VAmerican
p47
sg6
I2365
sg7
I2372
sa(dp48
g3
I0
sg4
VBritish
p49
sg6
I2378
sg7
I2384
sa(dp50
g3
I0
sg4
VWestern
p51
sg6
I2439
sg7
I2445
sa(dp52
g3
I0
sg4
VCanadian
p53
sg6
I2475
sg7
I2482
sa(dp54
g3
I0
sg4
VIndigenous
p55
sg6
I2561
sg7
I2570
sa(dp56
g3
I0
sg4
VCanada
p57
sg6
I2730
sg7
I2735
sa(dp58
g3
I0
sg4
VWestern
p59
sg6
I2925
sg7
I2931
sa(dp60
g3
I0
sg4
VCanadian
p61
sg6
I3101
sg7
I3108
sasI2
(lp62
(dp63
g3
I0
sg4
VGabriel Ramos
p64
sg6
I72
sg7
I84
sa(dp65
g3
I0
sg4
VRamos Garc
p66
sg6
I80
sg7
I89
sa(dp67
g3
I0
sg4
VNallely P
p68
sg6
I270
sg7
I278
sa(dp69
g3
I0
sg4
VLatin America.
p70
sg6
I902
sg7
I915
sa(dp71
g3
I0
sg4
VSASKATOON Saskatchewan
p72
sg6
I1949
sg7
I1970
sasI3
(lp73
(dp74
g3
I0
sg4
VGabriel Ramos Garc
p75
sg6
I72
sg7
I89
sa(dp76
g3
I0
sg4
VSchool of Philosophy
p77
sg6
I130
sg7
I149
sa(dp78
g3
I0
sg4
VPhilosophy and Literature.
p79
sg6
I140
sg7
I165
sa(dp80
g3
I0
sg4
VSchool of Philosophy
p81
sg6
I338
sg7
I357
sa(dp82
g3
I0
sg4
VPhilosophy and Literature
p83
sg6
I348
sg7
I372
sa(dp84
g3
I1
sg4
VUniversity of Saskatchewan
p85
sg6
I2006
sg7
I2031
sa(dp86
g3
I0
sg4
VAmerican and British
p87
sg6
I2365
sg7
I2384
sasI4
(lp88
sI5
(lp89
(dp90
g3
I1
sg4
VSchool of Philosophy and Literature.
p91
sg6
I130
sg7
I165
sa(dp92
g3
I1
sg4
VSchool of Philosophy and Literature
p93
sg6
I338
sg7
I372
sasI6
(lp94
s.