(dp0
I1
(lp1
(dp2
S'label'
p3
I0
sS'string'
p4
VEllis
p5
sS'start_index'
p6
I4
sS'end_index'
p7
I8
sa(dp8
g3
I0
sg4
VGreek
p9
sg6
I40
sg7
I44
sa(dp10
g3
I0
sg4
VTexas
p11
sg6
I60
sg7
I64
sa(dp12
g3
I0
sg4
VState
p13
sg6
I66
sg7
I70
sa(dp14
g3
I0
sg4
VFlorida
p15
sg6
I120
sg7
I126
sa(dp16
g3
I0
sg4
VState
p17
sg6
I128
sg7
I132
sa(dp18
g3
I0
sg4
VUniversity.
p19
sg6
I134
sg7
I144
sa(dp20
g3
I0
sg4
VAndrew
p21
sg6
I146
sg7
I151
sa(dp22
g3
I0
sg4
VCoffey
p23
sg6
I153
sg7
I158
sa(dp24
g3
I0
sg4
VKappa
p25
sg6
I196
sg7
I200
sa(dp26
g3
I0
sg4
VPhi
p27
sg6
I202
sg7
I204
sa(dp28
g3
I0
sg4
VFlorida
p29
sg6
I216
sg7
I222
sa(dp30
g3
I0
sg4
VState
p31
sg6
I224
sg7
I228
sa(dp32
g3
I0
sg4
VTallahassee
p33
sg6
I270
sg7
I280
sa(dp34
g3
I0
sg4
VFla.
p35
sg6
I282
sg7
I285
sa(dp36
g3
I0
sg4
VNov.
p37
sg6
I290
sg7
I293
sa(dp38
g3
I0
sg4
VLouisiana
p39
sg6
I439
sg7
I447
sa(dp40
g3
I0
sg4
VState
p41
sg6
I449
sg7
I453
sa(dp42
g3
I0
sg4
VMaxwell
p43
sg6
I575
sg7
I581
sa(dp44
g3
I0
sg4
VGruver
p45
sg6
I583
sg7
I588
sa(dp46
g3
I0
sg4
VPhi
p47
sg6
I663
sg7
I665
sa(dp48
g3
I0
sg4
VDelta
p49
sg6
I667
sg7
I671
sa(dp50
g3
I0
sg4
VTheta
p51
sg6
I673
sg7
I677
sa(dp52
g3
I0
sg4
VGruver
p53
sg6
I695
sg7
I700
sa(dp54
g3
I0
sg4
VEllis
p55
sg6
I854
sg7
I858
sa(dp56
g3
I0
sg4
VTexas
p57
sg6
I868
sg7
I872
sa(dp58
g3
I0
sg4
VPennsylvania
p59
sg6
I897
sg7
I908
sa(dp60
g3
I0
sg4
VTimothy
p61
sg6
I951
sg7
I957
sa(dp62
g3
I0
sg4
VPiazza
p63
sg6
I959
sg7
I964
sa(dp64
g3
I0
sg4
VBeta
p65
sg6
I968
sg7
I971
sa(dp66
g3
I0
sg4
VTheta
p67
sg6
I973
sg7
I977
sa(dp68
g3
I0
sg4
VPenn
p69
sg6
I992
sg7
I995
sa(dp70
g3
I0
sg4
VState.
p71
sg6
I997
sg7
I1002
sa(dp72
g3
I0
sg4
VEighteen
p73
sg6
I1004
sg7
I1011
sa(dp74
g3
I0
sg4
VPiazza
p75
sg6
I1057
sg7
I1062
sa(dp76
g3
I0
sg4
VFebruary.
p77
sg6
I1075
sg7
I1083
sa(dp78
g3
I0
sg4
VInvestigators
p79
sg6
I1085
sg7
I1097
sa(dp80
g3
I0
sg4
VAccording
p81
sg6
I1318
sg7
I1326
sa(dp82
g3
I0
sg4
VNational
p83
sg6
I1335
sg7
I1342
sa(dp84
g3
I0
sg4
VAlcohol
p85
sg6
I1357
sg7
I1363
sa(dp86
g3
I0
sg4
VAbuse
p87
sg6
I1365
sg7
I1369
sa(dp88
g3
I0
sg4
VAlcoholism
p89
sg6
I1375
sg7
I1384
sasI2
(lp90
(dp91
g3
I0
sg4
VTexas State
p92
sg6
I60
sg7
I70
sa(dp93
g3
I0
sg4
VFlorida State
p94
sg6
I120
sg7
I132
sa(dp95
g3
I0
sg4
VState University.
p96
sg6
I128
sg7
I144
sa(dp97
g3
I0
sg4
VAndrew Coffey
p98
sg6
I146
sg7
I158
sa(dp99
g3
I0
sg4
VPi Kappa
p100
sg6
I193
sg7
I200
sa(dp101
g3
I0
sg4
VKappa Phi
p102
sg6
I196
sg7
I204
sa(dp103
g3
I1
sg4
VFlorida State
p104
sg6
I216
sg7
I228
sa(dp105
g3
I0
sg4
VTallahassee Fla.
p106
sg6
I270
sg7
I285
sa(dp107
g3
I0
sg4
VLouisiana State
p108
sg6
I439
sg7
I453
sa(dp109
g3
I0
sg4
VState University
p110
sg6
I449
sg7
I464
sa(dp111
g3
I0
sg4
VMaxwell Gruver
p112
sg6
I575
sg7
I588
sa(dp113
g3
I0
sg4
VPhi Delta
p114
sg6
I663
sg7
I671
sa(dp115
g3
I0
sg4
VDelta Theta
p116
sg6
I667
sg7
I677
sa(dp117
g3
I0
sg4
VTimothy Piazza
p118
sg6
I951
sg7
I964
sa(dp119
g3
I0
sg4
VBeta Theta
p120
sg6
I968
sg7
I977
sa(dp121
g3
I0
sg4
VTheta Pi
p122
sg6
I973
sg7
I980
sa(dp123
g3
I1
sg4
VPenn State.
p124
sg6
I992
sg7
I1002
sa(dp125
g3
I0
sg4
VNational Institute
p126
sg6
I1335
sg7
I1352
sa(dp127
g3
I0
sg4
VAlcohol Abuse
p128
sg6
I1357
sg7
I1369
sasI3
(lp129
(dp130
g3
I1
sg4
VFlorida State University.
p131
sg6
I120
sg7
I144
sa(dp132
g3
I0
sg4
VPi Kappa Phi
p133
sg6
I193
sg7
I204
sa(dp134
g3
I1
sg4
VLouisiana State University
p135
sg6
I439
sg7
I464
sa(dp136
g3
I0
sg4
VPhi Delta Theta
p137
sg6
I663
sg7
I677
sa(dp138
g3
I0
sg4
VBeta Theta Pi
p139
sg6
I968
sg7
I980
sa(dp140
g3
I0
sg4
VAbuse and Alcoholism
p141
sg6
I1365
sg7
I1384
sasI4
(lp142
(dp143
g3
I0
sg4
VAlcohol Abuse and Alcoholism
p144
sg6
I1357
sg7
I1384
sasI5
(lp145
sI6
(lp146
s.