(dp0
I1
(lp1
(dp2
S'label'
p3
I0
sS'string'
p4
VSaskatchewan
p5
sS'start_index'
p6
I18
sS'end_index'
p7
I29
sa(dp8
g3
I0
sg4
VReconciliation
p9
sg6
I73
sg7
I86
sa(dp10
g3
I0
sg4
VAboriginal
p11
sg6
I357
sg7
I366
sa(dp12
g3
I0
sg4
VPriscilla
p13
sg6
I547
sg7
I555
sa(dp14
g3
I0
sg4
VSettee
p15
sg6
I557
sg7
I562
sa(dp16
g3
I0
sg4
VSaskatchewan.
p17
sg6
I630
sg7
I642
sa(dp18
g3
I0
sg4
VWestern
p19
sg6
I735
sg7
I741
sa(dp20
g3
I0
sg4
VPeter
p21
sg6
I807
sg7
I811
sa(dp22
g3
I0
sg4
VStoicheff
p23
sg6
I813
sg7
I821
sa(dp24
g3
I0
sg4
VWestern
p25
sg6
I918
sg7
I924
sa(dp26
g3
I0
sg4
VStoicheff
p27
sg6
I1010
sg7
I1018
sa(dp28
g3
I0
sg4
VLook
p29
sg6
I1138
sg7
I1141
sa(dp30
g3
I0
sg4
VSupporters
p31
sg6
I1290
sg7
I1299
sa(dp32
g3
I0
sg4
VWestern
p33
sg6
I1811
sg7
I1817
sasI2
(lp34
(dp35
g3
I0
sg4
VReconciliation U
p36
sg6
I73
sg7
I88
sa(dp37
g3
I0
sg4
VPriscilla Settee
p38
sg6
I547
sg7
I562
sa(dp39
g3
I0
sg4
VPeter Stoicheff
p40
sg6
I807
sg7
I821
sasI3
(lp41
(dp42
g3
I1
sg4
VUniversity of Saskatchewan
p43
sg6
I4
sg7
I29
sa(dp44
g3
I1
sg4
VUniversity of Saskatchewan.
p45
sg6
I616
sg7
I642
sasI4
(lp46
sI5
(lp47
sI6
(lp48
s.