(dp0
I1
(lp1
(dp2
S'label'
p3
I0
sS'string'
p4
VBlaine
p5
sS'start_index'
p6
I59
sS'end_index'
p7
I64
sa(dp8
g3
I0
sg4
VFavel
p9
sg6
I66
sg7
I70
sa(dp10
g3
I0
sg4
VSaskatchewan
p11
sg6
I98
sg7
I109
sa(dp12
g3
I0
sg4
VNations
p13
sg6
I122
sg7
I128
sa(dp14
g3
I0
sg4
VSaskatchewan
p15
sg6
I187
sg7
I198
sa(dp16
g3
I0
sg4
VSaskatchewan
p17
sg6
I369
sg7
I380
sa(dp18
g3
I0
sg4
VStoicheff
p19
sg6
I467
sg7
I475
sa(dp20
g3
I0
sg4
VToronto
p21
sg6
I549
sg7
I555
sa(dp22
g3
I0
sg4
VEnglish
p23
sg6
I563
sg7
I569
sa(dp24
g3
I0
sg4
VEzra
p25
sg6
I610
sg7
I613
sa(dp26
g3
I0
sg4
VPound
p27
sg6
I615
sg7
I619
sa(dp28
g3
I0
sg4
VSaskatchewan
p29
sg6
I737
sg7
I748
sa(dp30
g3
I0
sg4
VCanadian
p31
sg6
I843
sg7
I850
sa(dp32
g3
I0
sg4
VNorth
p33
sg6
I871
sg7
I875
sa(dp34
g3
I0
sg4
VWest
p35
sg6
I877
sg7
I880
sa(dp36
g3
I0
sg4
VRebellion
p37
sg6
I882
sg7
I890
sa(dp38
g3
I0
sg4
VJust
p39
sg6
I901
sg7
I904
sa(dp40
g3
I0
sg4
VStoicheff
p41
sg6
I956
sg7
I964
sa(dp42
g3
I0
sg4
VFavel
p43
sg6
I994
sg7
I998
sa(dp44
g3
I0
sg4
VTruth
p45
sg6
I1151
sg7
I1155
sa(dp46
g3
I0
sg4
VReconciliation
p47
sg6
I1161
sg7
I1174
sa(dp48
g3
I0
sg4
VCommission
p49
sg6
I1176
sg7
I1185
sa(dp50
g3
I0
sg4
VStoicheff
p51
sg6
I1213
sg7
I1221
sa(dp52
g3
I0
sg4
VStoicheff
p53
sg6
I1439
sg7
I1447
sa(dp54
g3
I0
sg4
VLast
p55
sg6
I1560
sg7
I1563
sa(dp56
g3
I0
sg4
VLearning
p57
sg6
I1747
sg7
I1754
sa(dp58
g3
I0
sg4
VCharter
p59
sg6
I1756
sg7
I1762
sa(dp60
g3
I0
sg4
VPatricia
p61
sg6
I1858
sg7
I1865
sa(dp62
g3
I0
sg4
VMcDougall
p63
sg6
I1867
sg7
I1875
sa(dp64
g3
I0
sg4
VDancers
p65
sg6
I1916
sg7
I1922
sa(dp66
g3
I0
sg4
VSaskatchewan
p67
sg6
I2015
sg7
I2026
sasI2
(lp68
(dp69
g3
I0
sg4
VBlaine Favel
p70
sg6
I59
sg7
I70
sa(dp71
g3
I0
sg4
VEzra Pound
p72
sg6
I610
sg7
I619
sa(dp73
g3
I0
sg4
VNorth West
p74
sg6
I871
sg7
I880
sa(dp75
g3
I0
sg4
VWest Rebellion
p76
sg6
I877
sg7
I890
sa(dp77
g3
I0
sg4
VReconciliation Commission
p78
sg6
I1161
sg7
I1185
sa(dp79
g3
I0
sg4
VLearning Charter
p80
sg6
I1747
sg7
I1762
sa(dp81
g3
I0
sg4
VPatricia McDougall
p82
sg6
I1858
sg7
I1875
sasI3
(lp83
(dp84
g3
I1
sg4
VUniversity of Saskatchewan
p85
sg6
I173
sg7
I198
sa(dp86
g3
I1
sg4
VUniversity of Saskatchewan
p87
sg6
I355
sg7
I380
sa(dp88
g3
I0
sg4
VNorth West Rebellion
p89
sg6
I871
sg7
I890
sa(dp90
g3
I0
sg4
VTruth and Reconciliation
p91
sg6
I1151
sg7
I1174
sa(dp92
g3
I1
sg4
VUniversity of Saskatchewan
p93
sg6
I2001
sg7
I2026
sasI4
(lp94
(dp95
g3
I0
sg4
VTruth and Reconciliation Commission
p96
sg6
I1151
sg7
I1185
sasI5
(lp97
sI6
(lp98
s.