(dp0
I1
(lp1
(dp2
S'label'
p3
I0
sS'string'
p4
VRon
p5
sS'start_index'
p6
I37
sS'end_index'
p7
I39
sa(dp8
g3
I0
sg4
VBruce
p9
sg6
I80
sg7
I84
sa(dp10
g3
I0
sg4
VBruce
p11
sg6
I143
sg7
I147
sa(dp12
g3
I0
sg4
VAccording
p13
sg6
I194
sg7
I202
sa(dp14
g3
I0
sg4
VBrandeis
p15
sg6
I236
sg7
I243
sa(dp16
g3
I0
sg4
VBrandeis
p17
sg6
I267
sg7
I274
sa(dp18
g3
I0
sg4
VHoot
p19
sg6
I276
sg7
I279
sa(dp20
g3
I0
sg4
VRon
p21
sg6
I281
sg7
I283
sa(dp22
g3
I0
sg4
VBruce
p23
sg6
I338
sg7
I342
sa(dp24
g3
I1
sg4
VBrandeis
p25
sg6
I350
sg7
I357
sa(dp26
g3
I0
sg4
VRon
p27
sg6
I495
sg7
I497
sa(dp28
g3
I0
sg4
VLenny
p29
sg6
I507
sg7
I511
sa(dp30
g3
I0
sg4
VBruce
p31
sg6
I513
sg7
I517
sa(dp32
g3
I0
sg4
VHoot.
p33
sg6
I668
sg7
I672
sa(dp34
g3
I0
sg4
VWeller
p35
sg6
I718
sg7
I723
sa(dp36
g3
I1
sg4
VBrandeis.
p37
sg6
I767
sg7
I775
sa(dp38
g3
I1
sg4
VBrandeis
p39
sg6
I1065
sg7
I1072
sa(dp40
g3
I0
sg4
VAyaan
p41
sg6
I1173
sg7
I1177
sa(dp42
g3
I0
sg4
VHirsi
p43
sg6
I1179
sg7
I1183
sa(dp44
g3
I0
sg4
VAli
p45
sg6
I1185
sg7
I1187
sa(dp46
g3
I0
sg4
VIslam.
p47
sg6
I1251
sg7
I1256
sasI2
(lp48
(dp49
g3
I1
sg4
VBrandeis College
p50
sg6
I236
sg7
I251
sa(dp51
g3
I0
sg4
VBrandeis Hoot
p52
sg6
I267
sg7
I279
sa(dp53
g3
I0
sg4
VHoot Ron
p54
sg6
I276
sg7
I283
sa(dp55
g3
I0
sg4
VLenny Bruce
p56
sg6
I507
sg7
I517
sa(dp57
g3
I0
sg4
VAyaan Hirsi
p58
sg6
I1173
sg7
I1183
sa(dp59
g3
I0
sg4
VHirsi Ali
p60
sg6
I1179
sg7
I1187
sasI3
(lp61
(dp62
g3
I0
sg4
VBrandeis Hoot Ron
p63
sg6
I267
sg7
I283
sa(dp64
g3
I0
sg4
VAyaan Hirsi Ali
p65
sg6
I1173
sg7
I1187
sasI4
(lp66
sI5
(lp67
sI6
(lp68
s.