(dp0
I1
(lp1
(dp2
S'label'
p3
I0
sS'string'
p4
VMASSACHUSETTS
p5
sS'start_index'
p6
I10
sS'end_index'
p7
I22
sa(dp8
g3
I0
sg4
VTURNPIKE
p9
sg6
I24
sg7
I31
sa(dp10
g3
I0
sg4
VMake
p11
sg6
I416
sg7
I419
sa(dp12
g3
I0
sg4
VJohn
p13
sg6
I486
sg7
I489
sa(dp14
g3
I0
sg4
VDolan
p15
sg6
I491
sg7
I495
sa(dp16
g3
I0
sg4
VSimmons
p17
sg6
I523
sg7
I529
sa(dp18
g3
I0
sg4
VBoston.
p19
sg6
I542
sg7
I548
sa(dp20
g3
I0
sg4
VEvery
p21
sg6
I550
sg7
I554
sa(dp22
g3
I0
sg4
VWellesley
p23
sg6
I925
sg7
I933
sasI2
(lp24
(dp25
g3
I0
sg4
VMASSACHUSETTS TURNPIKE
p26
sg6
I10
sg7
I31
sa(dp27
g3
I0
sg4
VJohn Dolan
p28
sg6
I486
sg7
I495
sa(dp29
g3
I1
sg4
VSimmons College
p30
sg6
I523
sg7
I537
sa(dp31
g3
I1
sg4
VWellesley College
p32
sg6
I925
sg7
I941
sasI3
(lp33
sI4
(lp34
sI5
(lp35
sI6
(lp36
s.