(dp0
I1
(lp1
(dp2
S'label'
p3
I0
sS'string'
p4
VWilliston
p5
sS'start_index'
p6
I0
sS'end_index'
p7
I8
sa(dp8
g3
I0
sg4
VLibrary
p9
sg6
I10
sg7
I16
sa(dp10
g3
I0
sg4
VMount
p11
sg6
I21
sg7
I25
sa(dp12
g3
I0
sg4
VHolyoke
p13
sg6
I27
sg7
I33
sa(dp14
g3
I0
sg4
VCollege.
p15
sg6
I35
sg7
I42
sa(dp16
g3
I0
sg4
VMount
p17
sg6
I68
sg7
I72
sa(dp18
g3
I0
sg4
VHolyoke
p19
sg6
I74
sg7
I80
sa(dp20
g3
I0
sg4
VSmith
p21
sg6
I220
sg7
I224
sa(dp22
g3
I0
sg4
VPresidential
p23
sg6
I296
sg7
I307
sa(dp24
g3
I0
sg4
VScholarships.
p25
sg6
I309
sg7
I321
sa(dp26
g3
I0
sg4
VAudrey
p27
sg6
I360
sg7
I365
sa(dp28
g3
I0
sg4
VSmith
p29
sg6
I367
sg7
I371
sasI2
(lp30
(dp31
g3
I0
sg4
VWilliston Library
p32
sg6
I0
sg7
I16
sa(dp33
g3
I0
sg4
VMount Holyoke
p34
sg6
I21
sg7
I33
sa(dp35
g3
I0
sg4
VHolyoke College.
p36
sg6
I27
sg7
I42
sa(dp37
g3
I0
sg4
VMount Holyoke
p38
sg6
I68
sg7
I80
sa(dp39
g3
I1
sg4
VSmith College
p40
sg6
I220
sg7
I232
sa(dp41
g3
I0
sg4
VPresidential Scholarships.
p42
sg6
I296
sg7
I321
sa(dp43
g3
I0
sg4
VAudrey Smith
p44
sg6
I360
sg7
I371
sasI3
(lp45
(dp46
g3
I1
sg4
VMount Holyoke College.
p47
sg6
I21
sg7
I42
sasI4
(lp48
sI5
(lp49
sI6
(lp50
s.