(dp0
I1
(lp1
(dp2
S'label'
p3
I0
sS'string'
p4
VSimmons
p5
sS'start_index'
p6
I0
sS'end_index'
p7
I6
sa(dp8
g3
I0
sg4
VMount
p9
sg6
I99
sg7
I103
sa(dp10
g3
I0
sg4
VHolyoke
p11
sg6
I105
sg7
I111
sa(dp12
g3
I0
sg4
VSmith
p13
sg6
I253
sg7
I257
sa(dp14
g3
I0
sg4
VSAT
p15
sg6
I390
sg7
I392
sa(dp16
g3
I0
sg4
VStacey
p17
sg6
I591
sg7
I596
sa(dp18
g3
I0
sg4
VSchmeidel
p19
sg6
I598
sg7
I606
sa(dp20
g3
I0
sg4
VJust
p21
sg6
I631
sg7
I634
sa(dp22
g3
I0
sg4
VPioneer
p23
sg6
I647
sg7
I653
sa(dp24
g3
I0
sg4
VValley
p25
sg6
I655
sg7
I660
sa(dp26
g3
I0
sg4
VMount
p27
sg6
I662
sg7
I666
sa(dp28
g3
I0
sg4
VHolyoke
p29
sg6
I668
sg7
I674
sa(dp30
g3
I0
sg4
VGail
p31
sg6
I899
sg7
I902
sa(dp32
g3
I0
sg4
VBerson
p33
sg6
I904
sg7
I909
sa(dp34
g3
I0
sg4
VMassachusetts.
p35
sg6
I1344
sg7
I1357
sa(dp36
g3
I0
sg4
VDolan
p37
sg6
I1387
sg7
I1391
sa(dp38
g3
I0
sg4
VSimmons
p39
sg6
I1396
sg7
I1402
sa(dp40
g3
I0
sg4
VHuman
p41
sg6
I1507
sg7
I1511
sa(dp42
g3
I0
sg4
VCapital
p43
sg6
I1513
sg7
I1519
sa(dp44
g3
I0
sg4
VResearch
p45
sg6
I1521
sg7
I1528
sa(dp46
g3
I0
sg4
VCorporation
p47
sg6
I1530
sg7
I1540
sa(dp48
g3
I0
sg4
VSimmons
p49
sg6
I1731
sg7
I1737
sa(dp50
g3
I0
sg4
VBoston
p51
sg6
I1770
sg7
I1775
sasI2
(lp52
(dp53
g3
I1
sg4
VSimmons College
p54
sg6
I0
sg7
I14
sa(dp55
g3
I0
sg4
VMount Holyoke
p56
sg6
I99
sg7
I111
sa(dp57
g3
I0
sg4
VStacey Schmeidel
p58
sg6
I591
sg7
I606
sa(dp59
g3
I0
sg4
VPioneer Valley
p60
sg6
I647
sg7
I660
sa(dp61
g3
I0
sg4
VValley Mount
p62
sg6
I655
sg7
I666
sa(dp63
g3
I1
sg4
VMount Holyoke
p64
sg6
I662
sg7
I674
sa(dp65
g3
I0
sg4
VGail Berson
p66
sg6
I899
sg7
I909
sa(dp67
g3
I0
sg4
VHuman Capital
p68
sg6
I1507
sg7
I1519
sa(dp69
g3
I0
sg4
VCapital Research
p70
sg6
I1513
sg7
I1528
sa(dp71
g3
I0
sg4
VResearch Corporation
p72
sg6
I1521
sg7
I1540
sasI3
(lp73
(dp74
g3
I0
sg4
VPioneer Valley Mount
p75
sg6
I647
sg7
I666
sa(dp76
g3
I0
sg4
VValley Mount Holyoke
p77
sg6
I655
sg7
I674
sa(dp78
g3
I1
sg4
VUniversity of Massachusetts.
p79
sg6
I1330
sg7
I1357
sa(dp80
g3
I0
sg4
VHuman Capital Research
p81
sg6
I1507
sg7
I1528
sa(dp82
g3
I0
sg4
VCapital Research Corporation
p83
sg6
I1513
sg7
I1540
sasI4
(lp84
(dp85
g3
I0
sg4
VPioneer Valley Mount Holyoke
p86
sg6
I647
sg7
I674
sa(dp87
g3
I0
sg4
VHuman Capital Research Corporation
p88
sg6
I1507
sg7
I1540
sasI5
(lp89
sI6
(lp90
s.