(dp0
I1
(lp1
(dp2
S'label'
p3
I0
sS'string'
p4
VOLYMPIA
p5
sS'start_index'
p6
I0
sS'end_index'
p7
I6
sa(dp8
g3
I0
sg4
VWash.
p9
sg6
I8
sg7
I12
sa(dp10
g3
I0
sg4
VEvergreen
p11
sg6
I347
sg7
I355
sa(dp12
g3
I0
sg4
VState
p13
sg6
I357
sg7
I361
sa(dp14
g3
I1
sg4
VEvergreen
p15
sg6
I513
sg7
I521
sa(dp16
g3
I0
sg4
VOlympia
p17
sg6
I549
sg7
I555
sa(dp18
g3
I0
sg4
VPuget
p19
sg6
I567
sg7
I571
sa(dp20
g3
I0
sg4
VSound
p21
sg6
I573
sg7
I577
sa(dp22
g3
I0
sg4
VGeorge
p23
sg6
I876
sg7
I881
sa(dp24
g3
I0
sg4
VBridges
p25
sg6
I883
sg7
I889
sa(dp26
g3
I0
sg4
VRed
p27
sg6
I1329
sg7
I1331
sa(dp28
g3
I0
sg4
VSquare
p29
sg6
I1333
sg7
I1338
sa(dp30
g3
I0
sg4
VRed
p31
sg6
I1422
sg7
I1424
sa(dp32
g3
I0
sg4
VSquare
p33
sg6
I1426
sg7
I1431
sa(dp34
g3
I0
sg4
VAnne
p35
sg6
I1556
sg7
I1559
sa(dp36
g3
I0
sg4
VFischel
p37
sg6
I1561
sg7
I1567
sa(dp38
g3
I1
sg4
VEvergreen
p39
sg6
I1597
sg7
I1605
sa(dp40
g3
I0
sg4
VFriday.
p41
sg6
I1652
sg7
I1658
sasI2
(lp42
(dp43
g3
I0
sg4
VOLYMPIA Wash.
p44
sg6
I0
sg7
I12
sa(dp45
g3
I0
sg4
VEvergreen State
p46
sg6
I347
sg7
I361
sa(dp47
g3
I0
sg4
VState College
p48
sg6
I357
sg7
I369
sa(dp49
g3
I0
sg4
VPuget Sound
p50
sg6
I567
sg7
I577
sa(dp51
g3
I0
sg4
VGeorge Bridges
p52
sg6
I876
sg7
I889
sa(dp53
g3
I0
sg4
VRed Square
p54
sg6
I1329
sg7
I1338
sa(dp55
g3
I0
sg4
VRed Square
p56
sg6
I1422
sg7
I1431
sa(dp57
g3
I0
sg4
VAnne Fischel
p58
sg6
I1556
sg7
I1567
sasI3
(lp59
(dp60
g3
I1
sg4
VEvergreen State College
p61
sg6
I347
sg7
I369
sasI4
(lp62
sI5
(lp63
sI6
(lp64
s.