(dp0
I1
(lp1
(dp2
S'label'
p3
I0
sS'string'
p4
VMiddlebury
p5
sS'start_index'
p6
I58
sS'end_index'
p7
I67
sa(dp8
g3
I0
sg4
VAuburn
p9
sg6
I72
sg7
I77
sa(dp10
g3
I0
sg4
VCalifornia
p11
sg6
I100
sg7
I109
sa(dp12
g3
I0
sg4
VBerkeley
p13
sg6
I111
sg7
I118
sa(dp14
g3
I1
sg4
VEvergreen
p15
sg6
I212
sg7
I220
sa(dp16
g3
I0
sg4
VMatt
p17
sg6
I370
sg7
I373
sa(dp18
g3
I0
sg4
VGroening
p19
sg6
I375
sg7
I382
sa(dp20
g3
I0
sg4
VSimpsons
p21
sg6
I403
sg7
I410
sa(dp22
g3
I0
sg4
VMacklemore
p23
sg6
I416
sg7
I425
sa(dp24
g3
I1
sg4
VEvergreen
p25
sg6
I459
sg7
I467
sa(dp26
g3
I0
sg4
VRuth
p27
sg6
I758
sg7
I761
sa(dp28
g3
I0
sg4
VHayes
p29
sg6
I763
sg7
I767
sa(dp30
g3
I0
sg4
VReferring
p31
sg6
I795
sg7
I803
sa(dp32
g3
I0
sg4
VWeinstein
p33
sg6
I818
sg7
I826
sa(dp34
g3
I1
sg4
VEvergreen
p35
sg6
I965
sg7
I973
sa(dp36
g3
I0
sg4
VAnn
p37
sg6
I1057
sg7
I1059
sa(dp38
g3
I0
sg4
VCoulter
p39
sg6
I1061
sg7
I1067
sa(dp40
g3
I0
sg4
VMilo
p41
sg6
I1072
sg7
I1075
sa(dp42
g3
I0
sg4
VYiannopoulos
p43
sg6
I1077
sg7
I1088
sa(dp44
g3
I0
sg4
VBernie
p45
sg6
I1096
sg7
I1101
sa(dp46
g3
I0
sg4
VSanders
p47
sg6
I1103
sg7
I1109
sa(dp48
g3
I0
sg4
VDay
p49
sg6
I1227
sg7
I1229
sa(dp50
g3
I0
sg4
VAbsence
p51
sg6
I1234
sg7
I1240
sa(dp52
g3
I0
sg4
VWeinstein
p53
sg6
I1645
sg7
I1653
sa(dp54
g3
I0
sg4
VTucker
p55
sg6
I2158
sg7
I2163
sa(dp56
g3
I0
sg4
VCarlson
p57
sg6
I2165
sg7
I2171
sa(dp58
g3
I0
sg4
VFox
p59
sg6
I2175
sg7
I2177
sa(dp60
g3
I0
sg4
VNews
p61
sg6
I2179
sg7
I2182
sasI2
(lp62
(dp63
g3
I0
sg4
VCalifornia Berkeley
p64
sg6
I100
sg7
I118
sa(dp65
g3
I0
sg4
VMatt Groening
p66
sg6
I370
sg7
I382
sa(dp67
g3
I0
sg4
VRuth Hayes
p68
sg6
I758
sg7
I767
sa(dp69
g3
I0
sg4
VAnn Coulter
p70
sg6
I1057
sg7
I1067
sa(dp71
g3
I0
sg4
VMilo Yiannopoulos
p72
sg6
I1072
sg7
I1088
sa(dp73
g3
I0
sg4
VBernie Sanders
p74
sg6
I1096
sg7
I1109
sa(dp75
g3
I0
sg4
VTucker Carlson
p76
sg6
I2158
sg7
I2171
sa(dp77
g3
I0
sg4
VFox News
p78
sg6
I2175
sg7
I2182
sasI3
(lp79
(dp80
g3
I0
sg4
VUniversity of California
p81
sg6
I86
sg7
I109
sa(dp82
g3
I0
sg4
VSimpsons and Macklemore
p83
sg6
I403
sg7
I425
sa(dp84
g3
I0
sg4
VDay of Absence
p85
sg6
I1227
sg7
I1240
sasI4
(lp86
(dp87
g3
I1
sg4
VUniversity of California Berkeley
p88
sg6
I86
sg7
I118
sasI5
(lp89
sI6
(lp90
s.