(dp0
I1
(lp1
(dp2
S'label'
p3
I0
sS'string'
p4
VNaima
p5
sS'start_index'
p6
I18
sS'end_index'
p7
I22
sa(dp8
g3
I0
sg4
VLowe
p9
sg6
I24
sg7
I27
sa(dp10
g3
I0
sg4
VRashida
p11
sg6
I71
sg7
I77
sa(dp12
g3
I0
sg4
VLove
p13
sg6
I79
sg7
I82
sa(dp14
g3
I1
sg4
VEvergreen
p15
sg6
I100
sg7
I108
sa(dp16
g3
I0
sg4
VPeoples
p17
sg6
I118
sg7
I124
sa(dp18
g3
I0
sg4
VMulticultural
p19
sg6
I126
sg7
I138
sa(dp20
g3
I0
sg4
VAdvising
p21
sg6
I140
sg7
I147
sa(dp22
g3
I0
sg4
VServices
p23
sg6
I149
sg7
I156
sa(dp24
g3
I0
sg4
VDay
p25
sg6
I206
sg7
I208
sa(dp26
g3
I0
sg4
VAbsence
p27
sg6
I213
sg7
I219
sa(dp28
g3
I0
sg4
VStrange
p29
sg6
I441
sg7
I447
sa(dp30
g3
I0
sg4
VPatriot
p31
sg6
I507
sg7
I513
sa(dp32
g3
I0
sg4
VPrayer
p33
sg6
I515
sg7
I520
sa(dp34
g3
I0
sg4
VAmerican
p35
sg6
I585
sg7
I592
sa(dp36
g3
I0
sg4
VPepe
p37
sg6
I616
sg7
I619
sa(dp38
g3
I0
sg4
VFrog
p39
sg6
I625
sg7
I628
sa(dp40
g3
I0
sg4
VTamara
p41
sg6
I717
sg7
I722
sa(dp42
g3
I0
sg4
VLindner
p43
sg6
I724
sg7
I730
sa(dp44
g3
I0
sg4
VWeinstein
p45
sg6
I767
sg7
I775
sa(dp46
g3
I1
sg4
VEvergreen
p47
sg6
I812
sg7
I820
sa(dp48
g3
I0
sg4
VColin
p49
sg6
I880
sg7
I884
sa(dp50
g3
I0
sg4
VTrobough
p51
sg6
I886
sg7
I893
sa(dp52
g3
I1
sg4
VEvergreen
p53
sg6
I929
sg7
I937
sa(dp54
g3
I1
sg4
VEvergreen
p55
sg6
I966
sg7
I974
sa(dp56
g3
I0
sg4
VPatriots
p57
sg6
I988
sg7
I995
sasI2
(lp58
(dp59
g3
I0
sg4
VNaima Lowe
p60
sg6
I18
sg7
I27
sa(dp61
g3
I0
sg4
VRashida Love
p62
sg6
I71
sg7
I82
sa(dp63
g3
I0
sg4
VPeoples Multicultural
p64
sg6
I118
sg7
I138
sa(dp65
g3
I0
sg4
VMulticultural Advising
p66
sg6
I126
sg7
I147
sa(dp67
g3
I0
sg4
VAdvising Services
p68
sg6
I140
sg7
I156
sa(dp69
g3
I0
sg4
VPatriot Prayer
p70
sg6
I507
sg7
I520
sa(dp71
g3
I0
sg4
VTamara Lindner
p72
sg6
I717
sg7
I730
sa(dp73
g3
I0
sg4
VColin Trobough
p74
sg6
I880
sg7
I893
sasI3
(lp75
(dp76
g3
I0
sg4
VPeoples Multicultural Advising
p77
sg6
I118
sg7
I147
sa(dp78
g3
I0
sg4
VMulticultural Advising Services
p79
sg6
I126
sg7
I156
sa(dp80
g3
I0
sg4
VDay of Absence
p81
sg6
I206
sg7
I219
sasI4
(lp82
(dp83
g3
I0
sg4
VPeoples Multicultural Advising Services
p84
sg6
I118
sg7
I156
sasI5
(lp85
sI6
(lp86
s.