(dp0
I1
(lp1
(dp2
S'label'
p3
I0
sS'string'
p4
VPatriots
p5
sS'start_index'
p6
I255
sS'end_index'
p7
I262
sa(dp8
g3
I0
sg4
VJoey
p9
sg6
I271
sg7
I274
sa(dp10
g3
I0
sg4
VGibson
p11
sg6
I276
sg7
I281
sa(dp12
g3
I0
sg4
VSilly
p13
sg6
I343
sg7
I347
sa(dp14
g3
I0
sg4
VString
p15
sg6
I349
sg7
I354
sa(dp16
g3
I0
sg4
VTacoma
p17
sg6
I563
sg7
I568
sa(dp18
g3
I0
sg4
VFriday.
p19
sg6
I594
sg7
I600
sa(dp20
g3
I0
sg4
VBridges
p21
sg6
I644
sg7
I650
sa(dp22
g3
I0
sg4
VEllis
p23
sg6
I736
sg7
I740
sa(dp24
g3
I0
sg4
VPaguirigan
p25
sg6
I742
sg7
I751
sa(dp26
g3
I1
sg4
VEvergreen
p27
sg6
I760
sg7
I768
sa(dp28
g3
I0
sg4
VMelia
p29
sg6
I794
sg7
I798
sa(dp30
g3
I0
sg4
VWeinstein
p31
sg6
I903
sg7
I911
sa(dp32
g3
I0
sg4
VMelia
p33
sg6
I923
sg7
I927
sa(dp34
g3
I0
sg4
VWeinstein
p35
sg6
I943
sg7
I951
sa(dp36
g3
I0
sg4
VPaguirigan
p37
sg6
I998
sg7
I1007
sa(dp38
g3
I0
sg4
VOlympia
p39
sg6
I1092
sg7
I1098
sa(dp40
g3
I0
sg4
VWash.
p41
sg6
I1100
sg7
I1104
sa(dp42
g3
I0
sg4
VEvergreen
p43
sg6
I1106
sg7
I1114
sa(dp44
g3
I0
sg4
VState
p45
sg6
I1116
sg7
I1120
sa(dp46
g3
I0
sg4
VColleg
p47
sg6
I1122
sg7
I1127
sa(dp48
g3
I0
sg4
VOlympia
p49
sg6
I1206
sg7
I1212
sa(dp50
g3
I0
sg4
VWash.
p51
sg6
I1214
sg7
I1218
sa(dp52
g3
I0
sg4
VDrum
p53
sg6
I1320
sg7
I1323
sa(dp54
g3
I0
sg4
VBret
p55
sg6
I1691
sg7
I1694
sa(dp56
g3
I0
sg4
VWeinstein
p57
sg6
I1696
sg7
I1704
sa(dp58
g3
I0
sg4
VWeinstein
p59
sg6
I1787
sg7
I1795
sa(dp60
g3
I0
sg4
VWeinstein
p61
sg6
I1825
sg7
I1833
sa(dp62
g3
I0
sg4
VTucker
p63
sg6
I1847
sg7
I1852
sa(dp64
g3
I0
sg4
VCarlson
p65
sg6
I1854
sg7
I1860
sa(dp66
g3
I0
sg4
VFox
p67
sg6
I1864
sg7
I1866
sa(dp68
g3
I0
sg4
VNews
p69
sg6
I1868
sg7
I1871
sa(dp70
g3
I0
sg4
VCampus
p71
sg6
I1883
sg7
I1888
sa(dp72
g3
I0
sg4
VCraziness
p73
sg6
I1890
sg7
I1898
sa(dp74
g3
I0
sg4
VWall
p75
sg6
I1982
sg7
I1985
sa(dp76
g3
I0
sg4
VStreet
p77
sg6
I1987
sg7
I1992
sa(dp78
g3
I0
sg4
VJournal
p79
sg6
I1994
sg7
I2000
sa(dp80
g3
I0
sg4
VWeinstein
p81
sg6
I2006
sg7
I2014
sasI2
(lp82
(dp83
g3
I0
sg4
VJoey Gibson
p84
sg6
I271
sg7
I281
sa(dp85
g3
I0
sg4
VSilly String
p86
sg6
I343
sg7
I354
sa(dp87
g3
I0
sg4
VEllis Paguirigan
p88
sg6
I736
sg7
I751
sa(dp89
g3
I0
sg4
VOlympia Wash.
p90
sg6
I1092
sg7
I1104
sa(dp91
g3
I0
sg4
VEvergreen State
p92
sg6
I1106
sg7
I1120
sa(dp93
g3
I0
sg4
VState Colleg
p94
sg6
I1116
sg7
I1127
sa(dp95
g3
I0
sg4
VOlympia Wash.
p96
sg6
I1206
sg7
I1218
sa(dp97
g3
I0
sg4
VBret Weinstein
p98
sg6
I1691
sg7
I1704
sa(dp99
g3
I0
sg4
VTucker Carlson
p100
sg6
I1847
sg7
I1860
sa(dp101
g3
I0
sg4
VFox News
p102
sg6
I1864
sg7
I1871
sa(dp103
g3
I0
sg4
VCampus Craziness
p104
sg6
I1883
sg7
I1898
sa(dp105
g3
I0
sg4
VWall Street
p106
sg6
I1982
sg7
I1992
sa(dp107
g3
I0
sg4
VStreet Journal
p108
sg6
I1987
sg7
I2000
sasI3
(lp109
(dp110
g3
I1
sg4
VEvergreen State Colleg
p111
sg6
I1106
sg7
I1127
sa(dp112
g3
I0
sg4
VWall Street Journal
p113
sg6
I1982
sg7
I2000
sasI4
(lp114
sI5
(lp115
sI6
(lp116
s.