(dp0
I1
(lp1
(dp2
S'label'
p3
I0
sS'string'
p4
VBERKELEY
p5
sS'start_index'
p6
I0
sS'end_index'
p7
I7
sa(dp8
g3
I0
sg4
VCalif.
p9
sg6
I9
sg7
I14
sa(dp10
g3
I0
sg4
VBitcoin
p11
sg6
I35
sg7
I41
sa(dp12
g3
I0
sg4
VChristmas
p13
sg6
I61
sg7
I69
sa(dp14
g3
I0
sg4
VAmerica
p15
sg6
I163
sg7
I169
sa(dp16
g3
I0
sg4
VBitcoin
p17
sg6
I260
sg7
I266
sa(dp18
g3
I0
sg4
VGraduate
p19
sg6
I346
sg7
I353
sa(dp20
g3
I0
sg4
VCarnegie
p21
sg6
I386
sg7
I393
sa(dp22
g3
I0
sg4
VMellon
p23
sg6
I395
sg7
I400
sa(dp24
g3
I1
sg4
VCornell
p25
sg6
I402
sg7
I408
sa(dp26
g3
I1
sg4
VDuke
p27
sg6
I410
sg7
I413
sa(dp28
g3
I0
sg4
VMassachusetts
p29
sg6
I419
sg7
I431
sa(dp30
g3
I0
sg4
VTechnology
p31
sg6
I446
sg7
I455
sa(dp32
g3
I0
sg4
VMaryland
p33
sg6
I479
sg7
I486
sa(dp34
g3
I0
sg4
VBitcoin
p35
sg6
I741
sg7
I747
sa(dp36
g3
I0
sg4
VDavid
p37
sg6
I754
sg7
I758
sa(dp38
g3
I0
sg4
VYermack
p39
sg6
I760
sg7
I766
sa(dp40
g3
I0
sg4
VNew
p41
sg6
I800
sg7
I802
sa(dp42
g3
I0
sg4
VYork
p43
sg6
I804
sg7
I807
sa(dp44
g3
I0
sg4
VBasel
p45
sg6
I942
sg7
I946
sa(dp46
g3
I0
sg4
VYermack
p47
sg6
I1061
sg7
I1067
sa(dp48
g3
I1
sg4
VNYU
p49
sg6
I1191
sg7
I1193
sasI2
(lp50
(dp51
g3
I0
sg4
VBERKELEY Calif.
p52
sg6
I0
sg7
I14
sa(dp53
g3
I1
sg4
VCarnegie Mellon
p54
sg6
I386
sg7
I400
sa(dp55
g3
I0
sg4
VMellon Cornell
p56
sg6
I395
sg7
I408
sa(dp57
g3
I0
sg4
VCornell Duke
p58
sg6
I402
sg7
I413
sa(dp59
g3
I0
sg4
VMassachusetts Institute
p60
sg6
I419
sg7
I441
sa(dp61
g3
I0
sg4
VDavid Yermack
p62
sg6
I754
sg7
I766
sa(dp63
g3
I0
sg4
VNew York
p64
sg6
I800
sg7
I807
sa(dp65
g3
I0
sg4
VYork University
p66
sg6
I804
sg7
I818
sasI3
(lp67
(dp68
g3
I0
sg4
VCarnegie Mellon Cornell
p69
sg6
I386
sg7
I408
sa(dp70
g3
I0
sg4
VMellon Cornell Duke
p71
sg6
I395
sg7
I413
sa(dp72
g3
I0
sg4
VInstitute of Technology
p73
sg6
I433
sg7
I455
sa(dp74
g3
I1
sg4
VUniversity of Maryland
p75
sg6
I465
sg7
I486
sa(dp76
g3
I1
sg4
VNew York University
p77
sg6
I800
sg7
I818
sasI4
(lp78
(dp79
g3
I0
sg4
VCarnegie Mellon Cornell Duke
p80
sg6
I386
sg7
I413
sa(dp81
g3
I1
sg4
VMassachusetts Institute of Technology
p82
sg6
I419
sg7
I455
sasI5
(lp83
sI6
(lp84
s.