(dp0
I1
(lp1
(dp2
S'label'
p3
I0
sS'string'
p4
VDouglas
p5
sS'start_index'
p6
I32
sS'end_index'
p7
I38
sa(dp8
g3
I0
sg4
VTurner
p9
sg6
I40
sg7
I45
sa(dp10
g3
I0
sg4
VWard
p11
sg6
I47
sg7
I50
sa(dp12
g3
I1
sg4
VEvergreen
p13
sg6
I241
sg7
I249
sa(dp14
g3
I1
sg4
VEvergreen
p15
sg6
I552
sg7
I560
sa(dp16
g3
I1
sg4
VEvergreen
p17
sg6
I698
sg7
I706
sa(dp18
g3
I0
sg4
VWeinstein
p19
sg6
I815
sg7
I823
sa(dp20
g3
I0
sg4
VWeinstein
p21
sg6
I945
sg7
I953
sa(dp22
g3
I0
sg4
VWeinstein
p23
sg6
I1554
sg7
I1562
sa(dp24
g3
I1
sg4
VEvergreen
p25
sg6
I1663
sg7
I1671
sa(dp26
g3
I0
sg4
VWeinstein
p27
sg6
I1873
sg7
I1881
sa(dp28
g3
I0
sg4
VOnline
p29
sg6
I1974
sg7
I1979
sa(dp30
g3
I0
sg4
VReddit
p31
sg6
I2003
sg7
I2008
sa(dp32
g3
I1
sg4
VEvergreen
p33
sg6
I2046
sg7
I2054
sasI2
(lp34
(dp35
g3
I0
sg4
VDouglas Turner
p36
sg6
I32
sg7
I45
sa(dp37
g3
I0
sg4
VTurner Ward
p38
sg6
I40
sg7
I50
sasI3
(lp39
(dp40
g3
I0
sg4
VDouglas Turner Ward
p41
sg6
I32
sg7
I50
sasI4
(lp42
sI5
(lp43
sI6
(lp44
s.