(dp0
I1
(lp1
(dp2
S'label'
p3
I0
sS'string'
p4
VMedium
p5
sS'start_index'
p6
I30
sS'end_index'
p7
I35
sa(dp8
g3
I0
sg4
VEvergreen
p9
sg6
I595
sg7
I603
sa(dp10
g3
I0
sg4
VMagnum.
p11
sg6
I631
sg7
I637
sa(dp12
g3
I0
sg4
VDowntown
p13
sg6
I712
sg7
I719
sa(dp14
g3
I0
sg4
VOlympia
p15
sg6
I721
sg7
I727
sa(dp16
g3
I0
sg4
VNazi
p17
sg6
I774
sg7
I777
sa(dp18
g3
I0
sg4
VCampus
p19
sg6
I810
sg7
I815
sa(dp20
g3
I0
sg4
VDiversity
p21
sg6
I870
sg7
I878
sa(dp22
g3
I0
sg4
VEquals
p23
sg6
I880
sg7
I885
sa(dp24
g3
I0
sg4
VWhite
p25
sg6
I887
sg7
I891
sa(dp26
g3
I0
sg4
VGenocide
p27
sg6
I893
sg7
I900
sa(dp28
g3
I0
sg4
VSafe
p29
sg6
I909
sg7
I912
sa(dp30
g3
I0
sg4
VSpace
p31
sg6
I914
sg7
I918
sa(dp32
g3
I0
sg4
VCommies.
p33
sg6
I924
sg7
I931
sa(dp34
g3
I0
sg4
VSwastikas
p35
sg6
I933
sg7
I941
sa(dp36
g3
I1
sg4
VEvergreen
p37
sg6
I993
sg7
I1001
sa(dp38
g3
I0
sg4
VPatriot
p39
sg6
I1077
sg7
I1083
sa(dp40
g3
I0
sg4
VPrayer
p41
sg6
I1085
sg7
I1090
sa(dp42
g3
I0
sg4
VPresident
p43
sg6
I1156
sg7
I1164
sa(dp44
g3
I0
sg4
VTrump
p45
sg6
I1166
sg7
I1170
sa(dp46
g3
I0
sg4
VPatriot
p47
sg6
I1259
sg7
I1265
sa(dp48
g3
I0
sg4
VPrayer
p49
sg6
I1267
sg7
I1272
sa(dp50
g3
I0
sg4
VPortland
p51
sg6
I1315
sg7
I1322
sa(dp52
g3
I0
sg4
VOre.
p53
sg6
I1324
sg7
I1327
sa(dp54
g3
I0
sg4
VPortland
p55
sg6
I1440
sg7
I1447
sa(dp56
g3
I0
sg4
VWeren
p57
sg6
I1705
sg7
I1709
sa(dp58
g3
I0
sg4
VGeorge
p59
sg6
I1826
sg7
I1831
sa(dp60
g3
I0
sg4
VBridges
p61
sg6
I1833
sg7
I1839
sa(dp62
g3
I1
sg4
VEvergreen
p63
sg6
I1858
sg7
I1866
sa(dp64
g3
I0
sg4
VBret
p65
sg6
I2073
sg7
I2076
sa(dp66
g3
I0
sg4
VWeinstein
p67
sg6
I2078
sg7
I2086
sa(dp68
g3
I0
sg4
VTucker
p69
sg6
I2105
sg7
I2110
sa(dp70
g3
I0
sg4
VCarlson
p71
sg6
I2112
sg7
I2118
sa(dp72
g3
I0
sg4
VPresident
p73
sg6
I2160
sg7
I2168
sa(dp74
g3
I0
sg4
VBridges.
p75
sg6
I2170
sg7
I2177
sa(dp76
g3
I0
sg4
VWeinstein
p77
sg6
I2209
sg7
I2217
sa(dp78
g3
I0
sg4
VWeinstein
p79
sg6
I2376
sg7
I2384
sa(dp80
g3
I1
sg4
VEvergreen
p81
sg6
I2400
sg7
I2408
sa(dp82
g3
I0
sg4
VHowever
p83
sg6
I2526
sg7
I2532
sa(dp84
g3
I1
sg4
VEvergreen
p85
sg6
I2573
sg7
I2581
sa(dp86
g3
I0
sg4
VDrew
p87
sg6
I2787
sg7
I2790
sa(dp88
g3
I0
sg4
VGilpin
p89
sg6
I2792
sg7
I2797
sa(dp90
g3
I0
sg4
VFaust
p91
sg6
I2799
sg7
I2803
sa(dp92
g3
I1
sg4
VHarvard
p93
sg6
I2827
sg7
I2833
sa(dp94
g3
I0
sg4
VFaust
p95
sg6
I3067
sg7
I3071
sa(dp96
g3
I0
sg4
VAmerican
p97
sg6
I3129
sg7
I3136
sa(dp98
g3
I0
sg4
VSouth
p99
sg6
I3138
sg7
I3142
sa(dp100
g3
I0
sg4
VLawrence
p101
sg6
I3216
sg7
I3223
sa(dp102
g3
I0
sg4
VSummers
p103
sg6
I3228
sg7
I3234
sa(dp104
g3
I0
sg4
VTreasury
p105
sg6
I3260
sg7
I3267
sa(dp106
g3
I0
sg4
VFaust
p107
sg6
I3343
sg7
I3347
sa(dp108
g3
I1
sg4
VHarvard
p109
sg6
I3431
sg7
I3437
sa(dp110
g3
I0
sg4
VSummers
p111
sg6
I3473
sg7
I3479
sa(dp112
g3
I0
sg4
VSummers
p113
sg6
I3545
sg7
I3551
sa(dp114
g3
I0
sg4
VIndeed
p115
sg6
I3667
sg7
I3672
sa(dp116
g3
I0
sg4
VFaust
p117
sg6
I3678
sg7
I3682
sasI2
(lp118
(dp119
g3
I1
sg4
VEvergreen University
p120
sg6
I595
sg7
I614
sa(dp121
g3
I0
sg4
VDowntown Olympia
p122
sg6
I712
sg7
I727
sa(dp123
g3
I0
sg4
VDiversity Equals
p124
sg6
I870
sg7
I885
sa(dp125
g3
I0
sg4
VEquals White
p126
sg6
I880
sg7
I891
sa(dp127
g3
I0
sg4
VWhite Genocide
p128
sg6
I887
sg7
I900
sa(dp129
g3
I0
sg4
VSafe Space
p130
sg6
I909
sg7
I918
sa(dp131
g3
I0
sg4
VPatriot Prayer
p132
sg6
I1077
sg7
I1090
sa(dp133
g3
I0
sg4
VPresident Trump
p134
sg6
I1156
sg7
I1170
sa(dp135
g3
I0
sg4
VPatriot Prayer
p136
sg6
I1259
sg7
I1272
sa(dp137
g3
I0
sg4
VPortland Ore.
p138
sg6
I1315
sg7
I1327
sa(dp139
g3
I0
sg4
VGeorge Bridges
p140
sg6
I1826
sg7
I1839
sa(dp141
g3
I0
sg4
VBret Weinstein
p142
sg6
I2073
sg7
I2086
sa(dp143
g3
I0
sg4
VTucker Carlson
p144
sg6
I2105
sg7
I2118
sa(dp145
g3
I0
sg4
VPresident Bridges.
p146
sg6
I2160
sg7
I2177
sa(dp147
g3
I0
sg4
VDrew Gilpin
p148
sg6
I2787
sg7
I2797
sa(dp149
g3
I0
sg4
VGilpin Faust
p150
sg6
I2792
sg7
I2803
sa(dp151
g3
I0
sg4
VAmerican South
p152
sg6
I3129
sg7
I3142
sa(dp153
g3
I0
sg4
VLawrence H.
p154
sg6
I3216
sg7
I3226
sa(dp155
g3
I0
sg4
VH. Summers
p156
sg6
I3225
sg7
I3234
sasI3
(lp157
(dp158
g3
I0
sg4
VDiversity Equals White
p159
sg6
I870
sg7
I891
sa(dp160
g3
I0
sg4
VEquals White Genocide
p161
sg6
I880
sg7
I900
sa(dp162
g3
I0
sg4
VDrew Gilpin Faust
p163
sg6
I2787
sg7
I2803
sa(dp164
g3
I0
sg4
VLawrence H. Summers
p165
sg6
I3216
sg7
I3234
sasI4
(lp166
(dp167
g3
I0
sg4
VDiversity Equals White Genocide
p168
sg6
I870
sg7
I900
sasI5
(lp169
sI6
(lp170
s.