(dp0
I1
(lp1
(dp2
S'label'
p3
I0
sS'string'
p4
VAfrican
p5
sS'start_index'
p6
I43
sS'end_index'
p7
I49
sa(dp8
g3
I0
sg4
VAmerican
p9
sg6
I51
sg7
I58
sa(dp10
g3
I0
sg4
VFaust
p11
sg6
I85
sg7
I89
sa(dp12
g3
I1
sg4
VHarvard
p13
sg6
I142
sg7
I148
sa(dp14
g3
I0
sg4
VLatino
p15
sg6
I174
sg7
I179
sa(dp16
g3
I0
sg4
VBrian
p17
sg6
I206
sg7
I210
sa(dp18
g3
I0
sg4
VGreene
p19
sg6
I212
sg7
I217
sa(dp20
g3
I0
sg4
VColumbia
p21
sg6
I261
sg7
I268
sa(dp22
g3
I1
sg4
VHarvard
p23
sg6
I295
sg7
I301
sa(dp24
g3
I0
sg4
VBoard
p25
sg6
I305
sg7
I309
sa(dp26
g3
I0
sg4
VOverseers
p27
sg6
I314
sg7
I322
sa(dp28
g3
I0
sg4
VFaust
p29
sg6
I338
sg7
I342
sa(dp30
g3
I1
sg4
VHarvard
p31
sg6
I397
sg7
I403
sa(dp32
g3
I0
sg4
VInformed
p33
sg6
I544
sg7
I551
sa(dp34
g3
I0
sg4
VFaust
p35
sg6
I587
sg7
I591
sa(dp36
g3
I1
sg4
VHarvard
p37
sg6
I599
sg7
I605
sa(dp38
g3
I0
sg4
VShortly
p39
sg6
I955
sg7
I961
sa(dp40
g3
I0
sg4
VFaust
p41
sg6
I973
sg7
I977
sa(dp42
g3
I0
sg4
VWall
p43
sg6
I1071
sg7
I1074
sa(dp44
g3
I0
sg4
VStreet
p45
sg6
I1076
sg7
I1081
sa(dp46
g3
I1
sg4
VHarvard
p47
sg6
I1104
sg7
I1110
sa(dp48
g3
I0
sg4
VCritics
p49
sg6
I1199
sg7
I1205
sa(dp50
g3
I0
sg4
VFaust
p51
sg6
I1230
sg7
I1234
sa(dp52
g3
I1
sg4
VHarvard
p53
sg6
I1305
sg7
I1311
sa(dp54
g3
I0
sg4
VAmerican
p55
sg6
I1461
sg7
I1468
sa(dp56
g3
I0
sg4
VFaust
p57
sg6
I1500
sg7
I1504
sa(dp58
g3
I1
sg4
VHarvard
p59
sg6
I1659
sg7
I1665
sa(dp60
g3
I0
sg4
VFaust
p61
sg6
I1735
sg7
I1739
sa(dp62
g3
I1
sg4
VHarvard
p63
sg6
I1766
sg7
I1772
sa(dp64
g3
I0
sg4
VWednesday.
p65
sg6
I1784
sg7
I1793
sa(dp66
g3
I0
sg4
VFaust
p67
sg6
I1954
sg7
I1958
sa(dp68
g3
I1
sg4
VHarvard
p69
sg6
I2086
sg7
I2092
sasI2
(lp70
(dp71
g3
I0
sg4
VAfrican American
p72
sg6
I43
sg7
I58
sa(dp73
g3
I0
sg4
VBrian Greene
p74
sg6
I206
sg7
I217
sa(dp75
g3
I1
sg4
VColumbia University
p76
sg6
I261
sg7
I279
sa(dp77
g3
I0
sg4
VWall Street
p78
sg6
I1071
sg7
I1081
sasI3
(lp79
(dp80
g3
I0
sg4
VBoard of Overseers
p81
sg6
I305
sg7
I322
sasI4
(lp82
sI5
(lp83
sI6
(lp84
s.