(dp0
I1
(lp1
(dp2
S'label'
p3
I0
sS'string'
p4
VFaust
p5
sS'start_index'
p6
I36
sS'end_index'
p7
I40
sa(dp8
g3
I0
sg4
VRecently
p9
sg6
I221
sg7
I228
sa(dp10
g3
I1
sg4
VHarvard.
p11
sg6
I317
sg7
I324
sa(dp12
g3
I0
sg4
VRichard
p13
sg6
I553
sg7
I559
sa(dp14
g3
I0
sg4
VPorteus
p15
sg6
I564
sg7
I570
sa(dp16
g3
I1
sg4
VHarvard
p17
sg6
I598
sg7
I604
sa(dp18
g3
I0
sg4
VFly
p19
sg6
I618
sg7
I620
sa(dp20
g3
I0
sg4
VClub
p21
sg6
I622
sg7
I625
sa(dp22
g3
I0
sg4
VPresident
p23
sg6
I653
sg7
I661
sa(dp24
g3
I0
sg4
VFranklin
p25
sg6
I663
sg7
I670
sa(dp26
g3
I0
sg4
VRoosevelt
p27
sg6
I675
sg7
I683
sa(dp28
g3
I0
sg4
VFaust
p29
sg6
I718
sg7
I722
sa(dp30
g3
I0
sg4
VNevertheless
p31
sg6
I740
sg7
I751
sa(dp32
g3
I0
sg4
VPorteus
p33
sg6
I757
sg7
I763
sa(dp34
g3
I0
sg4
VPresident
p35
sg6
I832
sg7
I840
sa(dp36
g3
I0
sg4
VFaust
p37
sg6
I842
sg7
I846
sa(dp38
g3
I1
sg4
VHarvard
p39
sg6
I973
sg7
I979
sa(dp40
g3
I0
sg4
VOther
p41
sg6
I994
sg7
I998
sa(dp42
g3
I0
sg4
VO.T.
p43
sg6
I1076
sg7
I1079
sa(dp44
g3
I0
sg4
VReserve
p45
sg6
I1088
sg7
I1094
sa(dp46
g3
I0
sg4
VOfficers
p47
sg6
I1096
sg7
I1103
sa(dp48
g3
I0
sg4
VTraining
p49
sg6
I1105
sg7
I1112
sa(dp50
g3
I0
sg4
VCorps
p51
sg6
I1114
sg7
I1118
sa(dp52
g3
I0
sg4
VCongress
p53
sg6
I1126
sg7
I1133
sa(dp54
g3
I0
sg4
VVirginia
p55
sg6
I1379
sg7
I1386
sa(dp56
g3
I0
sg4
VFaust
p57
sg6
I1392
sg7
I1396
sa(dp58
g3
I0
sg4
VCatharine
p59
sg6
I1403
sg7
I1411
sa(dp60
g3
I0
sg4
VDrew
p61
sg6
I1413
sg7
I1416
sa(dp62
g3
I0
sg4
VGilpin
p63
sg6
I1418
sg7
I1423
sa(dp64
g3
I0
sg4
VBryn
p65
sg6
I1440
sg7
I1443
sa(dp66
g3
I0
sg4
VMawr
p67
sg6
I1445
sg7
I1448
sa(dp68
g3
I0
sg4
VPennsylvania
p69
sg6
I1524
sg7
I1535
sa(dp70
g3
I0
sg4
VRadcliffe
p71
sg6
I1608
sg7
I1616
sa(dp72
g3
I0
sg4
VRadcliffe
p73
sg6
I1650
sg7
I1658
sa(dp74
g3
I1
sg4
VHarvard.
p75
sg6
I1702
sg7
I1709
sa(dp76
g3
I0
sg4
VRepublic
p77
sg6
I1725
sg7
I1732
sa(dp78
g3
I0
sg4
VSuffering
p79
sg6
I1737
sg7
I1745
sa(dp80
g3
I0
sg4
VDeath
p81
sg6
I1747
sg7
I1751
sa(dp82
g3
I0
sg4
VAmerican
p83
sg6
I1761
sg7
I1768
sa(dp84
g3
I0
sg4
VCivil
p85
sg6
I1770
sg7
I1774
sa(dp86
g3
I0
sg4
VWar
p87
sg6
I1776
sg7
I1778
sa(dp88
g3
I0
sg4
VNational
p89
sg6
I1786
sg7
I1793
sa(dp90
g3
I0
sg4
VBook
p91
sg6
I1795
sg7
I1798
sa(dp92
g3
I0
sg4
VAward
p93
sg6
I1800
sg7
I1804
sa(dp94
g3
I0
sg4
VCivil
p95
sg6
I1847
sg7
I1851
sa(dp96
g3
I0
sg4
VWar
p97
sg6
I1853
sg7
I1855
sa(dp98
g3
I0
sg4
VAmericans.
p99
sg6
I1891
sg7
I1900
sa(dp100
g3
I0
sg4
VORLANDO
p101
sg6
I1902
sg7
I1908
sa(dp102
g3
I0
sg4
VFla.
p103
sg6
I1910
sg7
I1913
sa(dp104
g3
I0
sg4
VLatin
p105
sg6
I1957
sg7
I1961
sa(dp106
g3
I0
sg4
VPulse
p107
sg6
I1984
sg7
I1988
sa(dp108
g3
I0
sg4
VOrlando
p109
sg6
I2011
sg7
I2017
sa(dp110
g3
I0
sg4
VFla.
p111
sg6
I2019
sg7
I2022
sa(dp112
g3
I0
sg4
VG.B.
p113
sg6
I2098
sg7
I2101
sa(dp114
g3
I0
sg4
VLatino
p115
sg6
I2110
sg7
I2115
sa(dp116
g3
I0
sg4
VRuPaul
p117
sg6
I2326
sg7
I2331
sa(dp118
g3
I0
sg4
VDrag
p119
sg6
I2335
sg7
I2338
sa(dp120
g3
I0
sg4
VRace
p121
sg6
I2340
sg7
I2343
sa(dp122
g3
I0
sg4
VCentral
p123
sg6
I2466
sg7
I2472
sa(dp124
g3
I0
sg4
VFlorida
p125
sg6
I2474
sg7
I2480
sa(dp126
g3
I0
sg4
VPulse
p127
sg6
I2498
sg7
I2502
sa(dp128
g3
I0
sg4
VG.B.
p129
sg6
I2545
sg7
I2548
sa(dp130
g3
I0
sg4
VFacebook
p131
sg6
I2853
sg7
I2860
sasI2
(lp132
(dp133
g3
I0
sg4
VRichard T.
p134
sg6
I553
sg7
I562
sa(dp135
g3
I0
sg4
VT. Porteus
p136
sg6
I561
sg7
I570
sa(dp137
g3
I0
sg4
VFly Club
p138
sg6
I618
sg7
I625
sa(dp139
g3
I0
sg4
VPresident Franklin
p140
sg6
I653
sg7
I670
sa(dp141
g3
I0
sg4
VFranklin D.
p142
sg6
I663
sg7
I673
sa(dp143
g3
I0
sg4
VD. Roosevelt
p144
sg6
I672
sg7
I683
sa(dp145
g3
I0
sg4
VPresident Faust
p146
sg6
I832
sg7
I846
sa(dp147
g3
I0
sg4
VR. O.T.
p148
sg6
I1073
sg7
I1079
sa(dp149
g3
I0
sg4
VO.T. C.
p150
sg6
I1076
sg7
I1082
sa(dp151
g3
I0
sg4
VReserve Officers
p152
sg6
I1088
sg7
I1103
sa(dp153
g3
I0
sg4
VOfficers Training
p154
sg6
I1096
sg7
I1112
sa(dp155
g3
I0
sg4
VTraining Corps
p156
sg6
I1105
sg7
I1118
sa(dp157
g3
I0
sg4
VCatharine Drew
p158
sg6
I1403
sg7
I1416
sa(dp159
g3
I0
sg4
VDrew Gilpin
p160
sg6
I1413
sg7
I1423
sa(dp161
g3
I0
sg4
VBryn Mawr
p162
sg6
I1440
sg7
I1448
sa(dp163
g3
I1
sg4
VRadcliffe Institute
p164
sg6
I1608
sg7
I1626
sa(dp165
g3
I1
sg4
VRadcliffe College
p166
sg6
I1650
sg7
I1666
sa(dp167
g3
I0
sg4
VSuffering Death
p168
sg6
I1737
sg7
I1751
sa(dp169
g3
I0
sg4
VAmerican Civil
p170
sg6
I1761
sg7
I1774
sa(dp171
g3
I0
sg4
VCivil War
p172
sg6
I1770
sg7
I1778
sa(dp173
g3
I0
sg4
VNational Book
p174
sg6
I1786
sg7
I1798
sa(dp175
g3
I0
sg4
VBook Award
p176
sg6
I1795
sg7
I1804
sa(dp177
g3
I0
sg4
VCivil War
p178
sg6
I1847
sg7
I1855
sa(dp179
g3
I0
sg4
VORLANDO Fla.
p180
sg6
I1902
sg7
I1913
sa(dp181
g3
I0
sg4
VOrlando Fla.
p182
sg6
I2011
sg7
I2022
sa(dp183
g3
I0
sg4
VL. G.B.
p184
sg6
I2095
sg7
I2101
sa(dp185
g3
I0
sg4
VG.B. T.
p186
sg6
I2098
sg7
I2104
sa(dp187
g3
I0
sg4
VO. K.
p188
sg6
I2249
sg7
I2253
sa(dp189
g3
I0
sg4
VDrag Race
p190
sg6
I2335
sg7
I2343
sa(dp191
g3
I0
sg4
VCentral Florida
p192
sg6
I2466
sg7
I2480
sa(dp193
g3
I0
sg4
VL. G.B.
p194
sg6
I2542
sg7
I2548
sa(dp195
g3
I0
sg4
VG.B. T.
p196
sg6
I2545
sg7
I2551
sasI3
(lp197
(dp198
g3
I0
sg4
VRichard T. Porteus
p199
sg6
I553
sg7
I570
sa(dp200
g3
I0
sg4
VPresident Franklin D.
p201
sg6
I653
sg7
I673
sa(dp202
g3
I0
sg4
VFranklin D. Roosevelt
p203
sg6
I663
sg7
I683
sa(dp204
g3
I0
sg4
VR. O.T. C.
p205
sg6
I1073
sg7
I1082
sa(dp206
g3
I0
sg4
VReserve Officers Training
p207
sg6
I1088
sg7
I1112
sa(dp208
g3
I0
sg4
VOfficers Training Corps
p209
sg6
I1096
sg7
I1118
sa(dp210
g3
I0
sg4
VCatharine Drew Gilpin
p211
sg6
I1403
sg7
I1423
sa(dp212
g3
I1
sg4
VUniversity of Pennsylvania
p213
sg6
I1510
sg7
I1535
sa(dp214
g3
I0
sg4
VRepublic of Suffering
p215
sg6
I1725
sg7
I1745
sa(dp216
g3
I0
sg4
VAmerican Civil War
p217
sg6
I1761
sg7
I1778
sa(dp218
g3
I0
sg4
VNational Book Award
p219
sg6
I1786
sg7
I1804
sa(dp220
g3
I0
sg4
VL. G.B. T.
p221
sg6
I2095
sg7
I2104
sa(dp222
g3
I0
sg4
VT. and Latino
p223
sg6
I2103
sg7
I2115
sa(dp224
g3
I0
sg4
VUniversity of Central
p225
sg6
I2452
sg7
I2472
sa(dp226
g3
I0
sg4
VL. G.B. T.
p227
sg6
I2542
sg7
I2551
sasI4
(lp228
(dp229
g3
I0
sg4
VPresident Franklin D. Roosevelt
p230
sg6
I653
sg7
I683
sa(dp231
g3
I0
sg4
VReserve Officers Training Corps
p232
sg6
I1088
sg7
I1118
sa(dp233
g3
I0
sg4
VRepublic of Suffering Death
p234
sg6
I1725
sg7
I1751
sa(dp235
g3
I0
sg4
VG.B. T. and Latino
p236
sg6
I2098
sg7
I2115
sa(dp237
g3
I1
sg4
VUniversity of Central Florida
p238
sg6
I2452
sg7
I2480
sasI5
(lp239
(dp240
g3
I0
sg4
VL. G.B. T. and Latino
p241
sg6
I2095
sg7
I2115
sasI6
(lp242
s.