(dp0
I1
(lp1
(dp2
S'label'
p3
I0
sS'string'
p4
VKissimmee
p5
sS'start_index'
p6
I41
sS'end_index'
p7
I49
sa(dp8
g3
I0
sg4
VAccording
p9
sg6
I106
sg7
I114
sa(dp10
g3
I0
sg4
VCouncil
p11
sg6
I123
sg7
I129
sa(dp12
g3
I0
sg4
VAmerican
p13
sg6
I134
sg7
I141
sa(dp14
g3
I0
sg4
VIslamic
p15
sg6
I143
sg7
I149
sa(dp16
g3
I0
sg4
VRelations
p17
sg6
I151
sg7
I159
sa(dp18
g3
I0
sg4
VAmerican
p19
sg6
I187
sg7
I194
sa(dp20
g3
I0
sg4
VMuslims
p21
sg6
I196
sg7
I202
sa(dp22
g3
I0
sg4
VG.B.
p23
sg6
I375
sg7
I378
sa(dp24
g3
I0
sg4
VPulse
p25
sg6
I403
sg7
I407
sa(dp26
g3
I0
sg4
VMuslim
p27
sg6
I450
sg7
I455
sa(dp28
g3
I1
sg4
VUCF
p29
sg6
I545
sg7
I547
sa(dp30
g3
I0
sg4
VIslam
p31
sg6
I599
sg7
I603
sa(dp32
g3
I0
sg4
VTerrorism
p33
sg6
I726
sg7
I734
sa(dp34
g3
I0
sg4
VCommunication.
p35
sg6
I740
sg7
I753
sa(dp36
g3
I0
sg4
VMuslim
p37
sg6
I975
sg7
I980
sa(dp38
g3
I0
sg4
VMuslim
p39
sg6
I1083
sg7
I1088
sa(dp40
g3
I0
sg4
VMuslim
p41
sg6
I1158
sg7
I1163
sa(dp42
g3
I1
sg4
VUCF
p43
sg6
I1228
sg7
I1230
sa(dp44
g3
I0
sg4
VMuslim
p45
sg6
I1785
sg7
I1790
sa(dp46
g3
I0
sg4
VCan
p47
sg6
I1925
sg7
I1927
sa(dp48
g3
I0
sg4
VErica
p49
sg6
I1959
sg7
I1963
sa(dp50
g3
I0
sg4
VFells
p51
sg6
I1965
sg7
I1969
sa(dp52
g3
I0
sg4
VLeslie
p53
sg6
I2094
sg7
I2099
sa(dp54
g3
I0
sg4
VAlcantara
p55
sg6
I2101
sg7
I2109
sa(dp56
g3
I0
sg4
VLeslie
p57
sg6
I2167
sg7
I2172
sa(dp58
g3
I0
sg4
VFells
p59
sg6
I2190
sg7
I2194
sa(dp60
g3
I0
sg4
VCity
p61
sg6
I2305
sg7
I2308
sa(dp62
g3
I0
sg4
VNew
p63
sg6
I2324
sg7
I2326
sa(dp64
g3
I0
sg4
VYork
p65
sg6
I2328
sg7
I2331
sa(dp66
g3
I1
sg4
VCUNY
p67
sg6
I2388
sg7
I2391
sa(dp68
g3
I1
sg4
VCUNY
p69
sg6
I2556
sg7
I2559
sa(dp70
g3
I0
sg4
VStart.
p71
sg6
I2561
sg7
I2566
sa(dp72
g3
I0
sg4
VFells
p73
sg6
I2947
sg7
I2951
sa(dp74
g3
I0
sg4
VTen
p75
sg6
I3035
sg7
I3037
sasI2
(lp76
(dp77
g3
I0
sg4
VAmerican Islamic
p78
sg6
I134
sg7
I149
sa(dp79
g3
I0
sg4
VIslamic Relations
p80
sg6
I143
sg7
I159
sa(dp81
g3
I0
sg4
VAmerican Muslims
p82
sg6
I187
sg7
I202
sa(dp83
g3
I0
sg4
VL. G.B.
p84
sg6
I372
sg7
I378
sa(dp85
g3
I0
sg4
VG.B. T.
p86
sg6
I375
sg7
I381
sa(dp87
g3
I0
sg4
VErica Fells
p88
sg6
I1959
sg7
I1969
sa(dp89
g3
I0
sg4
VLeslie Alcantara
p90
sg6
I2094
sg7
I2109
sa(dp91
g3
I0
sg4
VCity University
p92
sg6
I2305
sg7
I2319
sa(dp93
g3
I0
sg4
VNew York
p94
sg6
I2324
sg7
I2331
sa(dp95
g3
I0
sg4
VCUNY Start.
p96
sg6
I2556
sg7
I2566
sasI3
(lp97
(dp98
g3
I0
sg4
VAmerican Islamic Relations
p99
sg6
I134
sg7
I159
sa(dp100
g3
I0
sg4
VL. G.B. T.
p101
sg6
I372
sg7
I381
sa(dp102
g3
I0
sg4
VTerrorism and Communication.
p103
sg6
I726
sg7
I753
sa(dp104
g3
I0
sg4
VUniversity of New
p105
sg6
I2310
sg7
I2326
sasI4
(lp106
(dp107
g3
I0
sg4
VCity University of New
p108
sg6
I2305
sg7
I2326
sa(dp109
g3
I0
sg4
VUniversity of New York
p110
sg6
I2310
sg7
I2331
sasI5
(lp111
(dp112
g3
I1
sg4
VCity University of New York
p113
sg6
I2305
sg7
I2331
sasI6
(lp114
s.