(dp0
I1
(lp1
(dp2
S'label'
p3
I1
sS'string'
p4
VCUNY
p5
sS'start_index'
p6
I0
sS'end_index'
p7
I3
sa(dp8
g3
I0
sg4
VStart
p9
sg6
I5
sg7
I9
sa(dp10
g3
I0
sg4
VNationwide
p11
sg6
I65
sg7
I74
sa(dp12
g3
I1
sg4
VCUNY
p13
sg6
I257
sg7
I260
sa(dp14
g3
I0
sg4
VStart
p15
sg6
I262
sg7
I266
sa(dp16
g3
I0
sg4
VKyle
p17
sg6
I284
sg7
I287
sa(dp18
g3
I0
sg4
VLambert
p19
sg6
I289
sg7
I295
sa(dp20
g3
I0
sg4
VErica
p21
sg6
I357
sg7
I361
sa(dp22
g3
I0
sg4
VFells
p23
sg6
I363
sg7
I367
sasI2
(lp24
(dp25
g3
I0
sg4
VCUNY Start
p26
sg6
I0
sg7
I9
sa(dp27
g3
I0
sg4
VCUNY Start
p28
sg6
I257
sg7
I266
sa(dp29
g3
I0
sg4
VKyle Lambert
p30
sg6
I284
sg7
I295
sa(dp31
g3
I0
sg4
VErica Fells
p32
sg6
I357
sg7
I367
sasI3
(lp33
sI4
(lp34
sI5
(lp35
sI6
(lp36
s.