(dp0
I1
(lp1
(dp2
S'label'
p3
I0
sS'string'
p4
VTypically
p5
sS'start_index'
p6
I0
sS'end_index'
p7
I8
sa(dp8
g3
I0
sg4
VStrasbourg
p9
sg6
I129
sg7
I138
sa(dp10
g3
I0
sg4
VOld
p11
sg6
I302
sg7
I304
sa(dp12
g3
I1
sg4
VCUNY
p13
sg6
I459
sg7
I462
sa(dp14
g3
I0
sg4
VStart
p15
sg6
I464
sg7
I468
sa(dp16
g3
I0
sg4
VFull
p17
sg6
I490
sg7
I493
sa(dp18
g3
I0
sg4
VStart
p19
sg6
I528
sg7
I532
sa(dp20
g3
I0
sg4
VMath
p21
sg6
I669
sg7
I672
sa(dp22
g3
I0
sg4
VFells
p23
sg6
I702
sg7
I706
sa(dp24
g3
I0
sg4
VFells
p25
sg6
I1017
sg7
I1021
sa(dp26
g3
I0
sg4
VTypically
p27
sg6
I1240
sg7
I1248
sa(dp28
g3
I0
sg4
VJessica
p29
sg6
I1453
sg7
I1459
sa(dp30
g3
I0
sg4
VMingus
p31
sg6
I1461
sg7
I1466
sa(dp32
g3
I1
sg4
VCUNY
p33
sg6
I1484
sg7
I1487
sa(dp34
g3
I0
sg4
VStart
p35
sg6
I1489
sg7
I1493
sa(dp36
g3
I0
sg4
VHostos
p37
sg6
I1498
sg7
I1503
sa(dp38
g3
I0
sg4
VCommunity
p39
sg6
I1505
sg7
I1513
sa(dp40
g3
I0
sg4
VMath
p41
sg6
I1806
sg7
I1809
sa(dp42
g3
I0
sg4
VErica
p43
sg6
I1822
sg7
I1826
sa(dp44
g3
I0
sg4
VFells
p45
sg6
I1828
sg7
I1832
sa(dp46
g3
I1
sg4
VCUNY
p47
sg6
I1836
sg7
I1839
sa(dp48
g3
I0
sg4
VStart
p49
sg6
I1841
sg7
I1845
sa(dp50
g3
I0
sg4
VHostos
p51
sg6
I1872
sg7
I1877
sa(dp52
g3
I0
sg4
VCommunity
p53
sg6
I1879
sg7
I1887
sa(dp54
g3
I0
sg4
VThursday.
p55
sg6
I1900
sg7
I1908
sasI2
(lp56
(dp57
g3
I0
sg4
VCUNY Start
p58
sg6
I459
sg7
I468
sa(dp59
g3
I0
sg4
VJessica Mingus
p60
sg6
I1453
sg7
I1466
sa(dp61
g3
I0
sg4
VCUNY Start
p62
sg6
I1484
sg7
I1493
sa(dp63
g3
I0
sg4
VHostos Community
p64
sg6
I1498
sg7
I1513
sa(dp65
g3
I0
sg4
VCommunity College
p66
sg6
I1505
sg7
I1521
sa(dp67
g3
I0
sg4
VErica Fells
p68
sg6
I1822
sg7
I1832
sa(dp69
g3
I0
sg4
VCUNY Start
p70
sg6
I1836
sg7
I1845
sa(dp71
g3
I0
sg4
VHostos Community
p72
sg6
I1872
sg7
I1887
sa(dp73
g3
I0
sg4
VCommunity College
p74
sg6
I1879
sg7
I1895
sasI3
(lp75
(dp76
g3
I1
sg4
VHostos Community College
p77
sg6
I1498
sg7
I1521
sa(dp78
g3
I1
sg4
VHostos Community College
p79
sg6
I1872
sg7
I1895
sasI4
(lp80
sI5
(lp81
sI6
(lp82
s.