(dp0
I1
(lp1
(dp2
S'label'
p3
I1
sS'string'
p4
VCUNY
p5
sS'start_index'
p6
I116
sS'end_index'
p7
I119
sa(dp8
g3
I0
sg4
VAccelerated
p9
sg6
I139
sg7
I149
sa(dp10
g3
I0
sg4
VStudy
p11
sg6
I151
sg7
I155
sa(dp12
g3
I0
sg4
VAssociate
p13
sg6
I160
sg7
I168
sa(dp14
g3
I0
sg4
VPrograms
p15
sg6
I170
sg7
I177
sa(dp16
g3
I0
sg4
VSixty
p17
sg6
I316
sg7
I320
sa(dp18
g3
I0
sg4
VASAP
p19
sg6
I338
sg7
I341
sa(dp20
g3
I0
sg4
VEducators
p21
sg6
I386
sg7
I394
sa(dp22
g3
I0
sg4
VNew
p23
sg6
I447
sg7
I449
sa(dp24
g3
I0
sg4
VYork
p25
sg6
I451
sg7
I454
sa(dp26
g3
I0
sg4
VOhio
p27
sg6
I456
sg7
I459
sa(dp28
g3
I0
sg4
VCalifornia
p29
sg6
I465
sg7
I474
sa(dp30
g3
I0
sg4
VASAP
p31
sg6
I499
sg7
I502
sa(dp32
g3
I0
sg4
VNew
p33
sg6
I532
sg7
I534
sa(dp34
g3
I0
sg4
VYork
p35
sg6
I536
sg7
I539
sa(dp36
g3
I0
sg4
VCity
p37
sg6
I541
sg7
I544
sa(dp38
g3
I1
sg4
VCUNY
p39
sg6
I607
sg7
I610
sa(dp40
g3
I0
sg4
VStart
p41
sg6
I612
sg7
I616
sa(dp42
g3
I1
sg4
VCUNY
p43
sg6
I774
sg7
I777
sa(dp44
g3
I0
sg4
VStart
p45
sg6
I779
sg7
I783
sa(dp46
g3
I0
sg4
VASAP
p47
sg6
I789
sg7
I792
sa(dp48
g3
I0
sg4
VCity
p49
sg6
I801
sg7
I804
sa(dp50
g3
I0
sg4
VResearchers
p51
sg6
I841
sg7
I851
sa(dp52
g3
I1
sg4
VStanford
p53
sg6
I856
sg7
I863
sa(dp54
g3
I1
sg4
VBerkeley
p55
sg6
I865
sg7
I872
sa(dp56
g3
I1
sg4
VBrown
p57
sg6
I878
sg7
I882
sa(dp58
g3
I1
sg4
VCUNY
p59
sg6
I913
sg7
I916
sa(dp60
g3
I0
sg4
VPlaces
p61
sg6
I998
sg7
I1003
sa(dp62
g3
I1
sg4
VCUNY
p63
sg6
I1010
sg7
I1013
sa(dp64
g3
I0
sg4
VStony
p65
sg6
I1015
sg7
I1019
sa(dp66
g3
I0
sg4
VBrook
p67
sg6
I1021
sg7
I1025
sa(dp68
g3
I0
sg4
VCalifornia
p69
sg6
I1042
sg7
I1051
sa(dp70
g3
I0
sg4
VState
p71
sg6
I1053
sg7
I1057
sa(dp72
g3
I0
sg4
VLos
p73
sg6
I1070
sg7
I1072
sa(dp74
g3
I0
sg4
VAngeles
p75
sg6
I1074
sg7
I1080
sa(dp76
g3
I0
sg4
VIllinois
p77
sg6
I1321
sg7
I1328
sa(dp78
g3
I0
sg4
VTheFacebook
p79
sg6
I1347
sg7
I1357
sa(dp80
g3
I0
sg4
VBig
p81
sg6
I1438
sg7
I1440
sa(dp82
g3
I0
sg4
VBlackPlanet
p83
sg6
I1533
sg7
I1543
sa(dp84
g3
I0
sg4
VMyspace.
p85
sg6
I1548
sg7
I1555
sasI2
(lp86
(dp87
g3
I0
sg4
VAccelerated Study
p88
sg6
I139
sg7
I155
sa(dp89
g3
I0
sg4
VAssociate Programs
p90
sg6
I160
sg7
I177
sa(dp91
g3
I0
sg4
VNew York
p92
sg6
I447
sg7
I454
sa(dp93
g3
I0
sg4
VYork Ohio
p94
sg6
I451
sg7
I459
sa(dp95
g3
I0
sg4
VNew York
p96
sg6
I532
sg7
I539
sa(dp97
g3
I0
sg4
VYork City
p98
sg6
I536
sg7
I544
sa(dp99
g3
I0
sg4
VCUNY Start
p100
sg6
I607
sg7
I616
sa(dp101
g3
I0
sg4
VCUNY Start
p102
sg6
I774
sg7
I783
sa(dp103
g3
I1
sg4
VCity University
p104
sg6
I801
sg7
I815
sa(dp105
g3
I0
sg4
VStanford Berkeley
p106
sg6
I856
sg7
I872
sa(dp107
g3
I0
sg4
VCUNY Stony
p108
sg6
I1010
sg7
I1019
sa(dp109
g3
I0
sg4
VStony Brook
p110
sg6
I1015
sg7
I1025
sa(dp111
g3
I0
sg4
VBrook University
p112
sg6
I1021
sg7
I1036
sa(dp113
g3
I0
sg4
VCalifornia State
p114
sg6
I1042
sg7
I1057
sa(dp115
g3
I0
sg4
VState University
p116
sg6
I1053
sg7
I1068
sa(dp117
g3
I0
sg4
VUniversity Los
p118
sg6
I1059
sg7
I1072
sa(dp119
g3
I0
sg4
VLos Angeles
p120
sg6
I1070
sg7
I1080
sasI3
(lp121
(dp122
g3
I0
sg4
VNew York Ohio
p123
sg6
I447
sg7
I459
sa(dp124
g3
I0
sg4
VOhio and California
p125
sg6
I456
sg7
I474
sa(dp126
g3
I0
sg4
VNew York City
p127
sg6
I532
sg7
I544
sa(dp128
g3
I0
sg4
VStart and ASAP
p129
sg6
I779
sg7
I792
sa(dp130
g3
I0
sg4
VBerkeley and Brown
p131
sg6
I865
sg7
I882
sa(dp132
g3
I0
sg4
VCUNY Stony Brook
p133
sg6
I1010
sg7
I1025
sa(dp134
g3
I1
sg4
VStony Brook University
p135
sg6
I1015
sg7
I1036
sa(dp136
g3
I0
sg4
VUniversity and California
p137
sg6
I1027
sg7
I1051
sa(dp138
g3
I0
sg4
VCalifornia State University
p139
sg6
I1042
sg7
I1068
sa(dp140
g3
I0
sg4
VState University Los
p141
sg6
I1053
sg7
I1072
sa(dp142
g3
I0
sg4
VUniversity Los Angeles
p143
sg6
I1059
sg7
I1080
sa(dp144
g3
I1
sg4
VUniversity of Illinois
p145
sg6
I1307
sg7
I1328
sasI4
(lp146
(dp147
g3
I0
sg4
VYork Ohio and California
p148
sg6
I451
sg7
I474
sa(dp149
g3
I0
sg4
VCUNY Start and ASAP
p150
sg6
I774
sg7
I792
sa(dp151
g3
I0
sg4
VStanford Berkeley and Brown
p152
sg6
I856
sg7
I882
sa(dp153
g3
I0
sg4
VCUNY Stony Brook University
p154
sg6
I1010
sg7
I1036
sa(dp155
g3
I0
sg4
VBrook University and California
p156
sg6
I1021
sg7
I1051
sa(dp157
g3
I0
sg4
VUniversity and California State
p158
sg6
I1027
sg7
I1057
sa(dp159
g3
I0
sg4
VCalifornia State University Los
p160
sg6
I1042
sg7
I1072
sa(dp161
g3
I0
sg4
VState University Los Angeles
p162
sg6
I1053
sg7
I1080
sasI5
(lp163
(dp164
g3
I0
sg4
VNew York Ohio and California
p165
sg6
I447
sg7
I474
sa(dp166
g3
I0
sg4
VStony Brook University and California
p167
sg6
I1015
sg7
I1051
sa(dp168
g3
I0
sg4
VBrook University and California State
p169
sg6
I1021
sg7
I1057
sa(dp170
g3
I1
sg4
VCalifornia State University Los Angeles
p171
sg6
I1042
sg7
I1080
sasI6
(lp172
(dp173
g3
I0
sg4
VCUNY Stony Brook University and California
p174
sg6
I1010
sg7
I1051
sa(dp175
g3
I0
sg4
VStony Brook University and California State
p176
sg6
I1015
sg7
I1057
sas.