(dp0
I1
(lp1
(dp2
S'label'
p3
I0
sS'string'
p4
VSamuel
p5
sS'start_index'
p6
I198
sS'end_index'
p7
I203
sa(dp8
g3
I0
sg4
VDuBois
p9
sg6
I205
sg7
I210
sa(dp10
g3
I0
sg4
VCook
p11
sg6
I212
sg7
I215
sa(dp12
g3
I0
sg4
VSouth
p13
sg6
I355
sg7
I359
sa(dp14
g3
I0
sg4
VReconstruction
p15
sg6
I367
sg7
I380
sa(dp16
g3
I0
sg4
VAtlanta.
p17
sg6
I412
sg7
I419
sa(dp18
g3
I0
sg4
VRev.
p19
sg6
I445
sg7
I448
sa(dp20
g3
I0
sg4
VMartin
p21
sg6
I454
sg7
I459
sa(dp22
g3
I0
sg4
VLuther
p23
sg6
I461
sg7
I466
sa(dp24
g3
I0
sg4
VKing
p25
sg6
I468
sg7
I471
sa(dp26
g3
I0
sg4
VDuke
p27
sg6
I515
sg7
I518
sa(dp28
g3
I0
sg4
VDillard
p29
sg6
I623
sg7
I629
sa(dp30
g3
I0
sg4
VNew
p31
sg6
I678
sg7
I680
sa(dp32
g3
I0
sg4
VOrleans.
p33
sg6
I682
sg7
I689
sa(dp34
g3
I0
sg4
VSouthern
p35
sg6
I807
sg7
I814
sa(dp36
g3
I0
sg4
VCook
p37
sg6
I912
sg7
I915
sa(dp38
g3
I1
sg4
VDuke
p39
sg6
I946
sg7
I949
sa(dp40
g3
I0
sg4
VDurham
p41
sg6
I954
sg7
I959
sa(dp42
g3
I0
sg4
VSouthern
p43
sg6
I1090
sg7
I1097
sa(dp44
g3
I0
sg4
VPolitical
p45
sg6
I1099
sg7
I1107
sa(dp46
g3
I0
sg4
VScience
p47
sg6
I1109
sg7
I1115
sa(dp48
g3
I0
sg4
VAssociation.
p49
sg6
I1117
sg7
I1128
sa(dp50
g3
I0
sg4
VPresident
p51
sg6
I1130
sg7
I1138
sa(dp52
g3
I0
sg4
VJimmy
p53
sg6
I1140
sg7
I1144
sa(dp54
g3
I0
sg4
VCarter
p55
sg6
I1146
sg7
I1151
sa(dp56
g3
I0
sg4
VNational
p57
sg6
I1176
sg7
I1183
sa(dp58
g3
I0
sg4
VCouncil
p59
sg6
I1185
sg7
I1191
sa(dp60
g3
I0
sg4
VHumanities.
p61
sg6
I1200
sg7
I1210
sa(dp62
g3
I0
sg4
VCook
p63
sg6
I1216
sg7
I1219
sa(dp64
g3
I0
sg4
VNov.
p65
sg6
I1233
sg7
I1236
sa(dp66
g3
I0
sg4
VGriffin
p67
sg6
I1249
sg7
I1255
sa(dp68
g3
I0
sg4
VGa.
p69
sg6
I1257
sg7
I1259
sa(dp70
g3
I0
sg4
VAtlanta.
p71
sg6
I1284
sg7
I1291
sa(dp72
g3
I0
sg4
VCharles
p73
sg6
I1326
sg7
I1332
sa(dp74
g3
I0
sg4
VDuBois
p75
sg6
I1334
sg7
I1339
sa(dp76
g3
I0
sg4
VHubert
p77
sg6
I1341
sg7
I1346
sa(dp78
g3
I0
sg4
VMorehouse
p79
sg6
I1393
sg7
I1401
sa(dp80
g3
I0
sg4
VAtlanta.
p81
sg6
I1414
sg7
I1421
sa(dp82
g3
I0
sg4
VRev.
p83
sg6
I1438
sg7
I1441
sa(dp84
g3
I0
sg4
VMarcus
p85
sg6
I1443
sg7
I1448
sa(dp86
g3
I0
sg4
VEmanuel
p87
sg6
I1450
sg7
I1456
sa(dp88
g3
I0
sg4
VCook
p89
sg6
I1458
sg7
I1461
sa(dp90
g3
I0
sg4
VBaptist
p91
sg6
I1469
sg7
I1475
sa(dp92
g3
I0
sg4
VMary
p93
sg6
I1513
sg7
I1516
sa(dp94
g3
I0
sg4
VBeatrice
p95
sg6
I1518
sg7
I1525
sa(dp96
g3
I0
sg4
VDaniel.
p97
sg6
I1527
sg7
I1533
sa(dp98
g3
I0
sg4
VSamuel
p99
sg6
I1564
sg7
I1569
sa(dp100
g3
I0
sg4
VCook
p101
sg6
I1571
sg7
I1574
sa(dp102
g3
I0
sg4
VMartin
p103
sg6
I1591
sg7
I1596
sa(dp104
g3
I0
sg4
VLuther
p105
sg6
I1598
sg7
I1603
sa(dp106
g3
I0
sg4
VKing
p107
sg6
I1605
sg7
I1608
sa(dp108
g3
I0
sg4
VConnecticut
p109
sg6
I1667
sg7
I1677
sa(dp110
g3
I1
sg4
VMorehouse
p111
sg6
I1781
sg7
I1789
sa(dp112
g3
I0
sg4
VWorld
p113
sg6
I1885
sg7
I1889
sa(dp114
g3
I0
sg4
VWar
p115
sg6
I1891
sg7
I1893
sa(dp116
g3
I0
sg4
VII.
p117
sg6
I1895
sg7
I1897
sa(dp118
g3
I0
sg4
VCook
p119
sg6
I1903
sg7
I1906
sa(dp120
g3
I0
sg4
VSylvia
p121
sg6
I1943
sg7
I1948
sa(dp122
g3
I0
sg4
VFields
p123
sg6
I1950
sg7
I1955
sa(dp124
g3
I0
sg4
VSamuel
p125
sg6
I1972
sg7
I1977
sa(dp126
g3
I0
sg4
VKaren
p127
sg6
I1987
sg7
I1991
sa(dp128
g3
I0
sg4
VCook
p129
sg6
I1996
sg7
I1999
sa(dp130
g3
I1
sg4
VMorehouse
p131
sg6
I2086
sg7
I2094
sa(dp132
g3
I0
sg4
VA.A.
p133
sg6
I2173
sg7
I2176
sa(dp134
g3
I0
sg4
VC.P.
p135
sg6
I2178
sg7
I2181
sa(dp136
g3
I0
sg4
VOhio
p137
sg6
I2246
sg7
I2249
sa(dp138
g3
I0
sg4
VState
p139
sg6
I2251
sg7
I2255
sa(dp140
g3
I0
sg4
VUniversity.
p141
sg6
I2257
sg7
I2267
sa(dp142
g3
I0
sg4
VSouthern
p143
sg6
I2282
sg7
I2289
sa(dp144
g3
I0
sg4
VAtlanta
p145
sg6
I2305
sg7
I2311
sa(dp146
g3
I0
sg4
VIllinois
p147
sg6
I2342
sg7
I2349
sa(dp148
g3
I0
sg4
VCalifornia
p149
sg6
I2373
sg7
I2382
sa(dp150
g3
I0
sg4
VLos
p151
sg6
I2384
sg7
I2386
sa(dp152
g3
I0
sg4
VAngeles
p153
sg6
I2388
sg7
I2394
sa(dp154
g3
I1
sg4
VDuke
p155
sg6
I2403
sg7
I2406
sa(dp156
g3
I0
sg4
VSamuel
p157
sg6
I2496
sg7
I2501
sa(dp158
g3
I0
sg4
VDuBois
p159
sg6
I2503
sg7
I2508
sa(dp160
g3
I0
sg4
VCook
p161
sg6
I2510
sg7
I2513
sa(dp162
g3
I0
sg4
VCenter
p163
sg6
I2515
sg7
I2520
sa(dp164
g3
I0
sg4
VSocial
p165
sg6
I2525
sg7
I2530
sa(dp166
g3
I0
sg4
VEquity.
p167
sg6
I2532
sg7
I2538
sasI2
(lp168
(dp169
g3
I0
sg4
VSamuel DuBois
p170
sg6
I198
sg7
I210
sa(dp171
g3
I0
sg4
VDuBois Cook
p172
sg6
I205
sg7
I215
sa(dp173
g3
I0
sg4
VMartin Luther
p174
sg6
I454
sg7
I466
sa(dp175
g3
I0
sg4
VLuther King
p176
sg6
I461
sg7
I471
sa(dp177
g3
I1
sg4
VDuke University
p178
sg6
I515
sg7
I529
sa(dp179
g3
I1
sg4
VDillard University
p180
sg6
I623
sg7
I640
sa(dp181
g3
I0
sg4
VNew Orleans.
p182
sg6
I678
sg7
I689
sa(dp183
g3
I0
sg4
VDurham N.
p184
sg6
I954
sg7
I962
sa(dp185
g3
I0
sg4
VN. C.
p186
sg6
I961
sg7
I965
sa(dp187
g3
I0
sg4
VSouthern Political
p188
sg6
I1090
sg7
I1107
sa(dp189
g3
I0
sg4
VPolitical Science
p190
sg6
I1099
sg7
I1115
sa(dp191
g3
I0
sg4
VScience Association.
p192
sg6
I1109
sg7
I1128
sa(dp193
g3
I0
sg4
VPresident Jimmy
p194
sg6
I1130
sg7
I1144
sa(dp195
g3
I0
sg4
VJimmy Carter
p196
sg6
I1140
sg7
I1151
sa(dp197
g3
I0
sg4
VNational Council
p198
sg6
I1176
sg7
I1191
sa(dp199
g3
I0
sg4
VGriffin Ga.
p200
sg6
I1249
sg7
I1259
sa(dp201
g3
I0
sg4
VCharles DuBois
p202
sg6
I1326
sg7
I1339
sa(dp203
g3
I0
sg4
VDuBois Hubert
p204
sg6
I1334
sg7
I1346
sa(dp205
g3
I1
sg4
VMorehouse College
p206
sg6
I1393
sg7
I1409
sa(dp207
g3
I0
sg4
VMarcus Emanuel
p208
sg6
I1443
sg7
I1456
sa(dp209
g3
I0
sg4
VEmanuel Cook
p210
sg6
I1450
sg7
I1461
sa(dp211
g3
I0
sg4
VMary Beatrice
p212
sg6
I1513
sg7
I1525
sa(dp213
g3
I0
sg4
VBeatrice Daniel.
p214
sg6
I1518
sg7
I1533
sa(dp215
g3
I0
sg4
VSamuel Cook
p216
sg6
I1564
sg7
I1574
sa(dp217
g3
I0
sg4
VMartin Luther
p218
sg6
I1591
sg7
I1603
sa(dp219
g3
I0
sg4
VLuther King
p220
sg6
I1598
sg7
I1608
sa(dp221
g3
I0
sg4
VWorld War
p222
sg6
I1885
sg7
I1893
sa(dp223
g3
I0
sg4
VWar II.
p224
sg6
I1891
sg7
I1897
sa(dp225
g3
I0
sg4
VSylvia Fields
p226
sg6
I1943
sg7
I1955
sa(dp227
g3
I0
sg4
VKaren J.
p228
sg6
I1987
sg7
I1994
sa(dp229
g3
I0
sg4
VJ. Cook
p230
sg6
I1993
sg7
I1999
sa(dp231
g3
I0
sg4
VN. A.A.
p232
sg6
I2170
sg7
I2176
sa(dp233
g3
I0
sg4
VA.A. C.P.
p234
sg6
I2173
sg7
I2181
sa(dp235
g3
I0
sg4
VOhio State
p236
sg6
I2246
sg7
I2255
sa(dp237
g3
I0
sg4
VState University.
p238
sg6
I2251
sg7
I2267
sa(dp239
g3
I1
sg4
VSouthern University
p240
sg6
I2282
sg7
I2300
sa(dp241
g3
I1
sg4
VAtlanta University
p242
sg6
I2305
sg7
I2322
sa(dp243
g3
I0
sg4
VCalifornia Los
p244
sg6
I2373
sg7
I2386
sa(dp245
g3
I0
sg4
VLos Angeles
p246
sg6
I2384
sg7
I2394
sa(dp247
g3
I0
sg4
VSamuel DuBois
p248
sg6
I2496
sg7
I2508
sa(dp249
g3
I0
sg4
VDuBois Cook
p250
sg6
I2503
sg7
I2513
sa(dp251
g3
I0
sg4
VCook Center
p252
sg6
I2510
sg7
I2520
sa(dp253
g3
I0
sg4
VSocial Equity.
p254
sg6
I2525
sg7
I2538
sasI3
(lp255
(dp256
g3
I0
sg4
VSamuel DuBois Cook
p257
sg6
I198
sg7
I215
sa(dp258
g3
I0
sg4
VMartin Luther King
p259
sg6
I454
sg7
I471
sa(dp260
g3
I0
sg4
VDurham N. C.
p261
sg6
I954
sg7
I965
sa(dp262
g3
I0
sg4
VSouthern Political Science
p263
sg6
I1090
sg7
I1115
sa(dp264
g3
I0
sg4
VPolitical Science Association.
p265
sg6
I1099
sg7
I1128
sa(dp266
g3
I0
sg4
VPresident Jimmy Carter
p267
sg6
I1130
sg7
I1151
sa(dp268
g3
I0
sg4
VCharles DuBois Hubert
p269
sg6
I1326
sg7
I1346
sa(dp270
g3
I0
sg4
VMarcus Emanuel Cook
p271
sg6
I1443
sg7
I1461
sa(dp272
g3
I0
sg4
VMary Beatrice Daniel.
p273
sg6
I1513
sg7
I1533
sa(dp274
g3
I0
sg4
VMartin Luther King
p275
sg6
I1591
sg7
I1608
sa(dp276
g3
I0
sg4
VWorld War II.
p277
sg6
I1885
sg7
I1897
sa(dp278
g3
I0
sg4
VKaren J. Cook
p279
sg6
I1987
sg7
I1999
sa(dp280
g3
I0
sg4
VN. A.A. C.P.
p281
sg6
I2170
sg7
I2181
sa(dp282
g3
I1
sg4
VOhio State University.
p283
sg6
I2246
sg7
I2267
sa(dp284
g3
I1
sg4
VUniversity of Illinois
p285
sg6
I2328
sg7
I2349
sa(dp286
g3
I0
sg4
VUniversity of California
p287
sg6
I2359
sg7
I2382
sa(dp288
g3
I0
sg4
VCalifornia Los Angeles
p289
sg6
I2373
sg7
I2394
sa(dp290
g3
I0
sg4
VSamuel DuBois Cook
p291
sg6
I2496
sg7
I2513
sa(dp292
g3
I0
sg4
VDuBois Cook Center
p293
sg6
I2503
sg7
I2520
sasI4
(lp294
(dp295
g3
I0
sg4
VSouthern Political Science Association.
p296
sg6
I1090
sg7
I1128
sa(dp297
g3
I0
sg4
VUniversity of California Los
p298
sg6
I2359
sg7
I2386
sa(dp299
g3
I0
sg4
VSamuel DuBois Cook Center
p300
sg6
I2496
sg7
I2520
sasI5
(lp301
(dp302
g3
I1
sg4
VUniversity of California Los Angeles
p303
sg6
I2359
sg7
I2394
sasI6
(lp304
s.