(dp0
I1
(lp1
(dp2
S'label'
p3
I0
sS'string'
p4
VCook
p5
sS'start_index'
p6
I4
sS'end_index'
p7
I7
sa(dp8
g3
I1
sg4
VDuke
p9
sg6
I20
sg7
I23
sa(dp10
g3
I0
sg4
VWorld
p11
sg6
I183
sg7
I187
sa(dp12
g3
I0
sg4
VWar
p13
sg6
I189
sg7
I191
sa(dp14
g3
I0
sg4
VSouthern
p15
sg6
I196
sg7
I203
sa(dp16
g3
I0
sg4
VWilliam
p17
sg6
I219
sg7
I225
sa(dp18
g3
I0
sg4
VDarity
p19
sg6
I230
sg7
I235
sa(dp20
g3
I0
sg4
VSamuel
p21
sg6
I245
sg7
I250
sa(dp22
g3
I0
sg4
VDuBois
p23
sg6
I252
sg7
I257
sa(dp24
g3
I0
sg4
VCook
p25
sg6
I259
sg7
I262
sa(dp26
g3
I1
sg4
VDuke.
p27
sg6
I294
sg7
I298
sa(dp28
g3
I0
sg4
VRepublican
p29
sg6
I345
sg7
I354
sa(dp30
g3
I0
sg4
VParty
p31
sg6
I356
sg7
I360
sa(dp32
g3
I0
sg4
VSouth
p33
sg6
I369
sg7
I373
sasI2
(lp34
(dp35
g3
I0
sg4
VWorld War
p36
sg6
I183
sg7
I191
sa(dp37
g3
I0
sg4
VWar II
p38
sg6
I189
sg7
I194
sa(dp39
g3
I0
sg4
VII Southern
p40
sg6
I193
sg7
I203
sa(dp41
g3
I0
sg4
VWilliam A.
p42
sg6
I219
sg7
I228
sa(dp43
g3
I0
sg4
VA. Darity
p44
sg6
I227
sg7
I235
sa(dp45
g3
I0
sg4
VSamuel DuBois
p46
sg6
I245
sg7
I257
sa(dp47
g3
I0
sg4
VDuBois Cook
p48
sg6
I252
sg7
I262
sa(dp49
g3
I0
sg4
VRepublican Party
p50
sg6
I345
sg7
I360
sasI3
(lp51
(dp52
g3
I0
sg4
VWorld War II
p53
sg6
I183
sg7
I194
sa(dp54
g3
I0
sg4
VWar II Southern
p55
sg6
I189
sg7
I203
sa(dp56
g3
I0
sg4
VWilliam A. Darity
p57
sg6
I219
sg7
I235
sa(dp58
g3
I0
sg4
VSamuel DuBois Cook
p59
sg6
I245
sg7
I262
sasI4
(lp60
(dp61
g3
I0
sg4
VWorld War II Southern
p62
sg6
I183
sg7
I203
sasI5
(lp63
sI6
(lp64
s.