(dp0
I1
(lp1
(dp2
S'label'
p3
I0
sS'string'
p4
VYermack
p5
sS'start_index'
p6
I17
sS'end_index'
p7
I23
sa(dp8
g3
I0
sg4
VNew
p9
sg6
I59
sg7
I61
sa(dp10
g3
I0
sg4
VYork
p11
sg6
I63
sg7
I66
sa(dp12
g3
I0
sg4
VStern
p13
sg6
I81
sg7
I85
sa(dp14
g3
I0
sg4
VBusiness.
p15
sg6
I97
sg7
I105
sa(dp16
g3
I0
sg4
VRegulators
p17
sg6
I253
sg7
I262
sa(dp18
g3
I0
sg4
VBitcoin
p19
sg6
I536
sg7
I542
sa(dp20
g3
I1
sg4
VBerkeley
p21
sg6
I643
sg7
I650
sa(dp22
g3
I0
sg4
VBitcoin
p23
sg6
I700
sg7
I706
sa(dp24
g3
I0
sg4
VBitcoin.
p25
sg6
I869
sg7
I876
sa(dp26
g3
I0
sg4
VBitcoin
p27
sg6
I878
sg7
I884
sasI2
(lp28
(dp29
g3
I0
sg4
VNew York
p30
sg6
I59
sg7
I66
sa(dp31
g3
I0
sg4
VYork University
p32
sg6
I63
sg7
I77
sa(dp33
g3
I0
sg4
VStern School
p34
sg6
I81
sg7
I92
sasI3
(lp35
(dp36
g3
I1
sg4
VNew York University
p37
sg6
I59
sg7
I77
sa(dp38
g3
I0
sg4
VSchool of Business.
p39
sg6
I87
sg7
I105
sasI4
(lp40
(dp41
g3
I1
sg4
VStern School of Business.
p42
sg6
I81
sg7
I105
sasI5
(lp43
sI6
(lp44
s.