(dp0
I1
(lp1
(dp2
S'label'
p3
I0
sS'string'
p4
VCook
p5
sS'start_index'
p6
I73
sS'end_index'
p7
I76
sa(dp8
g3
I0
sg4
VDuke
p9
sg6
I91
sg7
I94
sa(dp10
g3
I0
sg4
VUniversity.
p11
sg6
I96
sg7
I106
sa(dp12
g3
I0
sg4
VCity
p13
sg6
I164
sg7
I167
sa(dp14
g3
I0
sg4
VNew
p15
sg6
I183
sg7
I185
sa(dp16
g3
I0
sg4
VYork
p17
sg6
I187
sg7
I190
sa(dp18
g3
I1
sg4
VCUNY
p19
sg6
I401
sg7
I404
sa(dp20
g3
I0
sg4
VNew
p21
sg6
I656
sg7
I658
sa(dp22
g3
I0
sg4
VYork
p23
sg6
I660
sg7
I663
sa(dp24
g3
I0
sg4
VTimes
p25
sg6
I665
sg7
I669
sa(dp26
g3
I0
sg4
VBrooklyn
p27
sg6
I763
sg7
I770
sa(dp28
g3
I1
sg4
VCUNY
p29
sg6
I812
sg7
I815
sa(dp30
g3
I0
sg4
VCity
p31
sg6
I863
sg7
I866
sa(dp32
g3
I0
sg4
VNew
p33
sg6
I879
sg7
I881
sa(dp34
g3
I0
sg4
VYork
p35
sg6
I883
sg7
I886
sa(dp36
g3
I0
sg4
VCity
p37
sg6
I1013
sg7
I1016
sa(dp38
g3
I0
sg4
VLisa
p39
sg6
I1026
sg7
I1029
sa(dp40
g3
I0
sg4
VCoico
p41
sg6
I1034
sg7
I1038
sa(dp42
g3
I0
sg4
VNew
p43
sg6
I1079
sg7
I1081
sa(dp44
g3
I0
sg4
VYork
p45
sg6
I1083
sg7
I1086
sa(dp46
g3
I0
sg4
VTimes
p47
sg6
I1088
sg7
I1092
sa(dp48
g3
I1
sg4
VCUNY
p49
sg6
I1215
sg7
I1218
sa(dp50
g3
I0
sg4
VResearch
p51
sg6
I1220
sg7
I1227
sa(dp52
g3
I0
sg4
VFoundation.
p53
sg6
I1229
sg7
I1239
sasI2
(lp54
(dp55
g3
I1
sg4
VDuke University.
p56
sg6
I91
sg7
I106
sa(dp57
g3
I0
sg4
VCity University
p58
sg6
I164
sg7
I178
sa(dp59
g3
I0
sg4
VNew York
p60
sg6
I183
sg7
I190
sa(dp61
g3
I0
sg4
VNew York
p62
sg6
I656
sg7
I663
sa(dp63
g3
I0
sg4
VYork Times
p64
sg6
I660
sg7
I669
sa(dp65
g3
I0
sg4
VCity College
p66
sg6
I863
sg7
I874
sa(dp67
g3
I0
sg4
VNew York
p68
sg6
I879
sg7
I886
sa(dp69
g3
I0
sg4
VCity College
p70
sg6
I1013
sg7
I1024
sa(dp71
g3
I0
sg4
VCollege Lisa
p72
sg6
I1018
sg7
I1029
sa(dp73
g3
I0
sg4
VLisa S.
p74
sg6
I1026
sg7
I1032
sa(dp75
g3
I0
sg4
VS. Coico
p76
sg6
I1031
sg7
I1038
sa(dp77
g3
I0
sg4
VNew York
p78
sg6
I1079
sg7
I1086
sa(dp79
g3
I0
sg4
VYork Times
p80
sg6
I1083
sg7
I1092
sa(dp81
g3
I0
sg4
VCUNY Research
p82
sg6
I1215
sg7
I1227
sa(dp83
g3
I0
sg4
VResearch Foundation.
p84
sg6
I1220
sg7
I1239
sasI3
(lp85
(dp86
g3
I0
sg4
VUniversity of New
p87
sg6
I169
sg7
I185
sa(dp88
g3
I0
sg4
VNew York Times
p89
sg6
I656
sg7
I669
sa(dp90
g3
I0
sg4
VCollege of New
p91
sg6
I868
sg7
I881
sa(dp92
g3
I0
sg4
VCity College Lisa
p93
sg6
I1013
sg7
I1029
sa(dp94
g3
I0
sg4
VCollege Lisa S.
p95
sg6
I1018
sg7
I1032
sa(dp96
g3
I0
sg4
VLisa S. Coico
p97
sg6
I1026
sg7
I1038
sa(dp98
g3
I0
sg4
VNew York Times
p99
sg6
I1079
sg7
I1092
sa(dp100
g3
I0
sg4
VCUNY Research Foundation.
p101
sg6
I1215
sg7
I1239
sasI4
(lp102
(dp103
g3
I0
sg4
VCity University of New
p104
sg6
I164
sg7
I185
sa(dp105
g3
I0
sg4
VUniversity of New York
p106
sg6
I169
sg7
I190
sa(dp107
g3
I0
sg4
VCity College of New
p108
sg6
I863
sg7
I881
sa(dp109
g3
I0
sg4
VCollege of New York
p110
sg6
I868
sg7
I886
sa(dp111
g3
I0
sg4
VCity College Lisa S.
p112
sg6
I1013
sg7
I1032
sa(dp113
g3
I0
sg4
VCollege Lisa S. Coico
p114
sg6
I1018
sg7
I1038
sasI5
(lp115
(dp116
g3
I1
sg4
VCity University of New York
p117
sg6
I164
sg7
I190
sa(dp118
g3
I1
sg4
VCity College of New York
p119
sg6
I863
sg7
I886
sa(dp120
g3
I0
sg4
VCity College Lisa S. Coico
p121
sg6
I1013
sg7
I1038
sasI6
(lp122
s.