(dp0
I1
(lp1
(dp2
S'label'
p3
I0
sS'string'
p4
VDonations
p5
sS'start_index'
p6
I0
sS'end_index'
p7
I8
sa(dp8
g3
I0
sg4
VCity
p9
sg6
I13
sg7
I16
sa(dp10
g3
I0
sg4
VCentury
p11
sg6
I59
sg7
I65
sa(dp12
g3
I0
sg4
VFoundation
p13
sg6
I67
sg7
I76
sa(dp14
g3
I1
sg4
VCUNY
p15
sg6
I369
sg7
I372
sa(dp16
g3
I0
sg4
VGov.
p17
sg6
I421
sg7
I424
sa(dp18
g3
I0
sg4
VAndrew
p19
sg6
I426
sg7
I431
sa(dp20
g3
I0
sg4
VCuomo
p21
sg6
I436
sg7
I440
sa(dp22
g3
I0
sg4
VJames
p23
sg6
I543
sg7
I547
sa(dp24
g3
I0
sg4
VMilliken
p25
sg6
I552
sg7
I559
sa(dp26
g3
I1
sg4
VCUNY
p27
sg6
I561
sg7
I564
sa(dp28
g3
I1
sg4
VCUNY
p29
sg6
I869
sg7
I872
sa(dp30
g3
I0
sg4
VUnited
p31
sg6
I927
sg7
I932
sa(dp32
g3
I0
sg4
VStates
p33
sg6
I934
sg7
I939
sa(dp34
g3
I0
sg4
VEastern
p35
sg6
I958
sg7
I964
sa(dp36
g3
I0
sg4
VDistrict
p37
sg6
I966
sg7
I973
sa(dp38
g3
I0
sg4
VNew
p39
sg6
I978
sg7
I980
sa(dp40
g3
I0
sg4
VYork
p41
sg6
I982
sg7
I985
sa(dp42
g3
I0
sg4
VNew
p43
sg6
I1008
sg7
I1010
sa(dp44
g3
I0
sg4
VYork
p45
sg6
I1012
sg7
I1015
sa(dp46
g3
I0
sg4
VState
p47
sg6
I1017
sg7
I1021
sa(dp48
g3
I1
sg4
VCUNY
p49
sg6
I1500
sg7
I1503
sa(dp50
g3
I0
sg4
VEvery
p51
sg6
I1826
sg7
I1830
sa(dp52
g3
I0
sg4
VCity
p53
sg6
I2081
sg7
I2084
sa(dp54
g3
I0
sg4
VFund
p55
sg6
I2094
sg7
I2097
sa(dp56
g3
I1
sg4
VCUNY
p57
sg6
I2185
sg7
I2188
sa(dp58
g3
I0
sg4
VNew
p59
sg6
I2362
sg7
I2364
sa(dp60
g3
I0
sg4
VYork
p61
sg6
I2366
sg7
I2369
sa(dp62
g3
I1
sg4
VCUNY
p63
sg6
I2464
sg7
I2467
sasI2
(lp64
(dp65
g3
I0
sg4
VCity College
p66
sg6
I13
sg7
I24
sa(dp67
g3
I0
sg4
VCentury Foundation
p68
sg6
I59
sg7
I76
sa(dp69
g3
I0
sg4
VAndrew M.
p70
sg6
I426
sg7
I434
sa(dp71
g3
I0
sg4
VM. Cuomo
p72
sg6
I433
sg7
I440
sa(dp73
g3
I0
sg4
VJames B.
p74
sg6
I543
sg7
I550
sa(dp75
g3
I0
sg4
VB. Milliken
p76
sg6
I549
sg7
I559
sa(dp77
g3
I0
sg4
VMilliken CUNY
p78
sg6
I552
sg7
I564
sa(dp79
g3
I0
sg4
VUnited States
p80
sg6
I927
sg7
I939
sa(dp81
g3
I0
sg4
VEastern District
p82
sg6
I958
sg7
I973
sa(dp83
g3
I0
sg4
VNew York
p84
sg6
I978
sg7
I985
sa(dp85
g3
I0
sg4
VNew York
p86
sg6
I1008
sg7
I1015
sa(dp87
g3
I0
sg4
VYork State
p88
sg6
I1012
sg7
I1021
sa(dp89
g3
I0
sg4
VI. G.
p90
sg6
I1322
sg7
I1326
sa(dp91
g3
I0
sg4
VCity College
p92
sg6
I2081
sg7
I2092
sa(dp93
g3
I0
sg4
VCollege Fund
p94
sg6
I2086
sg7
I2097
sa(dp95
g3
I0
sg4
VNew York
p96
sg6
I2362
sg7
I2369
sasI3
(lp97
(dp98
g3
I0
sg4
VAndrew M. Cuomo
p99
sg6
I426
sg7
I440
sa(dp100
g3
I0
sg4
VJames B. Milliken
p101
sg6
I543
sg7
I559
sa(dp102
g3
I0
sg4
VB. Milliken CUNY
p103
sg6
I549
sg7
I564
sa(dp104
g3
I0
sg4
VDistrict of New
p105
sg6
I966
sg7
I980
sa(dp106
g3
I0
sg4
VNew York State
p107
sg6
I1008
sg7
I1021
sa(dp108
g3
I0
sg4
VCity College Fund
p109
sg6
I2081
sg7
I2097
sasI4
(lp110
(dp111
g3
I0
sg4
VJames B. Milliken CUNY
p112
sg6
I543
sg7
I564
sa(dp113
g3
I0
sg4
VEastern District of New
p114
sg6
I958
sg7
I980
sa(dp115
g3
I0
sg4
VDistrict of New York
p116
sg6
I966
sg7
I985
sasI5
(lp117
(dp118
g3
I0
sg4
VEastern District of New York
p119
sg6
I958
sg7
I985
sasI6
(lp120
s.