(dp0
I1
(lp1
(dp2
S'label'
p3
I1
sS'string'
p4
VCUNY
p5
sS'start_index'
p6
I20
sS'end_index'
p7
I23
sa(dp8
g3
I0
sg4
VCuomo
p9
sg6
I253
sg7
I257
sa(dp10
g3
I1
sg4
VCUNY
p11
sg6
I300
sg7
I303
sa(dp12
g3
I0
sg4
VExcelsior
p13
sg6
I415
sg7
I423
sa(dp14
g3
I0
sg4
VNew
p15
sg6
I464
sg7
I466
sa(dp16
g3
I0
sg4
VYork
p17
sg6
I468
sg7
I471
sa(dp18
g3
I0
sg4
VApplications
p19
sg6
I580
sg7
I591
sa(dp20
g3
I0
sg4
VExcelsior
p21
sg6
I601
sg7
I609
sa(dp22
g3
I0
sg4
VWednesday.
p23
sg6
I633
sg7
I642
sa(dp24
g3
I0
sg4
VCoico
p25
sg6
I654
sg7
I658
sa(dp26
g3
I0
sg4
VWilliam
p27
sg6
I685
sg7
I691
sa(dp28
g3
I0
sg4
VThompson
p29
sg6
I696
sg7
I703
sa(dp30
g3
I1
sg4
VCUNY
p31
sg6
I725
sg7
I728
sa(dp32
g3
I0
sg4
VBoard
p33
sg6
I732
sg7
I736
sa(dp34
g3
I0
sg4
VTrustees
p35
sg6
I741
sg7
I748
sa(dp36
g3
I0
sg4
VNew
p37
sg6
I763
sg7
I765
sa(dp38
g3
I0
sg4
VYork
p39
sg6
I767
sg7
I770
sa(dp40
g3
I0
sg4
VCity
p41
sg6
I772
sg7
I775
sa(dp42
g3
I0
sg4
VCatherine
p43
sg6
I927
sg7
I935
sa(dp44
g3
I0
sg4
VLeahy
p45
sg6
I937
sg7
I941
sa(dp46
g3
I0
sg4
VScott
p47
sg6
I943
sg7
I947
sa(dp48
g3
I0
sg4
VNew
p49
sg6
I953
sg7
I955
sa(dp50
g3
I0
sg4
VYork
p51
sg6
I957
sg7
I960
sa(dp52
g3
I0
sg4
VState
p53
sg6
I962
sg7
I966
sa(dp54
g3
I0
sg4
VCuomo
p55
sg6
I1095
sg7
I1099
sa(dp56
g3
I0
sg4
VCuomo
p57
sg6
I1133
sg7
I1137
sa(dp58
g3
I0
sg4
VMax
p59
sg6
I1424
sg7
I1426
sa(dp60
g3
I0
sg4
VBerger
p61
sg6
I1428
sg7
I1433
sa(dp62
g3
I0
sg4
VBaruch
p63
sg6
I1451
sg7
I1456
sa(dp64
g3
I0
sg4
VFund
p65
sg6
I1466
sg7
I1469
sa(dp66
g3
I1
sg4
VCUNY
p67
sg6
I1478
sg7
I1481
sa(dp68
g3
I1
sg4
VCUNY
p69
sg6
I1572
sg7
I1575
sa(dp70
g3
I1
sg4
VCUNY
p71
sg6
I1733
sg7
I1736
sa(dp72
g3
I0
sg4
VResearchers
p73
sg6
I1983
sg7
I1993
sa(dp74
g3
I0
sg4
VPrinceton
p75
sg6
I2201
sg7
I2209
sa(dp76
g3
I0
sg4
VCalifornia
p77
sg6
I2244
sg7
I2253
sa(dp78
g3
I0
sg4
VLos
p79
sg6
I2255
sg7
I2257
sa(dp80
g3
I0
sg4
VAngeles
p81
sg6
I2259
sg7
I2265
sa(dp82
g3
I0
sg4
VIndeed
p83
sg6
I2843
sg7
I2848
sa(dp84
g3
I0
sg4
VWhy
p85
sg6
I3207
sg7
I3209
sa(dp86
g3
I0
sg4
VYork
p87
sg6
I3448
sg7
I3451
sa(dp88
g3
I0
sg4
VMcMaster
p89
sg6
I3468
sg7
I3475
sa(dp90
g3
I0
sg4
VCanada
p91
sg6
I3491
sg7
I3496
sasI2
(lp92
(dp93
g3
I0
sg4
VNew York
p94
sg6
I464
sg7
I471
sa(dp95
g3
I0
sg4
VWilliam C.
p96
sg6
I685
sg7
I694
sa(dp97
g3
I0
sg4
VC. Thompson
p98
sg6
I693
sg7
I703
sa(dp99
g3
I0
sg4
VNew York
p100
sg6
I763
sg7
I770
sa(dp101
g3
I0
sg4
VYork City
p102
sg6
I767
sg7
I775
sa(dp103
g3
I0
sg4
VCatherine Leahy
p104
sg6
I927
sg7
I941
sa(dp105
g3
I0
sg4
VLeahy Scott
p106
sg6
I937
sg7
I947
sa(dp107
g3
I0
sg4
VNew York
p108
sg6
I953
sg7
I960
sa(dp109
g3
I0
sg4
VYork State
p110
sg6
I957
sg7
I966
sa(dp111
g3
I0
sg4
VMax Berger
p112
sg6
I1424
sg7
I1433
sa(dp113
g3
I0
sg4
VBaruch College
p114
sg6
I1451
sg7
I1464
sa(dp115
g3
I0
sg4
VCollege Fund
p116
sg6
I1458
sg7
I1469
sa(dp117
g3
I1
sg4
VPrinceton University
p118
sg6
I2201
sg7
I2220
sa(dp119
g3
I0
sg4
VCalifornia Los
p120
sg6
I2244
sg7
I2257
sa(dp121
g3
I0
sg4
VLos Angeles
p122
sg6
I2255
sg7
I2265
sa(dp123
g3
I1
sg4
VYork University
p124
sg6
I3448
sg7
I3462
sa(dp125
g3
I1
sg4
VMcMaster University
p126
sg6
I3468
sg7
I3486
sasI3
(lp127
(dp128
g3
I0
sg4
VWilliam C. Thompson
p129
sg6
I685
sg7
I703
sa(dp130
g3
I0
sg4
VBoard of Trustees
p131
sg6
I732
sg7
I748
sa(dp132
g3
I0
sg4
VNew York City
p133
sg6
I763
sg7
I775
sa(dp134
g3
I0
sg4
VCatherine Leahy Scott
p135
sg6
I927
sg7
I947
sa(dp136
g3
I0
sg4
VNew York State
p137
sg6
I953
sg7
I966
sa(dp138
g3
I1
sg4
VBaruch College Fund
p139
sg6
I1451
sg7
I1469
sa(dp140
g3
I0
sg4
VUniversity of California
p141
sg6
I2230
sg7
I2253
sa(dp142
g3
I0
sg4
VCalifornia Los Angeles
p143
sg6
I2244
sg7
I2265
sa(dp144
g3
I0
sg4
VUniversity and McMaster
p145
sg6
I3453
sg7
I3475
sasI4
(lp146
(dp147
g3
I0
sg4
VUniversity of California Los
p148
sg6
I2230
sg7
I2257
sa(dp149
g3
I0
sg4
VYork University and McMaster
p150
sg6
I3448
sg7
I3475
sasI5
(lp151
(dp152
g3
I1
sg4
VUniversity of California Los Angeles
p153
sg6
I2230
sg7
I2265
sasI6
(lp154
s.