(dp0
I1
(lp1
(dp2
S'label'
p3
I0
sS'string'
p4
VEditor
p5
sS'start_index'
p6
I7
sS'end_index'
p7
I12
sa(dp8
g3
I0
sg4
VOdd
p9
sg6
I20
sg7
I22
sa(dp10
g3
I0
sg4
VCouple
p11
sg6
I24
sg7
I29
sa(dp12
g3
I0
sg4
VPushing
p13
sg6
I34
sg7
I40
sa(dp14
g3
I0
sg4
VRon
p15
sg6
I70
sg7
I72
sa(dp16
g3
I0
sg4
VLieber
p17
sg6
I74
sg7
I79
sa(dp18
g3
I0
sg4
VMoney
p19
sg6
I86
sg7
I90
sa(dp20
g3
I0
sg4
VOct.
p21
sg6
I99
sg7
I102
sa(dp22
g3
I0
sg4
VTens
p23
sg6
I388
sg7
I391
sa(dp24
g3
I0
sg4
VAmericans
p25
sg6
I408
sg7
I416
sa(dp26
g3
I0
sg4
VROBERT
p27
sg6
I870
sg7
I875
sa(dp28
g3
I0
sg4
VCARR
p29
sg6
I880
sg7
I883
sa(dp30
g3
I1
sg4
VPRINCETON
p31
sg6
I885
sg7
I893
sa(dp32
g3
I0
sg4
VJ.The
p33
sg6
I898
sg7
I902
sa(dp34
g3
I0
sg4
VGive
p35
sg6
I946
sg7
I949
sa(dp36
g3
I0
sg4
VBack
p37
sg6
I961
sg7
I964
sa(dp38
g3
I0
sg4
VWorking
p39
sg6
I1005
sg7
I1011
sa(dp40
g3
I0
sg4
VClass
p41
sg6
I1013
sg7
I1017
sa(dp42
g3
I0
sg4
VCollege.
p43
sg6
I1022
sg7
I1029
sa(dp44
g3
I0
sg4
VEarlier
p45
sg6
I1031
sg7
I1037
sa(dp46
g3
I0
sg4
VHarvard
p47
sg6
I1049
sg7
I1055
sa(dp48
g3
I0
sg4
VFacebook
p49
sg6
I1208
sg7
I1215
sa(dp50
g3
I0
sg4
VHolocaust
p51
sg6
I1329
sg7
I1337
sa(dp52
g3
I0
sg4
VSharing
p53
sg6
I1823
sg7
I1829
sa(dp54
g3
I0
sg4
VSilicon
p55
sg6
I2309
sg7
I2315
sa(dp56
g3
I0
sg4
VValley
p57
sg6
I2317
sg7
I2322
sa(dp58
g3
I0
sg4
VInstagram
p59
sg6
I2369
sg7
I2377
sa(dp60
g3
I0
sg4
VInstagram
p61
sg6
I2459
sg7
I2467
sasI2
(lp62
(dp63
g3
I0
sg4
VEditor Re
p64
sg6
I7
sg7
I15
sa(dp65
g3
I0
sg4
VOdd Couple
p66
sg6
I20
sg7
I29
sa(dp67
g3
I0
sg4
VRon Lieber
p68
sg6
I70
sg7
I79
sa(dp69
g3
I0
sg4
VROBERT O.
p70
sg6
I870
sg7
I878
sa(dp71
g3
I0
sg4
VO. CARR
p72
sg6
I877
sg7
I883
sa(dp73
g3
I0
sg4
VCARR PRINCETON
p74
sg6
I880
sg7
I893
sa(dp75
g3
I0
sg4
VPRINCETON N.
p76
sg6
I885
sg7
I896
sa(dp77
g3
I0
sg4
VN. J.The
p78
sg6
I895
sg7
I902
sa(dp79
g3
I0
sg4
VWorking Class
p80
sg6
I1005
sg7
I1017
sa(dp81
g3
I1
sg4
VHarvard University
p82
sg6
I1049
sg7
I1066
sa(dp83
g3
I0
sg4
VSilicon Valley
p84
sg6
I2309
sg7
I2322
sasI3
(lp85
(dp86
g3
I0
sg4
VROBERT O. CARR
p87
sg6
I870
sg7
I883
sa(dp88
g3
I0
sg4
VO. CARR PRINCETON
p89
sg6
I877
sg7
I893
sa(dp90
g3
I0
sg4
VCARR PRINCETON N.
p91
sg6
I880
sg7
I896
sa(dp92
g3
I0
sg4
VPRINCETON N. J.The
p93
sg6
I885
sg7
I902
sasI4
(lp94
(dp95
g3
I0
sg4
VROBERT O. CARR PRINCETON
p96
sg6
I870
sg7
I893
sa(dp97
g3
I0
sg4
VO. CARR PRINCETON N.
p98
sg6
I877
sg7
I896
sa(dp99
g3
I0
sg4
VCARR PRINCETON N. J.The
p100
sg6
I880
sg7
I902
sasI5
(lp101
(dp102
g3
I0
sg4
VROBERT O. CARR PRINCETON N.
p103
sg6
I870
sg7
I896
sa(dp104
g3
I0
sg4
VO. CARR PRINCETON N. J.The
p105
sg6
I877
sg7
I902
sasI6
(lp106
(dp107
g3
I0
sg4
VROBERT O. CARR PRINCETON N. J.The
p108
sg6
I870
sg7
I902
sas.