(dp0
I1
(lp1
(dp2
S'label'
p3
I0
sS'string'
p4
VClosed
p5
sS'start_index'
p6
I182
sS'end_index'
p7
I187
sa(dp8
g3
I0
sg4
VFacebook
p9
sg6
I200
sg7
I207
sa(dp10
g3
I0
sg4
VSecret
p11
sg6
I398
sg7
I403
sa(dp12
g3
I0
sg4
VFacebook
p13
sg6
I405
sg7
I412
sa(dp14
g3
I0
sg4
VAnother
p15
sg6
I501
sg7
I507
sa(dp16
g3
I0
sg4
VCalculator
p17
sg6
I542
sg7
I551
sa(dp18
g3
I0
sg4
VCalculator
p19
sg6
I557
sg7
I566
sa(dp20
g3
I0
sg4
VAlso
p21
sg6
I703
sg7
I706
sa(dp22
g3
I0
sg4
VVaulty
p23
sg6
I759
sg7
I764
sa(dp24
g3
I0
sg4
VVaulty
p25
sg6
I930
sg7
I935
sa(dp26
g3
I0
sg4
VUsers
p27
sg6
I957
sg7
I961
sa(dp28
g3
I0
sg4
VParents
p29
sg6
I1212
sg7
I1218
sa(dp30
g3
I1
sg4
VHarvard
p31
sg6
I1922
sg7
I1928
sa(dp32
g3
I0
sg4
VTeens
p33
sg6
I2345
sg7
I2349
sa(dp34
g3
I0
sg4
VCalifornia
p35
sg6
I3029
sg7
I3038
sa(dp36
g3
I0
sg4
VLos
p37
sg6
I3040
sg7
I3042
sa(dp38
g3
I0
sg4
VAngeles
p39
sg6
I3044
sg7
I3050
sa(dp40
g3
I0
sg4
VTeens
p41
sg6
I3522
sg7
I3526
sa(dp42
g3
I0
sg4
VCommon
p43
sg6
I3829
sg7
I3834
sa(dp44
g3
I0
sg4
VSense
p45
sg6
I3836
sg7
I3840
sa(dp46
g3
I0
sg4
VMedia
p47
sg6
I3842
sg7
I3846
sa(dp48
g3
I0
sg4
VAdults
p49
sg6
I4121
sg7
I4126
sa(dp50
g3
I0
sg4
VHouse
p51
sg6
I4398
sg7
I4402
sasI2
(lp52
(dp53
g3
I0
sg4
VSecret Facebook
p54
sg6
I398
sg7
I412
sa(dp55
g3
I0
sg4
VCalifornia Los
p56
sg6
I3029
sg7
I3042
sa(dp57
g3
I0
sg4
VLos Angeles
p58
sg6
I3040
sg7
I3050
sa(dp59
g3
I0
sg4
VCommon Sense
p60
sg6
I3829
sg7
I3840
sa(dp61
g3
I0
sg4
VSense Media
p62
sg6
I3836
sg7
I3846
sasI3
(lp63
(dp64
g3
I0
sg4
VUniversity of California
p65
sg6
I3015
sg7
I3038
sa(dp66
g3
I0
sg4
VCalifornia Los Angeles
p67
sg6
I3029
sg7
I3050
sa(dp68
g3
I0
sg4
VCommon Sense Media
p69
sg6
I3829
sg7
I3846
sasI4
(lp70
(dp71
g3
I0
sg4
VUniversity of California Los
p72
sg6
I3015
sg7
I3042
sasI5
(lp73
(dp74
g3
I1
sg4
VUniversity of California Los Angeles
p75
sg6
I3015
sg7
I3050
sasI6
(lp76
s.