(dp0
I1
(lp1
(dp2
S'label'
p3
I0
sS'string'
p4
VAnother
p5
sS'start_index'
p6
I0
sS'end_index'
p7
I6
sa(dp8
g3
I0
sg4
VParents
p9
sg6
I145
sg7
I151
sa(dp10
g3
I1
sg4
VHarvard
p11
sg6
I200
sg7
I206
sa(dp12
g3
I0
sg4
VUsing
p13
sg6
I349
sg7
I353
sa(dp14
g3
I0
sg4
VHelping
p15
sg6
I496
sg7
I502
sa(dp16
g3
I1
sg4
VHarvard
p17
sg6
I757
sg7
I763
sa(dp18
g3
I0
sg4
VNew
p19
sg6
I801
sg7
I803
sa(dp20
g3
I0
sg4
VAmerican
p21
sg6
I815
sg7
I822
sa(dp22
g3
I0
sg4
VCanadian
p23
sg6
I824
sg7
I831
sa(dp24
g3
I0
sg4
VBritish
p25
sg6
I837
sg7
I843
sa(dp26
g3
I0
sg4
VPsychological
p27
sg6
I1047
sg7
I1059
sa(dp28
g3
I0
sg4
VBulletin
p29
sg6
I1061
sg7
I1068
sa(dp30
g3
I0
sg4
VThinking
p31
sg6
I1376
sg7
I1383
sa(dp32
g3
I0
sg4
VMillennials
p33
sg6
I1530
sg7
I1540
sa(dp34
g3
I0
sg4
VThomas
p35
sg6
I1662
sg7
I1667
sa(dp36
g3
I0
sg4
VCurran
p37
sg6
I1669
sg7
I1674
sa(dp38
g3
I0
sg4
VCenter
p39
sg6
I1722
sg7
I1727
sa(dp40
g3
I0
sg4
VMotivation
p41
sg6
I1733
sg7
I1742
sa(dp42
g3
I0
sg4
VHealth
p43
sg6
I1748
sg7
I1753
sa(dp44
g3
I0
sg4
VBehavior
p45
sg6
I1755
sg7
I1762
sa(dp46
g3
I0
sg4
VChange
p47
sg6
I1764
sg7
I1769
sa(dp48
g3
I0
sg4
VBath
p49
sg6
I1792
sg7
I1795
sa(dp50
g3
I0
sg4
VEngland.
p51
sg6
I1800
sg7
I1807
sa(dp52
g3
I0
sg4
VMeritocracy
p53
sg6
I1890
sg7
I1900
sasI2
(lp54
(dp55
g3
I0
sg4
VAmerican Canadian
p56
sg6
I815
sg7
I831
sa(dp57
g3
I0
sg4
VPsychological Bulletin
p58
sg6
I1047
sg7
I1068
sa(dp59
g3
I0
sg4
VThomas Curran
p60
sg6
I1662
sg7
I1674
sa(dp61
g3
I0
sg4
VHealth Behavior
p62
sg6
I1748
sg7
I1762
sa(dp63
g3
I0
sg4
VBehavior Change
p64
sg6
I1755
sg7
I1769
sasI3
(lp65
(dp66
g3
I0
sg4
VCanadian and British
p67
sg6
I824
sg7
I843
sa(dp68
g3
I0
sg4
VMotivation and Health
p69
sg6
I1733
sg7
I1753
sa(dp70
g3
I0
sg4
VHealth Behavior Change
p71
sg6
I1748
sg7
I1769
sa(dp72
g3
I1
sg4
VUniversity of Bath
p73
sg6
I1778
sg7
I1795
sasI4
(lp74
(dp75
g3
I0
sg4
VAmerican Canadian and British
p76
sg6
I815
sg7
I843
sa(dp77
g3
I0
sg4
VMotivation and Health Behavior
p78
sg6
I1733
sg7
I1762
sasI5
(lp79
(dp80
g3
I0
sg4
VMotivation and Health Behavior Change
p81
sg6
I1733
sg7
I1769
sasI6
(lp82
s.