(dp0
I1
(lp1
(dp2
S'label'
p3
I0
sS'string'
p4
VPerfectionism
p5
sS'start_index'
p6
I0
sS'end_index'
p7
I12
sa(dp8
g3
I0
sg4
VSteve
p9
sg6
I290
sg7
I294
sa(dp10
g3
I0
sg4
VCodling
p11
sg6
I296
sg7
I302
sa(dp12
g3
I0
sg4
VSeattle
p13
sg6
I329
sg7
I335
sa(dp14
g3
I0
sg4
VMultidimensional
p15
sg6
I706
sg7
I721
sa(dp16
g3
I0
sg4
VPerfectionism
p17
sg6
I723
sg7
I735
sa(dp18
g3
I0
sg4
VScale
p19
sg6
I737
sg7
I741
sa(dp20
g3
I0
sg4
VSometimes
p21
sg6
I1111
sg7
I1119
sa(dp22
g3
I0
sg4
VKatherine
p23
sg6
I1137
sg7
I1145
sa(dp24
g3
I0
sg4
VDieckmann
p25
sg6
I1147
sg7
I1155
sa(dp26
g3
I0
sg4
VColumbia
p27
sg6
I1186
sg7
I1193
sa(dp28
g3
I0
sg4
VDieckmann
p29
sg6
I1367
sg7
I1375
sa(dp30
g3
I0
sg4
VDieckmann
p31
sg6
I1788
sg7
I1796
sa(dp32
g3
I0
sg4
VAnother
p33
sg6
I1859
sg7
I1865
sa(dp34
g3
I0
sg4
VHannah
p35
sg6
I2162
sg7
I2167
sa(dp36
g3
I0
sg4
VMiller
p37
sg6
I2169
sg7
I2174
sa(dp38
g3
I1
sg4
VColumbia
p39
sg6
I2178
sg7
I2185
sa(dp40
g3
I0
sg4
VMiller
p41
sg6
I2725
sg7
I2730
sa(dp42
g3
I0
sg4
VMother
p43
sg6
I2912
sg7
I2917
sa(dp44
g3
I0
sg4
VMiller
p45
sg6
I3015
sg7
I3020
sa(dp46
g3
I0
sg4
VPrepare
p47
sg6
I3085
sg7
I3091
sasI2
(lp48
(dp49
g3
I0
sg4
VSteve Codling
p50
sg6
I290
sg7
I302
sa(dp51
g3
I0
sg4
VMultidimensional Perfectionism
p52
sg6
I706
sg7
I735
sa(dp53
g3
I0
sg4
VPerfectionism Scale
p54
sg6
I723
sg7
I741
sa(dp55
g3
I0
sg4
VKatherine Dieckmann
p56
sg6
I1137
sg7
I1155
sa(dp57
g3
I1
sg4
VColumbia University
p58
sg6
I1186
sg7
I1204
sa(dp59
g3
I0
sg4
VHannah Miller
p60
sg6
I2162
sg7
I2174
sasI3
(lp61
(dp62
g3
I0
sg4
VMultidimensional Perfectionism Scale
p63
sg6
I706
sg7
I741
sasI4
(lp64
sI5
(lp65
sI6
(lp66
s.