(dp0
I1
(lp1
(dp2
S'label'
p3
I1
sS'string'
p4
VHarvard
p5
sS'start_index'
p6
I0
sS'end_index'
p7
I6
sa(dp8
g3
I0
sg4
VHolocaust
p9
sg6
I127
sg7
I135
sa(dp10
g3
I0
sg4
VFacebook
p11
sg6
I229
sg7
I236
sa(dp12
g3
I0
sg4
VFacebook
p13
sg6
I422
sg7
I429
sa(dp14
g3
I1
sg4
VHarvard
p15
sg6
I487
sg7
I493
sa(dp16
g3
I0
sg4
VMexican
p17
sg6
I705
sg7
I711
sa(dp18
g3
I0
sg4
VAnother
p19
sg6
I756
sg7
I762
sa(dp20
g3
I0
sg4
VPok
p21
sg6
I778
sg7
I780
sa(dp22
g3
I0
sg4
VIllinois
p23
sg6
I1357
sg7
I1364
sa(dp24
g3
I0
sg4
VTheFacebook
p25
sg6
I1383
sg7
I1393
sa(dp26
g3
I0
sg4
VBig
p27
sg6
I1474
sg7
I1476
sa(dp28
g3
I0
sg4
VBlackPlanet
p29
sg6
I1569
sg7
I1579
sa(dp30
g3
I0
sg4
VMyspace.
p31
sg6
I1584
sg7
I1591
sa(dp32
g3
I0
sg4
VGoogled
p33
sg6
I2294
sg7
I2300
sa(dp34
g3
I0
sg4
VGeneration
p35
sg6
I2348
sg7
I2357
sa(dp36
g3
I0
sg4
VKazaa.
p37
sg6
I2642
sg7
I2647
sa(dp38
g3
I0
sg4
VKazaa
p39
sg6
I2684
sg7
I2688
sasI2
(lp40
(dp41
g3
I0
sg4
VGeneration Z
p42
sg6
I2348
sg7
I2359
sasI3
(lp43
(dp44
g3
I1
sg4
VUniversity of Illinois
p45
sg6
I1343
sg7
I1364
sasI4
(lp46
sI5
(lp47
sI6
(lp48
s.