(dp0
I1
(lp1
(dp2
S'label'
p3
I0
sS'string'
p4
VTimes
p5
sS'start_index'
p6
I505
sS'end_index'
p7
I509
sa(dp8
g3
I0
sg4
VSquare
p9
sg6
I511
sg7
I516
sa(dp10
g3
I0
sg4
VPOST
p11
sg6
I525
sg7
I528
sa(dp12
g3
I0
sg4
VIT.
p13
sg6
I530
sg7
I532
sa(dp14
g3
I0
sg4
VDigital
p15
sg6
I657
sg7
I663
sa(dp16
g3
I0
sg4
VMexican
p17
sg6
I727
sg7
I733
sa(dp18
g3
I0
sg4
VJokes
p19
sg6
I851
sg7
I855
sa(dp20
g3
I1
sg4
VHarvard
p21
sg6
I921
sg7
I927
sa(dp22
g3
I0
sg4
VDigital
p23
sg6
I1207
sg7
I1213
sa(dp24
g3
I0
sg4
VAdults
p25
sg6
I1387
sg7
I1392
sa(dp26
g3
I0
sg4
VVarsha
p27
sg6
I1598
sg7
I1603
sa(dp28
g3
I0
sg4
VSrivastava
p29
sg6
I1605
sg7
I1614
sa(dp30
g3
I0
sg4
VBoston
p31
sg6
I1670
sg7
I1675
sa(dp32
g3
I0
sg4
VUniversity.
p33
sg6
I1677
sg7
I1687
sa(dp34
g3
I0
sg4
VCommunication
p35
sg6
I1715
sg7
I1727
sa(dp36
g3
I0
sg4
VSilicon
p37
sg6
I1903
sg7
I1909
sa(dp38
g3
I0
sg4
VValley
p39
sg6
I1911
sg7
I1916
sa(dp40
g3
I0
sg4
VCalifornia
p41
sg6
I2029
sg7
I2038
sa(dp42
g3
I0
sg4
VB.U.
p43
sg6
I2115
sg7
I2118
sa(dp44
g3
I0
sg4
VU.But
p45
sg6
I2315
sg7
I2319
sa(dp46
g3
I0
sg4
VBoston
p47
sg6
I2513
sg7
I2518
sasI2
(lp48
(dp49
g3
I0
sg4
VTimes Square
p50
sg6
I505
sg7
I516
sa(dp51
g3
I0
sg4
VSquare DO
p52
sg6
I511
sg7
I519
sa(dp53
g3
I0
sg4
VPOST IT.
p54
sg6
I525
sg7
I532
sa(dp55
g3
I0
sg4
VVarsha Srivastava
p56
sg6
I1598
sg7
I1614
sa(dp57
g3
I1
sg4
VBoston University.
p58
sg6
I1670
sg7
I1687
sa(dp59
g3
I0
sg4
VSilicon Valley
p60
sg6
I1903
sg7
I1916
sa(dp61
g3
I1
sg4
VB. U.But
p62
sg6
I2312
sg7
I2319
sa(dp63
g3
I1
sg4
VBoston University
p64
sg6
I2513
sg7
I2529
sasI3
(lp65
(dp66
g3
I0
sg4
VTimes Square DO
p67
sg6
I505
sg7
I519
sa(dp68
g3
I1
sg4
VCollege of Communication
p69
sg6
I1704
sg7
I1727
sasI4
(lp70
sI5
(lp71
sI6
(lp72
s.