(dp0
I1
(lp1
(dp2
S'label'
p3
I0
sS'string'
p4
VEvery
p5
sS'start_index'
p6
I237
sS'end_index'
p7
I241
sa(dp8
g3
I0
sg4
VCenter
p9
sg6
I1940
sg7
I1945
sa(dp10
g3
I0
sg4
VPsychiatric
p11
sg6
I1951
sg7
I1961
sa(dp12
g3
I0
sg4
VRehabilitation
p13
sg6
I1963
sg7
I1976
sa(dp14
g3
I0
sg4
VCourtney.
p15
sg6
I1993
sg7
I2001
sa(dp16
g3
I0
sg4
VCourtney
p17
sg6
I2003
sg7
I2010
sa(dp18
g3
I0
sg4
VJoly
p19
sg6
I2012
sg7
I2015
sa(dp20
g3
I0
sg4
VLowdermilk
p21
sg6
I2017
sg7
I2026
sa(dp22
g3
I0
sg4
VNiteo
p23
sg6
I2073
sg7
I2077
sa(dp24
g3
I0
sg4
VLatin.
p25
sg6
I2110
sg7
I2115
sa(dp26
g3
I0
sg4
VNiteo
p27
sg6
I2117
sg7
I2121
sa(dp28
g3
I0
sg4
VJoly
p29
sg6
I2549
sg7
I2552
sa(dp30
g3
I0
sg4
VLowdermilk
p31
sg6
I2554
sg7
I2563
sa(dp32
g3
I0
sg4
VVarsha
p33
sg6
I2570
sg7
I2575
sa(dp34
g3
I0
sg4
VFall
p35
sg6
I2846
sg7
I2849
sa(dp36
g3
I0
sg4
VComing
p37
sg6
I2974
sg7
I2979
sa(dp38
g3
I0
sg4
VBoston
p39
sg6
I3148
sg7
I3153
sa(dp40
g3
I0
sg4
VCourtney
p41
sg6
I3170
sg7
I3177
sa(dp42
g3
I0
sg4
VNiteo
p43
sg6
I3203
sg7
I3207
sa(dp44
g3
I0
sg4
VCourtney
p45
sg6
I3218
sg7
I3225
sa(dp46
g3
I0
sg4
VVarsha
p47
sg6
I3494
sg7
I3499
sa(dp48
g3
I0
sg4
VBunker
p49
sg6
I3561
sg7
I3566
sa(dp50
g3
I0
sg4
VHill
p51
sg6
I3568
sg7
I3571
sa(dp52
g3
I0
sg4
VCommunity
p53
sg6
I3573
sg7
I3581
sa(dp54
g3
I0
sg4
VBoston
p55
sg6
I3594
sg7
I3599
sa(dp56
g3
I0
sg4
VNiteo.
p57
sg6
I3624
sg7
I3629
sa(dp58
g3
I0
sg4
VBoston
p59
sg6
I3714
sg7
I3719
sasI2
(lp60
(dp61
g3
I0
sg4
VA. Every
p62
sg6
I234
sg7
I241
sa(dp63
g3
I1
sg4
VB. U.
p64
sg6
I1932
sg7
I1936
sa(dp65
g3
I0
sg4
VPsychiatric Rehabilitation
p66
sg6
I1951
sg7
I1976
sa(dp67
g3
I0
sg4
VCourtney Joly
p68
sg6
I2003
sg7
I2015
sa(dp69
g3
I0
sg4
VJoly Lowdermilk
p70
sg6
I2012
sg7
I2026
sa(dp71
g3
I0
sg4
VJoly Lowdermilk
p72
sg6
I2549
sg7
I2563
sa(dp73
g3
I1
sg4
VBoston University
p74
sg6
I3148
sg7
I3164
sa(dp75
g3
I0
sg4
VBunker Hill
p76
sg6
I3561
sg7
I3571
sa(dp77
g3
I0
sg4
VHill Community
p78
sg6
I3568
sg7
I3581
sa(dp79
g3
I0
sg4
VCommunity College
p80
sg6
I3573
sg7
I3589
sa(dp81
g3
I1
sg4
VBoston University
p82
sg6
I3714
sg7
I3730
sasI3
(lp83
(dp84
g3
I0
sg4
VCourtney Joly Lowdermilk
p85
sg6
I2003
sg7
I2026
sa(dp86
g3
I0
sg4
VBunker Hill Community
p87
sg6
I3561
sg7
I3581
sa(dp88
g3
I0
sg4
VHill Community College
p89
sg6
I3568
sg7
I3589
sasI4
(lp90
(dp91
g3
I1
sg4
VBunker Hill Community College
p92
sg6
I3561
sg7
I3589
sasI5
(lp93
sI6
(lp94
s.