ccopy_reg
_reconstructor
p0
(csets
Set
p1
c__builtin__
object
p2
Ntp3
Rp4
((dp5
I1
I01
sI2
I01
sI11
I01
sI19
I01
sI20
I01
sI21
I01
sI23
I01
sI29
I01
sI30
I01
sI31
I01
sI35
I01
sI38
I01
sI39
I01
sI42
I01
sI46
I01
sI48
I01
sI55
I01
sI56
I01
sI58
I01
sI64
I01
sI66
I01
sI67
I01
sI72
I01
sI75
I01
sI79
I01
sI81
I01
sI82
I01
sI89
I01
sI102
I01
sI104
I01
sI107
I01
sI110
I01
sI112
I01
sI114
I01
sI118
I01
sI119
I01
sI123
I01
sI124
I01
sI125
I01
sI126
I01
sI127
I01
sI132
I01
sI138
I01
sI139
I01
sI141
I01
sI143
I01
sI146
I01
sI150
I01
sI156
I01
sI157
I01
sI159
I01
sI160
I01
sI161
I01
sI162
I01
sI163
I01
sI165
I01
sI167
I01
sI172
I01
sI174
I01
sI179
I01
sI180
I01
sI181
I01
sI182
I01
sI184
I01
sI185
I01
sI187
I01
sI188
I01
sI189
I01
sI191
I01
sI197
I01
sI198
I01
sI206
I01
sI214
I01
sI215
I01
sI217
I01
sI218
I01
sI222
I01
sI224
I01
sI226
I01
sI232
I01
sI235
I01
sI237
I01
sI243
I01
sI247
I01
sI251
I01
sI252
I01
sI254
I01
sI256
I01
sI259
I01
sI260
I01
sI262
I01
sI266
I01
sI269
I01
sI271
I01
sI276
I01
sI278
I01
sI279
I01
sI280
I01
sI283
I01
sI284
I01
sI286
I01
sI288
I01
sI292
I01
sI294
I01
sI295
I01
sI297
I01
sI303
I01
stp6
b.