ccopy_reg
_reconstructor
p0
(csets
Set
p1
c__builtin__
object
p2
Ntp3
Rp4
((dp5
I3
I01
sI4
I01
sI5
I01
sI6
I01
sI8
I01
sI9
I01
sI10
I01
sI12
I01
sI13
I01
sI14
I01
sI15
I01
sI16
I01
sI17
I01
sI18
I01
sI24
I01
sI25
I01
sI26
I01
sI27
I01
sI28
I01
sI32
I01
sI33
I01
sI34
I01
sI37
I01
sI40
I01
sI41
I01
sI43
I01
sI44
I01
sI45
I01
sI49
I01
sI50
I01
sI51
I01
sI52
I01
sI53
I01
sI54
I01
sI57
I01
sI59
I01
sI60
I01
sI62
I01
sI63
I01
sI65
I01
sI68
I01
sI69
I01
sI70
I01
sI73
I01
sI74
I01
sI76
I01
sI77
I01
sI78
I01
sI80
I01
sI83
I01
sI84
I01
sI85
I01
sI87
I01
sI88
I01
sI90
I01
sI91
I01
sI92
I01
sI93
I01
sI94
I01
sI95
I01
sI96
I01
sI97
I01
sI98
I01
sI99
I01
sI100
I01
sI101
I01
sI103
I01
sI105
I01
sI106
I01
sI108
I01
sI109
I01
sI111
I01
sI113
I01
sI115
I01
sI116
I01
sI117
I01
sI120
I01
sI121
I01
sI122
I01
sI128
I01
sI129
I01
sI130
I01
sI131
I01
sI134
I01
sI135
I01
sI136
I01
sI140
I01
sI142
I01
sI144
I01
sI145
I01
sI147
I01
sI148
I01
sI149
I01
sI151
I01
sI152
I01
sI153
I01
sI154
I01
sI155
I01
sI158
I01
sI164
I01
sI166
I01
sI168
I01
sI169
I01
sI170
I01
sI171
I01
sI173
I01
sI176
I01
sI177
I01
sI178
I01
sI186
I01
sI190
I01
sI192
I01
sI193
I01
sI194
I01
sI195
I01
sI196
I01
sI199
I01
sI200
I01
sI201
I01
sI202
I01
sI203
I01
sI204
I01
sI205
I01
sI207
I01
sI208
I01
sI210
I01
sI211
I01
sI212
I01
sI213
I01
sI216
I01
sI219
I01
sI220
I01
sI221
I01
sI223
I01
sI227
I01
sI228
I01
sI229
I01
sI230
I01
sI231
I01
sI233
I01
sI234
I01
sI238
I01
sI239
I01
sI240
I01
sI241
I01
sI242
I01
sI244
I01
sI245
I01
sI246
I01
sI248
I01
sI250
I01
sI253
I01
sI255
I01
sI257
I01
sI261
I01
sI263
I01
sI264
I01
sI265
I01
sI267
I01
sI268
I01
sI272
I01
sI273
I01
sI274
I01
sI275
I01
sI277
I01
sI281
I01
sI282
I01
sI285
I01
sI289
I01
sI290
I01
sI291
I01
sI293
I01
sI296
I01
sI298
I01
sI299
I01
sI300
I01
sI301
I01
sI304
I01
sI305
I01
sI306
I01
stp6
b.