(dp0
S'possamples'
p1
(lp2
(dp3
S'endIndex'
p4
I734
sS'startIndex'
p5
I707
sS'string'
p6
VState University of New York
p7
sa(dp8
g4
I766
sg5
I740
sg6
VCity University of New York
p9
sa(dp10
g4
I901
sg5
I898
sg6
VSUNY
p11
sa(dp12
g4
I910
sg5
I907
sg6
VCUNY
p13
sa(dp14
g4
I1063
sg5
I1048
sg6
VHartwick College
p15
sa(dp16
g4
I1090
sg5
I1087
sg6
VSUNY
p17
sa(dp18
g4
I1262
sg5
I1240
sg6
VSt. Lawrence University
p19
sa(dp20
g4
I1413
sg5
I1397
sg6
VAlfred University
p21
sa(dp22
g4
I1922
sg5
I1919
sg6
VSUNY
p23
sa(dp24
g4
I3021
sg5
I3018
sg6
VCUNY
p25
sas.