(dp0
S'possamples'
p1
(lp2
(dp3
S'endIndex'
p4
I1005
sS'startIndex'
p5
I972
sS'string'
p6
VUniversity of California Berkeley.
p7
sa(dp8
g4
I2838
sg5
I2803
sg6
VHarvard Graduate School of Education
p9
sas.