(dp0
S'possamples'
p1
(lp2
(dp3
S'endIndex'
p4
I590
sS'startIndex'
p5
I576
sS'string'
p6
VSimpson College
p7
sa(dp8
g4
I2552
sg5
I2528
sg6
VUniversity of Connecticut
p9
sa(dp10
g4
I2869
sg5
I2841
sg6
VUniversity System of Georgia.
p11
sas.