(dp0
S'possamples'
p1
(lp2
(dp3
S'endIndex'
p4
I515
sS'startIndex'
p5
I502
sS'string'
p6
VKenyon College
p7
sa(dp8
g4
I848
sg5
I831
sg6
VCornell University
p9
sa(dp10
g4
I2163
sg5
I2145
sg6
VAgnes Scott College
p11
sa(dp12
g4
I2706
sg5
I2692
sg6
VYale University
p13
sa(dp14
g4
I2830
sg5
I2826
sg6
VYale.
p15
sa(dp16
g4
I3542
sg5
I3539
sg6
VYale
p17
sa(dp18
g4
I3680
sg5
I3674
sg6
VHarvard
p19
sas.