(dp0
S'possamples'
p1
(lp2
(dp3
S'endIndex'
p4
I315
sS'startIndex'
p5
I312
sS'string'
p6
VYale
p7
sa(dp8
g4
I379
sg5
I371
sg6
VPrinceton
p9
sa(dp10
g4
I418
sg5
I412
sg6
VHarvard
p11
sa(dp12
g4
I474
sg5
I468
sg6
VHarvard
p13
sa(dp14
g4
I557
sg5
I551
sg6
VCornell
p15
sa(dp16
g4
I734
sg5
I728
sg6
VCornell
p17
sa(dp18
g4
I1474
sg5
I1467
sg6
VMichigan
p19
sa(dp20
g4
I1538
sg5
I1525
sg6
VMichigan State
p21
sa(dp22
g4
I1876
sg5
I1863
sg6
VMichigan State
p23
sas.