(dp0
S'possamples'
p1
(lp2
(dp3
S'endIndex'
p4
I78
sS'startIndex'
p5
I65
sS'string'
p6
VMichigan State
p7
sa(dp8
g4
I504
sg5
I491
sg6
VMichigan State
p9
sa(dp10
g4
I633
sg5
I631
sg6
VMSU
p11
sa(dp12
g4
I737
sg5
I730
sg6
VMichigan
p13
sa(dp14
g4
I1105
sg5
I1097
sg6
VMichigan.
p15
sas.