(dp0
S'possamples'
p1
(lp2
(dp3
S'endIndex'
p4
I491
sS'startIndex'
p5
I478
sS'string'
p6
VMichigan State
p7
sa(dp8
g4
I758
sg5
I745
sg6
VMichigan State
p9
sa(dp10
g4
I1607
sg5
I1593
sg6
VMichigan State.
p11
sa(dp12
g4
I2025
sg5
I2012
sg6
VMichigan State
p13
sa(dp14
g4
I2412
sg5
I2398
sg6
VMichigan State.
p15
sas.