(dp0
S'possamples'
p1
(lp2
(dp3
S'endIndex'
p4
I144
sS'startIndex'
p5
I131
sS'string'
p6
VMichigan State
p7
sa(dp8
g4
I286
sg5
I272
sg6
VMichigan State.
p9
sa(dp10
g4
I381
sg5
I368
sg6
VMichigan State
p11
sas.