(dp0
S'possamples'
p1
(lp2
(dp3
S'endIndex'
p4
I122
sS'startIndex'
p5
I101
sS'string'
p6
VUniversity of Missouri
p7
sa(dp8
g4
I928
sg5
I906
sg6
VUniversity of Wisconsin
p9
sa(dp10
g4
I1170
sg5
I1147
sg6
VUniversity of California
p11
sa(dp12
g4
I1189
sg5
I1175
sg6
VBowdoin College
p13
sas.