(dp0
S'possamples'
p1
(lp2
(dp3
S'endIndex'
p4
I1459
sS'startIndex'
p5
I1453
sS'string'
p6
VBowdoin
p7
sa(dp8
g4
I1471
sg5
I1465
sg6
VTrinity
p9
sa(dp10
g4
I1553
sg5
I1540
sg6
VPitzer College
p11
sa(dp12
g4
I1613
sg5
I1591
sg6
VUniversity of Wisconsin
p13
sa(dp14
g4
I1689
sg5
I1686
sg6
VDuke
p15
sa(dp16
g4
I4175
sg5
I4154
sg6
VSeton Hall University.
p17
sa(dp18
g4
I4604
sg5
I4598
sg6
VHarvard
p19
sa(dp20
g4
I5423
sg5
I5406
sg6
VKaplan University.
p21
sa(dp22
g4
I5493
sg5
I5486
sg6
VColumbia
p23
sas.