(dp0
S'possamples'
p1
(lp2
(dp3
S'endIndex'
p4
I329
sS'startIndex'
p5
I323
sS'string'
p6
VHarvard
p7
sa(dp8
g4
I862
sg5
I837
sg6
VUniversity of Pennsylvania
p9
sa(dp10
g4
I951
sg5
I947
sg6
VBrown
p11
sa(dp12
g4
I1154
sg5
I1148
sg6
VHarvard
p13
sa(dp14
g4
I1544
sg5
I1524
sg6
VUniversity of Chicago
p15
sa(dp16
g4
I2633
sg5
I2617
sg6
VTemple University
p17
sas.