(dp0
S'possamples'
p1
(lp2
(dp3
S'endIndex'
p4
I914
sS'startIndex'
p5
I894
sS'string'
p6
VGeorgetown University
p7
sa(dp8
g4
I1362
sg5
I1353
sg6
VGeorgetown
p9
sa(dp10
g4
I3486
sg5
I3466
sg6
VVanderbilt University
p11
sa(dp12
g4
I4196
sg5
I4190
sg6
VHarvard
p13
sas.