(dp0
S'possamples'
p1
(lp2
(dp3
S'endIndex'
p4
I280
sS'startIndex'
p5
I262
sS'string'
p6
VUniversity of Texas
p7
sa(dp8
g4
I832
sg5
I826
sg6
VEl Paso
p9
sa(dp10
g4
I1290
sg5
I1284
sg6
VEl Paso
p11
sa(dp12
g4
I1708
sg5
I1688
sg6
VUniversity of Houston
p13
sa(dp14
g4
I1964
sg5
I1958
sg6
VHouston
p15
sa(dp16
g4
I2161
sg5
I2155
sg6
VHouston
p17
sa(dp18
g4
I2175
sg5
I2167
sg6
VCal State
p19
sa(dp20
g4
I2267
sg5
I2261
sg6
VHouston
p21
sa(dp22
g4
I2368
sg5
I2360
sg6
VCal State
p23
sas.