(dp0
S'possamples'
p1
(lp2
(dp3
S'endIndex'
p4
I108
sS'startIndex'
p5
I105
sS'string'
p6
VIowa
p7
sa(dp8
g4
I1329
sg5
I1312
sg6
VCornell University
p9
sa(dp10
g4
I1409
sg5
I1372
sg6
VMassachusetts Institute of Technology.
p11
sas.