(dp0
S'possamples'
p1
(lp2
(dp3
S'endIndex'
p4
I542
sS'startIndex'
p5
I521
sS'string'
p6
VSarah Lawrence College
p7
sa(dp8
g4
I874
sg5
I868
sg6
VEl Paso
p9
sa(dp10
g4
I3230
sg5
I3224
sg6
VEl Paso
p11
sas.