(dp0
S'possamples'
p1
(lp2
(dp3
S'endIndex'
p4
I66
sS'startIndex'
p5
I40
sS'string'
p6
VCity University of New York
p7
sa(dp8
g4
I421
sg5
I418
sg6
VCUNY
p9
sa(dp10
g4
I1020
sg5
I1017
sg6
VCUNY
p11
sa(dp12
g4
I1231
sg5
I1228
sg6
VCUNY
p13
sas.