(dp0
S'possamples'
p1
(lp2
(dp3
S'endIndex'
p4
I162
sS'startIndex'
p5
I159
sS'string'
p6
VCUNY
p7
sa(dp8
g4
I365
sg5
I362
sg6
VCUNY
p9
sa(dp10
g4
I531
sg5
I528
sg6
VCUNY
p11
sa(dp12
g4
I697
sg5
I672
sg6
VCity College Lisa S. Coico
p13
sa(dp14
g4
I1008
sg5
I1005
sg6
VCUNY
p15
sa(dp16
g4
I1239
sg5
I1236
sg6
VCUNY
p17
sa(dp18
g4
I1520
sg5
I1517
sg6
VCUNY
p19
sas.