(dp0
S'possamples'
p1
(lp2
(dp3
S'endIndex'
p4
I214
sS'startIndex'
p5
I193
sS'string'
p6
VUniversity of Chicago.
p7
sa(dp8
g4
I267
sg5
I261
sg6
VChicago
p9
sa(dp10
g4
I1136
sg5
I1122
sg6
VPace University
p11
sa(dp12
g4
I1461
sg5
I1458
sg6
VPace
p13
sa(dp14
g4
I2134
sg5
I2120
sg6
VPace University
p15
sas.