(dp0
S'possamples'
p1
(lp2
(dp3
S'endIndex'
p4
I17
sS'startIndex'
p5
I0
sS'string'
p6
VMacalester College
p7
sa(dp8
g4
I128
sg5
I122
sg6
VGeorgia
p9
sa(dp10
g4
I649
sg5
I635
sg6
VAmherst College
p11
sa(dp12
g4
I991
sg5
I985
sg6
VAmherst
p13
sa(dp14
g4
I1204
sg5
I1198
sg6
VAmherst
p15
sa(dp16
g4
I1522
sg5
I1516
sg6
VAmherst
p17
sa(dp18
g4
I1715
sg5
I1698
sg6
VColgate University
p19
sa(dp20
g4
I2011
sg5
I2005
sg6
VColgate
p21
sas.