(dp0
S'possamples'
p1
(lp2
(dp3
S'endIndex'
p4
I1354
sS'startIndex'
p5
I1348
sS'string'
p6
VHarvard
p7
sa(dp8
g4
I1770
sg5
I1759
sg6
VCornell Tech
p9
sa(dp10
g4
I2150
sg5
I2133
sg6
VCornell University
p11
sa(dp12
g4
I2210
sg5
I2172
sg6
VTechnion Israel Institute of Technology
p13
sas.