(dp0
S'possamples'
p1
(lp2
(dp3
S'endIndex'
p4
I1178
sS'startIndex'
p5
I1171
sS'string'
p6
VColumbia
p7
sa(dp8
g4
I1240
sg5
I1233
sg6
VColumbia
p9
sa(dp10
g4
I1490
sg5
I1483
sg6
VColumbia
p11
sa(dp12
g4
I1594
sg5
I1587
sg6
VColumbia
p13
sas.