(dp0
S'possamples'
p1
(lp2
(dp3
S'endIndex'
p4
I6
sS'startIndex'
p5
I0
sS'string'
p6
VTrinity
p7
sa(dp8
g4
I610
sg5
I604
sg6
VTrinity
p9
sa(dp10
g4
I1605
sg5
I1579
sg6
VOlin College of Engineering
p11
sa(dp12
g4
I2177
sg5
I2174
sg6
VOlin
p13
sa(dp14
g4
I2674
sg5
I2638
sg6
VMassachusetts Institute of Technology
p15
sas.