(dp0
S'possamples'
p1
(lp2
(dp3
S'endIndex'
p4
I215
sS'startIndex'
p5
I213
sS'string'
p6
VMIT
p7
sa(dp8
g4
I661
sg5
I659
sg6
VMIT
p9
sa(dp10
g4
I1093
sg5
I1090
sg6
VOlin
p11
sa(dp12
g4
I1439
sg5
I1416
sg6
VUniversity of California
p13
sa(dp14
g4
I1536
sg5
I1529
sg6
VStanford
p15
sa(dp16
g4
I1581
sg5
I1579
sg6
VMIT
p17
sa(dp18
g4
I2673
sg5
I2669
sg6
VYale.
p19
sas.