(dp0
S'possamples'
p1
(lp2
(dp3
S'endIndex'
p4
I80
sS'startIndex'
p5
I76
sS'string'
p6
VYale.
p7
sa(dp8
g4
I486
sg5
I483
sg6
VYale
p9
sa(dp10
g4
I738
sg5
I734
sg6
VYale.
p11
sa(dp12
g4
I1246
sg5
I1240
sg6
VHarvard
p13
sa(dp14
g4
I1283
sg5
I1277
sg6
VHarvard
p15
sa(dp16
g4
I1315
sg5
I1307
sg6
VPrinceton
p17
sa(dp18
g4
I1469
sg5
I1449
sg6
VUniversity of Georgia
p19
sa(dp20
g4
I1494
sg5
I1475
sg6
VTexas A&M University
p21
sa(dp22
g4
I1842
sg5
I1831
sg6
VGeorgia Tech
p23
sas.