(dp0
S'possamples'
p1
(lp2
(dp3
S'endIndex'
p4
I61
sS'startIndex'
p5
I55
sS'string'
p6
VHarvard
p7
sa(dp8
g4
I512
sg5
I485
sg6
VUniversity of North Carolina
p9
sa(dp10
g4
I601
sg5
I599
sg6
VMIT
p11
sa(dp12
g4
I728
sg5
I722
sg6
VHarvard
p13
sa(dp14
g4
I1266
sg5
I1234
sg6
VUniversity of Southern California
p15
sa(dp16
g4
I1296
sg5
I1270
sg6
VRossier School of Education
p17
sas.