(dp0
S'possamples'
p1
(lp2
(dp3
S'endIndex'
p4
I36
sS'startIndex'
p5
I24
sS'string'
p6
VCornell Tech.
p7
sa(dp8
g4
I251
sg5
I240
sg6
VCornell Tech
p9
sa(dp10
g4
I511
sg5
I500
sg6
VCornell Tech
p11
sas.