(dp0
S'possamples'
p1
(lp2
(dp3
S'endIndex'
p4
I61
sS'startIndex'
p5
I36
sS'string'
p6
VMedical College of Georgia
p7
sa(dp8
g4
I243
sg5
I217
sg6
VMedical College of Virginia
p9
sa(dp10
g4
I276
sg5
I245
sg6
VVirginia Commonwealth University
p11
sas.