(dp0
S'possamples'
p1
(lp2
(dp3
S'endIndex'
p4
I111
sS'startIndex'
p5
I91
sS'string'
p6
VGeorgetown University
p7
sa(dp8
g4
I137
sg5
I133
sg6
VBrown
p9
sa(dp10
g4
I142
sg5
I139
sg6
VYale
p11
sa(dp12
g4
I150
sg5
I144
sg6
VHarvard
p13
sa(dp14
g4
I177
sg5
I156
sg6
VUniversity of Virginia
p15
sa(dp16
g4
I213
sg5
I187
sg6
VCollege of William and Mary
p17
sas.