(dp0
S'possamples'
p1
(lp2
(dp3
S'endIndex'
p4
I352
sS'startIndex'
p5
I345
sS'string'
p6
VStanford
p7
sa(dp8
g4
I419
sg5
I416
sg6
VYale
p9
sa(dp10
g4
I445
sg5
I437
sg6
VPrinceton
p11
sa(dp12
g4
I487
sg5
I467
sg6
VUniversity of Chicago
p13
sas.