(dp0
S'possamples'
p1
(lp2
(dp3
S'endIndex'
p4
I24
sS'startIndex'
p5
I14
sS'string'
p6
VGolden Gate
p7
sa(dp8
g4
I317
sg5
I310
sg6
VStanford
p9
sa(dp10
g4
I326
sg5
I323
sg6
VYale
p11
sa(dp12
g4
I964
sg5
I956
sg6
VPrinceton
p13
sa(dp14
g4
I994
sg5
I974
sg6
VUniversity of Chicago
p15
sa(dp16
g4
I1987
sg5
I1973
sg6
VBroward College
p17
sa(dp18
g4
I2179
sg5
I2147
sg6
VSouthern New Hampshire University
p19
sas.