(dp0
S'possamples'
p1
(lp2
(dp3
S'endIndex'
p4
I360
sS'startIndex'
p5
I349
sS'string'
p6
VCornell Tech
p7
sa(dp8
g4
I715
sg5
I704
sg6
VCornell Tech
p9
sa(dp10
g4
I1048
sg5
I1037
sg6
VCornell Tech
p11
sa(dp12
g4
I1458
sg5
I1436
sg6
VGeorge Mason University
p13
sas.