(dp0
S'possamples'
p1
(lp2
(dp3
S'endIndex'
p4
I87
sS'startIndex'
p5
I70
sS'string'
p6
VHarvard University
p7
sa(dp8
g4
I293
sg5
I287
sg6
VHarvard
p9
sa(dp10
g4
I1963
sg5
I1957
sg6
VHarvard
p11
sa(dp12
g4
I1990
sg5
I1984
sg6
VHarvard
p13
sas.