(dp0
S'possamples'
p1
(lp2
(dp3
S'endIndex'
p4
I884
sS'startIndex'
p5
I878
sS'string'
p6
VHarvard
p7
sa(dp8
g4
I1091
sg5
I1085
sg6
VHarvard
p9
sa(dp10
g4
I1241
sg5
I1218
sg6
VCharleston School of Law
p11
sa(dp12
g4
I1830
sg5
I1824
sg6
VHarvard
p13
sas.