(dp0
S'possamples'
p1
(lp2
(dp3
S'endIndex'
p4
I265
sS'startIndex'
p5
I247
sS'string'
p6
VNew York University
p7
sa(dp8
g4
I396
sg5
I394
sg6
VNYU
p9
sa(dp10
g4
I411
sg5
I409
sg6
VNYU
p11
sa(dp12
g4
I440
sg5
I432
sg6
VDartmouth
p13
sa(dp14
g4
I1381
sg5
I1349
sg6
VNational Institute of Drug Abuse.
p15
sas.