(dp0
S'possamples'
p1
(lp2
(dp3
S'endIndex'
p4
I14
sS'startIndex'
p5
I3
sS'string'
p6
VReed College
p7
sa(dp8
g4
I443
sg5
I421
sg6
VGeorge Mason University
p9
sa(dp10
g4
I1024
sg5
I1013
sg6
VSouthwestern
p11
sas.