(dp0
S'possamples'
p1
(lp2
(dp3
S'endIndex'
p4
I88
sS'startIndex'
p5
I85
sS'string'
p6
VUCLA
p7
sa(dp8
g4
I566
sg5
I540
sg6
VNorthern Arizona University
p9
sa(dp10
g4
I928
sg5
I913
sg6
VNorthern Arizona
p11
sas.