(dp0
S'possamples'
p1
(lp2
(dp3
S'endIndex'
p4
I891
sS'startIndex'
p5
I861
sS'string'
p6
VQueensborough Community College
p7
sa(dp8
g4
I904
sg5
I901
sg6
VCUNY
p9
sa(dp10
g4
I937
sg5
I910
sg6
VCity University of New York.
p11
sas.