(dp0
S'possamples'
p1
(lp2
(dp3
S'endIndex'
p4
I133
sS'startIndex'
p5
I116
sS'string'
p6
VNeumann University
p7
sa(dp8
g4
I899
sg5
I880
sg6
VUniversity of Sussex
p9
sa(dp10
g4
I1545
sg5
I1521
sg6
VDelaware State University
p11
sas.