(dp0
S'possamples'
p1
(lp2
(dp3
S'endIndex'
p4
I1015
sS'startIndex'
p5
I994
sS'string'
p6
VUniversity of Michigan
p7
sa(dp8
g4
I1331
sg5
I1324
sg6
VMichigan
p9
sa(dp10
g4
I1996
sg5
I1989
sg6
VMichigan
p11
sas.