(dp0
S'possamples'
p1
(lp2
(dp3
S'endIndex'
p4
I49
sS'startIndex'
p5
I26
sS'string'
p6
VJohns Hopkins University
p7
sa(dp8
g4
I151
sg5
I135
sg6
VFurman University
p9
sa(dp10
g4
I305
sg5
I278
sg6
VUniversity of North Carolina
p11
sa(dp12
g4
I1293
sg5
I1270
sg6
VWest Virginia University
p13
sas.