(dp0
S'possamples'
p1
(lp2
(dp3
S'endIndex'
p4
I635
sS'startIndex'
p5
I619
sS'string'
p6
VTrump University.
p7
sa(dp8
g4
I1081
sg5
I1066
sg6
VTrump University
p9
sa(dp10
g4
I1414
sg5
I1398
sg6
VTrump University.
p11
sas.