(dp0
S'possamples'
p1
(lp2
(dp3
S'endIndex'
p4
I155
sS'startIndex'
p5
I142
sS'string'
p6
VMichigan State
p7
sa(dp8
g4
I1343
sg5
I1330
sg6
VMichigan State
p9
sa(dp10
g4
I1396
sg5
I1383
sg6
VMichigan State
p11
sa(dp12
g4
I1969
sg5
I1956
sg6
VMichigan State
p13
sa(dp14
g4
I2207
sg5
I2194
sg6
VMichigan State
p15
sa(dp16
g4
I2445
sg5
I2431
sg6
VMichigan State.
p17
sa(dp18
g4
I2492
sg5
I2479
sg6
VMichigan State
p19
sas.