(dp0
S'possamples'
p1
(lp2
(dp3
S'endIndex'
p4
I16
sS'startIndex'
p5
I9
sS'string'
p6
VColumbia
p7
sa(dp8
g4
I414
sg5
I406
sg6
VDartmouth
p9
sa(dp10
g4
I549
sg5
I542
sg6
VColumbia
p11
sa(dp12
g4
I612
sg5
I597
sg6
VColumbia College
p13
sas.