(dp0
S'possamples'
p1
(lp2
(dp3
S'endIndex'
p4
I133
sS'startIndex'
p5
I126
sS'string'
p6
VColumbia
p7
sa(dp8
g4
I149
sg5
I146
sg6
VPenn
p9
sa(dp10
g4
I272
sg5
I265
sg6
VColumbia
p11
sa(dp12
g4
I426
sg5
I419
sg6
VColumbia
p13
sa(dp14
g4
I722
sg5
I716
sg6
VBarnard
p15
sa(dp16
g4
I767
sg5
I760
sg6
VColumbia
p17
sas.