(dp0
S'possamples'
p1
(lp2
(dp3
S'endIndex'
p4
I190
sS'startIndex'
p5
I183
sS'string'
p6
VColumbia
p7
sa(dp8
g4
I358
sg5
I351
sg6
VColumbia
p9
sa(dp10
g4
I833
sg5
I826
sg6
VColumbia
p11
sa(dp12
g4
I1112
sg5
I1105
sg6
VColumbia
p13
sa(dp14
g4
I1189
sg5
I1174
sg6
VColumbia College
p15
sas.