(dp0
S'possamples'
p1
(lp2
(dp3
S'endIndex'
p4
I195
sS'startIndex'
p5
I180
sS'string'
p6
VColumbia College
p7
sa(dp8
g4
I353
sg5
I346
sg6
VColumbia
p9
sa(dp10
g4
I690
sg5
I683
sg6
VColumbia
p11
sa(dp12
g4
I831
sg5
I822
sg6
VOhio State
p13
sa(dp14
g4
I1010
sg5
I1003
sg6
VColumbia
p15
sa(dp16
g4
I1039
sg5
I1031
sg6
VPrinceton
p17
sa(dp18
g4
I1089
sg5
I1082
sg6
VColumbia
p19
sa(dp20
g4
I1408
sg5
I1401
sg6
VColumbia
p21
sas.