(dp0
S'possamples'
p1
(lp2
(dp3
S'endIndex'
p4
I139
sS'startIndex'
p5
I126
sS'string'
p6
VMichigan State
p7
sa(dp8
g4
I699
sg5
I686
sg6
VMichigan State
p9
sa(dp10
g4
I1128
sg5
I1115
sg6
VMichigan State
p11
sa(dp12
g4
I2220
sg5
I2207
sg6
VMichigan State
p13
sa(dp14
g4
I2659
sg5
I2642
sg6
VHarvard University
p15
sa(dp16
g4
I3212
sg5
I3206
sg6
VHarvard
p17
sas.