(dp0
S'possamples'
p1
(lp2
(dp3
S'endIndex'
p4
I56
sS'startIndex'
p5
I30
sS'string'
p6
VCity University of New York
p7
sa(dp8
g4
I213
sg5
I202
sg6
VCity College
p9
sa(dp10
g4
I985
sg5
I982
sg6
VCUNY
p11
sa(dp12
g4
I1043
sg5
I1040
sg6
VCUNY
p13
sas.