(dp0
S'possamples'
p1
(lp2
(dp3
S'endIndex'
p4
I232
sS'startIndex'
p5
I213
sS'string'
p6
VUniversity of Oregon
p7
sa(dp8
g4
I1396
sg5
I1377
sg6
VUniversity of Oregon
p9
sa(dp10
g4
I1856
sg5
I1837
sg6
VUniversity of Oregon
p11
sas.