(dp0
S'possamples'
p1
(lp2
(dp3
S'endIndex'
p4
I222
sS'startIndex'
p5
I202
sS'string'
p6
VUniversity of Chicago
p7
sa(dp8
g4
I1281
sg5
I1259
sg6
VUniversity of Rochester
p9
sa(dp10
g4
I1744
sg5
I1724
sg6
VUniversity of Chicago
p11
sa(dp12
g4
I1788
sg5
I1782
sg6
VHarvard
p13
sa(dp14
g4
I1949
sg5
I1943
sg6
VHarvard
p15
sa(dp16
g4
I1998
sg5
I1990
sg6
VPrinceton
p17
sa(dp18
g4
I2176
sg5
I2153
sg6
VGeorge Mason University.
p19
sas.