(dp0
S'possamples'
p1
(lp2
(dp3
S'endIndex'
p4
I196
sS'startIndex'
p5
I189
sS'string'
p6
VHarvard.
p7
sa(dp8
g4
I506
sg5
I486
sg6
VUniversity of Chicago
p9
sa(dp10
g4
I562
sg5
I551
sg6
VNorthwestern
p11
sas.