(dp0
S'possamples'
p1
(lp2
(dp3
S'endIndex'
p4
I362
sS'startIndex'
p5
I359
sS'string'
p6
VCUNY
p7
sa(dp8
g4
I583
sg5
I572
sg6
VCity College
p9
sa(dp10
g4
I753
sg5
I742
sg6
VCity College
p11
sa(dp12
g4
I792
sg5
I786
sg6
VHarvard
p13
sas.