(dp0
S'possamples'
p1
(lp2
(dp3
S'endIndex'
p4
I407
sS'startIndex'
p5
I400
sS'string'
p6
VHarvard.
p7
sa(dp8
g4
I425
sg5
I419
sg6
VHarvard
p9
sa(dp10
g4
I1443
sg5
I1422
sg6
VUniversity of Virginia
p11
sas.