(dp0
S'possamples'
p1
(lp2
(dp3
S'endIndex'
p4
I34
sS'startIndex'
p5
I21
sS'string'
p6
VBaruch College
p7
sa(dp8
g4
I47
sg5
I44
sg6
VCUNY
p9
sa(dp10
g4
I64
sg5
I61
sg6
VCUNY
p11
sa(dp12
g4
I303
sg5
I292
sg6
VCity College
p13
sas.