(dp0
S'possamples'
p1
(lp2
(dp3
S'endIndex'
p4
I60
sS'startIndex'
p5
I57
sS'string'
p6
VCUNY
p7
sa(dp8
g4
I105
sg5
I94
sg6
VCity College
p9
sa(dp10
g4
I551
sg5
I548
sg6
VCUNY
p11
sa(dp12
g4
I1056
sg5
I1053
sg6
VCUNY
p13
sa(dp14
g4
I1248
sg5
I1236
sg6
VCity College.
p15
sa(dp16
g4
I1342
sg5
I1339
sg6
VCUNY
p17
sa(dp18
g4
I1483
sg5
I1480
sg6
VCUNY
p19
sa(dp20
g4
I1591
sg5
I1580
sg6
VCity College
p21
sas.