(dp0
S'possamples'
p1
(lp2
(dp3
S'endIndex'
p4
I479
sS'startIndex'
p5
I455
sS'string'
p6
VNational Policy Institute
p7
sa(dp8
g4
I671
sg5
I650
sg6
VUniversity of Virginia
p9
sa(dp10
g4
I1268
sg5
I1247
sg6
VUniversity of Florida.
p11
sas.