(dp0
S'possamples'
p1
(lp2
(dp3
S'endIndex'
p4
I64
sS'startIndex'
p5
I42
sS'string'
p6
VUniversity of Wisconsin
p7
sa(dp8
g4
I125
sg5
I117
sg6
VWisconsin
p9
sa(dp10
g4
I417
sg5
I395
sg6
VUniversity of Wisconsin
p11
sa(dp12
g4
I513
sg5
I505
sg6
VWisconsin
p13
sa(dp14
g4
I1447
sg5
I1425
sg6
VUniversity of Wisconsin
p15
sas.