(dp0
S'possamples'
p1
(lp2
(dp3
S'endIndex'
p4
I45
sS'startIndex'
p5
I27
sS'string'
p6
VColumbia University
p7
sa(dp8
g4
I281
sg5
I260
sg6
VUniversity of Michigan
p9
sa(dp10
g4
I895
sg5
I877
sg6
VNew York University
p11
sas.