(dp0
S'possamples'
p1
(lp2
(dp3
S'endIndex'
p4
I568
sS'startIndex'
p5
I535
sS'string'
p6
VUniversity of California Berkeley.
p7
sa(dp8
g4
I1213
sg5
I1197
sg6
VAuburn University
p9
sa(dp10
g4
I2202
sg5
I2181
sg6
VUniversity of Virginia
p11
sas.