(dp0
S'possamples'
p1
(lp2
(dp3
S'endIndex'
p4
I88
sS'startIndex'
p5
I61
sS'string'
p6
VUniversity of North Carolina
p7
sa(dp8
g4
I237
sg5
I218
sg6
VUniversity of Kansas
p9
sa(dp10
g4
I952
sg5
I939
sg6
VNorth Carolina
p11
sas.