(dp0
S'possamples'
p1
(lp2
(dp3
S'endIndex'
p4
I93
sS'startIndex'
p5
I80
sS'string'
p6
VNorth Carolina
p7
sa(dp8
g4
I144
sg5
I131
sg6
VNorth Carolina
p9
sa(dp10
g4
I234
sg5
I221
sg6
VNorth Carolina
p11
sas.