(dp0
S'possamples'
p1
(lp2
(dp3
S'endIndex'
p4
I223
sS'startIndex'
p5
I210
sS'string'
p6
VNorth Carolina
p7
sa(dp8
g4
I493
sg5
I472
sg6
VUniversity of Kentucky
p9
sa(dp10
g4
I609
sg5
I602
sg6
VKentucky
p11
sa(dp12
g4
I945
sg5
I938
sg6
VKentucky
p13
sas.