(dp0
S'possamples'
p1
(lp2
(dp3
S'endIndex'
p4
I730
sS'startIndex'
p5
I708
sS'string'
p6
VGeorge Mason University
p7
sa(dp8
g4
I1398
sg5
I1370
sg6
VAmerican Enterprise Institute
p9
sa(dp10
g4
I1775
sg5
I1759
sg6
VBaylor University
p11
sas.