(dp0
S'possamples'
p1
(lp2
(dp3
S'endIndex'
p4
I14
sS'startIndex'
p5
I0
sS'string'
p6
VYale University
p7
sa(dp8
g4
I388
sg5
I385
sg6
VYale
p9
sa(dp10
g4
I575
sg5
I539
sg6
VMassachusetts Institute of Technology
p11
sa(dp12
g4
I637
sg5
I619
sg6
VStanford University
p13
sa(dp14
g4
I679
sg5
I671
sg6
VPrinceton
p15
sa(dp16
g4
I716
sg5
I708
sg6
VDartmouth
p17
sas.