(dp0
S'possamples'
p1
(lp2
(dp3
S'endIndex'
p4
I28
sS'startIndex'
p5
I26
sS'string'
p6
VMIT
p7
sa(dp8
g4
I37
sg5
I30
sg6
VStanford
p9
sa(dp10
g4
I51
sg5
I43
sg6
VPrinceton
p11
sa(dp12
g4
I134
sg5
I130
sg6
VYale.
p13
sa(dp14
g4
I270
sg5
I264
sg6
VHarvard
p15
sa(dp16
g4
I433
sg5
I427
sg6
VHarvard
p17
sa(dp18
g4
I640
sg5
I637
sg6
VYale
p19
sa(dp20
g4
I1056
sg5
I1053
sg6
VYale
p21
sas.