(dp0
S'possamples'
p1
(lp2
(dp3
S'endIndex'
p4
I254
sS'startIndex'
p5
I251
sS'string'
p6
VPenn
p7
sa(dp8
g4
I765
sg5
I761
sg6
VPenn.
p9
sa(dp10
g4
I1287
sg5
I1284
sg6
VPenn
p11
sa(dp12
g4
I1501
sg5
I1480
sg6
VUniversity of Oklahoma
p13
sa(dp14
g4
I1531
sg5
I1528
sg6
VPenn
p15
sa(dp16
g4
I1622
sg5
I1597
sg6
VUniversity of Pennsylvania
p17
sa(dp18
g4
I1653
sg5
I1632
sg6
VUniversity of Oklahoma
p19
sa(dp20
g4
I1738
sg5
I1735
sg6
VPenn
p21
sas.