(dp0
S'possamples'
p1
(lp2
(dp3
S'endIndex'
p4
I429
sS'startIndex'
p5
I411
sS'string'
p6
VWesleyan University
p7
sa(dp8
g4
I1373
sg5
I1352
sg6
VUniversity of Virginia
p9
sa(dp10
g4
I2584
sg5
I2566
sg6
VColumbia University
p11
sa(dp12
g4
I2767
sg5
I2760
sg6
VColumbia
p13
sa(dp14
g4
I3001
sg5
I2994
sg6
VColumbia
p15
sas.