(dp0
S'possamples'
p1
(lp2
(dp3
S'endIndex'
p4
I298
sS'startIndex'
p5
I295
sS'string'
p6
VPenn
p7
sa(dp8
g4
I866
sg5
I863
sg6
VPenn
p9
sa(dp10
g4
I1307
sg5
I1304
sg6
VPenn
p11
sa(dp12
g4
I1332
sg5
I1329
sg6
VPenn
p13
sa(dp14
g4
I1634
sg5
I1631
sg6
VPenn
p15
sas.