(dp0
S'possamples'
p1
(lp2
(dp3
S'endIndex'
p4
I105
sS'startIndex'
p5
I78
sS'string'
p6
VState University of New York
p7
sa(dp8
g4
I157
sg5
I154
sg6
VSUNY
p9
sa(dp10
g4
I212
sg5
I209
sg6
VSUNY
p11
sa(dp12
g4
I668
sg5
I665
sg6
VSUNY
p13
sa(dp14
g4
I947
sg5
I944
sg6
VSUNY
p15
sas.