(dp0
S'possamples'
p1
(lp2
(dp3
S'endIndex'
p4
I3
sS'startIndex'
p5
I0
sS'string'
p6
VSUNY
p7
sa(dp8
g4
I183
sg5
I180
sg6
VSUNY
p9
sa(dp10
g4
I289
sg5
I286
sg6
VSUNY
p11
sa(dp12
g4
I569
sg5
I543
sg6
VCity University of New York
p13
sa(dp14
g4
I671
sg5
I668
sg6
VCUNY
p15
sa(dp16
g4
I745
sg5
I742
sg6
VSUNY
p17
sa(dp18
g4
I754
sg5
I751
sg6
VCUNY
p19
sas.