(dp0
S'possamples'
p1
(lp2
(dp3
S'endIndex'
p4
I808
sS'startIndex'
p5
I783
sS'string'
p6
VUniversity of Puerto Rico.
p7
sa(dp8
g4
I1546
sg5
I1543
sg6
VCUNY
p9
sa(dp10
g4
I1563
sg5
I1560
sg6
VCUNY
p11
sa(dp12
g4
I1617
sg5
I1593
sg6
VUniversity of Puerto Rico
p13
sa(dp14
g4
I1879
sg5
I1855
sg6
VUniversity of Puerto Rico
p15
sas.