(dp0
S'possamples'
p1
(lp2
(dp3
S'endIndex'
p4
I342
sS'startIndex'
p5
I321
sS'string'
p6
VMurray Edwards College
p7
sa(dp8
g4
I468
sg5
I454
sg6
VBarnard College
p9
sa(dp10
g4
I505
sg5
I487
sg6
VColumbia University
p11
sas.