(dp0
S'possamples'
p1
(lp2
(dp3
S'endIndex'
p4
I930
sS'startIndex'
p5
I921
sS'string'
p6
VMacalester
p7
sa(dp8
g4
I1144
sg5
I1123
sg6
VUniversity of Kentucky
p9
sa(dp10
g4
I1689
sg5
I1672
sg6
VUniversity of Iowa
p11
sa(dp12
g4
I1944
sg5
I1936
sg6
VTexas A&M
p13
sas.