(dp0
S'possamples'
p1
(lp2
(dp3
S'endIndex'
p4
I116
sS'startIndex'
p5
I99
sS'string'
p6
VIndiana University
p7
sa(dp8
g4
I203
sg5
I188
sg6
VSpoon University
p9
sa(dp10
g4
I561
sg5
I548
sg6
VWilson College
p11
sas.