(dp0
S'possamples'
p1
(lp2
(dp3
S'endIndex'
p4
I112
sS'startIndex'
p5
I98
sS'string'
p6
VWilson College.
p7
sa(dp8
g4
I3820
sg5
I3800
sg6
VGeorgetown University
p9
sa(dp10
g4
I3997
sg5
I3971
sg6
VSt. Andrew Episcopal School
p11
sas.