(dp0
S'possamples'
p1
(lp2
(dp3
S'endIndex'
p4
I34
sS'startIndex'
p5
I7
sS'string'
p6
VUniversity of South Carolina
p7
sa(dp8
g4
I682
sg5
I661
sg6
VSanta Clara University
p9
sa(dp10
g4
I2053
sg5
I2017
sg6
VInstitute of International Education.
p11
sas.