(dp0
S'possamples'
p1
(lp2
(dp3
S'endIndex'
p4
I20
sS'startIndex'
p5
I0
sS'string'
p6
VPenn State University
p7
sa(dp8
g4
I186
sg5
I161
sg6
VLouisiana State University
p9
sa(dp10
g4
I309
sg5
I302
sg6
VMichigan
p11
sa(dp12
g4
I663
sg5
I656
sg6
VMichigan
p13
sa(dp14
g4
I2257
sg5
I2239
sg6
VStanford University
p15
sa(dp16
g4
I2375
sg5
I2369
sg6
VHarvard
p17
sa(dp18
g4
I2628
sg5
I2621
sg6
VStanford
p19
sa(dp20
g4
I2704
sg5
I2697
sg6
VStanford
p21
sa(dp22
g4
I3028
sg5
I3022
sg6
VHarvard
p23
sa(dp24
g4
I3038
sg5
I3030
sg6
VPrinceton
p25
sa(dp26
g4
I3047
sg5
I3044
sg6
VYale
p27
sa(dp28
g4
I3487
sg5
I3480
sg6
VStanford
p29
sa(dp30
g4
I4039
sg5
I4007
sg6
VUniversity of California Berkeley
p31
sas.