(dp0
S'possamples'
p1
(lp2
(dp3
S'endIndex'
p4
I66
sS'startIndex'
p5
I48
sS'string'
p6
VNew York University
p7
sa(dp8
g4
I227
sg5
I225
sg6
VNYU
p9
sa(dp10
g4
I690
sg5
I688
sg6
VNYU
p11
sa(dp12
g4
I881
sg5
I879
sg6
VNYU
p13
sa(dp14
g4
I1287
sg5
I1272
sg6
VBrown University
p15
sa(dp16
g4
I1306
sg5
I1289
sg6
VCornell University
p17
sa(dp18
g4
I1328
sg5
I1312
sg6
VTulane University
p19
sa(dp20
g4
I1502
sg5
I1475
sg6
VState University of New York
p21
sas.