(dp0
S'possamples'
p1
(lp2
(dp3
S'endIndex'
p4
I183
sS'startIndex'
p5
I159
sS'string'
p6
VUniversity of Puerto Rico
p7
sa(dp8
g4
I665
sg5
I663
sg6
VNYU
p9
sa(dp10
g4
I860
sg5
I858
sg6
VNYU
p11
sa(dp12
g4
I1174
sg5
I1172
sg6
VNYU
p13
sa(dp14
g4
I1253
sg5
I1226
sg6
VPoly Prep Country Day School
p15
sas.