(dp0
S'possamples'
p1
(lp2
(dp3
S'endIndex'
p4
I43
sS'startIndex'
p5
I26
sS'string'
p6
VIndiana University
p7
sa(dp8
g4
I74
sg5
I49
sg6
VTexas Christian University
p9
sa(dp10
g4
I884
sg5
I867
sg6
VIndiana University
p11
sas.