(dp0
S'possamples'
p1
(lp2
(dp3
S'endIndex'
p4
I1134
sS'startIndex'
p5
I1117
sS'string'
p6
VHofstra University
p7
sa(dp8
g4
I1399
sg5
I1375
sg6
VLoyola University Chicago
p9
sa(dp10
g4
I1789
sg5
I1783
sg6
VColgate
p11
sa(dp12
g4
I1799
sg5
I1791
sg6
VDartmouth
p13
sa(dp14
g4
I1804
sg5
I1801
sg6
VDuke
p15
sa(dp16
g4
I1817
sg5
I1810
sg6
VStanford
p17
sa(dp18
g4
I2009
sg5
I1992
sg6
VIndiana University
p19
sa(dp20
g4
I2142
sg5
I2117
sg6
VTexas Christian University
p21
sa(dp22
g4
I2695
sg5
I2677
sg6
VColumbia University
p23
sa(dp24
g4
I2713
sg5
I2697
sg6
VDartmouth College
p25
sa(dp26
g4
I2751
sg5
I2719
sg6
VUniversity of Southern California
p27
sa(dp28
g4
I2771
sg5
I2753
sg6
VStanford University
p29
sa(dp30
g4
I2800
sg5
I2777
sg6
VJohns Hopkins University
p31
sa(dp32
g4
I3387
sg5
I3369
sg6
VUniversity of Texas
p33
sa(dp34
g4
I3452
sg5
I3446
sg6
VHarvard
p35
sa(dp36
g4
I3476
sg5
I3473
sg6
VYale
p37
sas.