(dp0
S'possamples'
p1
(lp2
(dp3
S'endIndex'
p4
I24
sS'startIndex'
p5
I8
sS'string'
p6
VDartmouth College
p7
sa(dp8
g4
I608
sg5
I605
sg6
VUtah
p9
sa(dp10
g4
I1136
sg5
I1113
sg6
VUniversity of California
p11
sas.