(dp0
S'possamples'
p1
(lp2
(dp3
S'endIndex'
p4
I18
sS'startIndex'
p5
I0
sS'string'
p6
VColumbia University
p7
sa(dp8
g4
I212
sg5
I205
sg6
VColumbia
p9
sa(dp10
g4
I221
sg5
I218
sg6
VDuke
p11
sa(dp12
g4
I1041
sg5
I1034
sg6
VColumbia
p13
sa(dp14
g4
I1200
sg5
I1197
sg6
VDuke
p15
sas.