(dp0
S'possamples'
p1
(lp2
(dp3
S'endIndex'
p4
I338
sS'startIndex'
p5
I318
sS'string'
p6
VUniversity of Alabama
p7
sa(dp8
g4
I345
sg5
I340
sg6
VDePauw
p9
sa(dp10
g4
I358
sg5
I347
sg6
VNortheastern
p11
sa(dp12
g4
I369
sg5
I360
sg6
VPittsburgh
p13
sa(dp14
g4
I376
sg5
I371
sg6
VPurdue
p15
sa(dp16
g4
I389
sg5
I378
sg6
VReed College
p17
sa(dp18
g4
I397
sg5
I391
sg6
VRutgers
p19
sa(dp20
g4
I406
sg5
I399
sg6
VSyracuse
p21
sa(dp22
g4
I417
sg5
I408
sg6
VTexas Tech
p23
sa(dp24
g4
I439
sg5
I423
sg6
VWashington State.
p25
sa(dp26
g4
I484
sg5
I466
sg6
VNew York University
p27
sa(dp28
g4
I843
sg5
I841
sg6
VNYU
p29
sa(dp30
g4
I1498
sg5
I1462
sg6
VArthur L. Carter Journalism Institute
p31
sas.