(dp0
S'possamples'
p1
(lp2
(dp3
S'endIndex'
p4
I329
sS'startIndex'
p5
I327
sS'string'
p6
VNYU
p7
sa(dp8
g4
I530
sg5
I528
sg6
VNYU
p9
sa(dp10
g4
I1294
sg5
I1292
sg6
VNYU
p11
sa(dp12
g4
I1816
sg5
I1814
sg6
VNYU
p13
sa(dp14
g4
I2147
sg5
I2145
sg6
VNYU
p15
sa(dp16
g4
I2299
sg5
I2297
sg6
VNYU
p17
sas.