(dp0
S'possamples'
p1
(lp2
(dp3
S'endIndex'
p4
I647
sS'startIndex'
p5
I645
sS'string'
p6
VNYU
p7
sa(dp8
g4
I1383
sg5
I1365
sg6
VStanford University
p9
sa(dp10
g4
I2069
sg5
I2062
sg6
VStanford
p11
sas.