(dp0
S'possamples'
p1
(lp2
(dp3
S'endIndex'
p4
I52
sS'startIndex'
p5
I33
sS'string'
p6
VMacquarie University
p7
sa(dp8
g4
I267
sg5
I245
sg6
VUniversity of Newcastle
p9
sa(dp10
g4
I1104
sg5
I1085
sg6
VUniversity of Sydney
p11
sas.