(dp0
S'possamples'
p1
(lp2
(dp3
S'endIndex'
p4
I113
sS'startIndex'
p5
I97
sS'string'
p6
VOxford University
p7
sa(dp8
g4
I792
sg5
I783
sg6
VSt. Antony
p9
sa(dp10
g4
I804
sg5
I799
sg6
VOxford
p11
sa(dp12
g4
I1221
sg5
I1215
sg6
VOxford.
p13
sas.