(dp0
S'possamples'
p1
(lp2
(dp3
S'endIndex'
p4
I17
sS'startIndex'
p5
I12
sS'string'
p6
VOxford
p7
sa(dp8
g4
I539
sg5
I534
sg6
VOxford
p9
sa(dp10
g4
I797
sg5
I787
sg6
VSt. Anthony
p11
sa(dp12
g4
I952
sg5
I947
sg6
VOxford
p13
sa(dp14
g4
I1553
sg5
I1539
sg6
VRice University
p15
sas.