(dp0
S'possamples'
p1
(lp2
(dp3
S'endIndex'
p4
I23
sS'startIndex'
p5
I0
sS'string'
p6
VFlorida State University
p7
sa(dp8
g4
I733
sg5
I721
sg6
VFlorida State
p9
sa(dp10
g4
I1048
sg5
I1036
sg6
VFlorida State
p11
sas.