(dp0
S'possamples'
p1
(lp2
(dp3
S'endIndex'
p4
I20
sS'startIndex'
p5
I0
sS'string'
p6
VPenn State University
p7
sa(dp8
g4
I182
sg5
I157
sg6
VLouisiana State University
p9
sa(dp10
g4
I949
sg5
I937
sg6
VFlorida State
p11
sas.