(dp0
S'possamples'
p1
(lp2
(dp3
S'endIndex'
p4
I681
sS'startIndex'
p5
I663
sS'string'
p6
VAustralian National
p7
sa(dp8
g4
I692
sg5
I687
sg6
VSydney
p9
sa(dp10
g4
I761
sg5
I745
sg6
VSydney University
p11
sa(dp12
g4
I871
sg5
I869
sg6
VANU
p13
sa(dp14
g4
I1183
sg5
I1181
sg6
VANU
p15
sa(dp16
g4
I1194
sg5
I1189
sg6
VSydney
p17
sa(dp18
g4
I1280
sg5
I1264
sg6
VSydney University
p19
sa(dp20
g4
I1541
sg5
I1525
sg6
VSydney University
p21
sas.