(dp0
S'possamples'
p1
(lp2
(dp3
S'endIndex'
p4
I67
sS'startIndex'
p5
I51
sS'string'
p6
VSydney University
p7
sa(dp8
g4
I265
sg5
I249
sg6
VBurton and Garran
p9
sa(dp10
g4
I853
sg5
I851
sg6
VANU
p11
sas.