(dp0
S'possamples'
p1
(lp2
(dp3
S'endIndex'
p4
I619
sS'startIndex'
p5
I604
sS'string'
p6
VPierson College.
p7
sa(dp8
g4
I670
sg5
I667
sg6
VYale
p9
sa(dp10
g4
I794
sg5
I790
sg6
VYale.
p11
sa(dp12
g4
I1348
sg5
I1332
sg6
VBryn Mawr College
p13
sa(dp14
g4
I1393
sg5
I1376
sg6
VHarvard University
p15
sa(dp16
g4
I1433
sg5
I1403
sg6
VUniversity of California Davis.
p17
sa(dp18
g4
I1467
sg5
I1457
sg6
VU. C. Davis
p19
sa(dp20
g4
I1502
sg5
I1477
sg6
VUniversity of Pennsylvania
p21
sa(dp22
g4
I1633
sg5
I1629
sg6
VYale.
p23
sas.