(dp0
S'possamples'
p1
(lp2
(dp3
S'endIndex'
p4
I141
sS'startIndex'
p5
I107
sS'string'
p6
VNational University of El Salvador.
p7
sa(dp8
g4
I608
sg5
I590
sg6
VNational University
p9
sa(dp10
g4
I831
sg5
I828
sg6
VUCLA
p11
sa(dp12
g4
I971
sg5
I964
sg6
VStanford
p13
sa(dp14
g4
I1309
sg5
I1302
sg6
VStanford
p15
sa(dp16
g4
I1391
sg5
I1384
sg6
VStanford
p17
sa(dp18
g4
I2256
sg5
I2250
sg6
VHarvard
p19
sa(dp20
g4
I2336
sg5
I2329
sg6
VColumbia
p21
sa(dp22
g4
I2419
sg5
I2398
sg6
VUniversity of Delaware
p23
sas.