(dp0
S'possamples'
p1
(lp2
(dp3
S'endIndex'
p4
I452
sS'startIndex'
p5
I449
sS'string'
p6
VUNAM
p7
sa(dp8
g4
I800
sg5
I797
sg6
VUNAM
p9
sa(dp10
g4
I866
sg5
I863
sg6
VUNAM
p11
sa(dp12
g4
I1699
sg5
I1696
sg6
VUNAM
p13
sa(dp14
g4
I1761
sg5
I1758
sg6
VUNAM
p15
sas.