(dp0
S'possamples'
p1
(lp2
(dp3
S'endIndex'
p4
I176
sS'startIndex'
p5
I141
sS'string'
p6
VSchool of Philosophy and Literature.
p7
sa(dp8
g4
I233
sg5
I230
sg6
VUNAM
p9
sa(dp10
g4
I694
sg5
I660
sg6
VSchool of Philosophy and Literature
p11
sas.