(dp0
S'possamples'
p1
(lp2
(dp3
S'endIndex'
p4
I165
sS'startIndex'
p5
I130
sS'string'
p6
VSchool of Philosophy and Literature.
p7
sa(dp8
g4
I372
sg5
I338
sg6
VSchool of Philosophy and Literature
p9
sa(dp10
g4
I651
sg5
I648
sg6
VUNAM
p11
sa(dp12
g4
I920
sg5
I917
sg6
VUNAM
p13
sa(dp14
g4
I1259
sg5
I1256
sg6
VUNAM
p15
sa(dp16
g4
I1741
sg5
I1738
sg6
VUNAM
p17
sa(dp18
g4
I2031
sg5
I2006
sg6
VUniversity of Saskatchewan
p19
sas.