(dp0
S'possamples'
p1
(lp2
(dp3
S'endIndex'
p4
I144
sS'startIndex'
p5
I120
sS'string'
p6
VFlorida State University.
p7
sa(dp8
g4
I228
sg5
I216
sg6
VFlorida State
p9
sa(dp10
g4
I464
sg5
I439
sg6
VLouisiana State University
p11
sa(dp12
g4
I1002
sg5
I992
sg6
VPenn State.
p13
sas.