(dp0
S'possamples'
p1
(lp2
(dp3
S'endIndex'
p4
I198
sS'startIndex'
p5
I173
sS'string'
p6
VUniversity of Saskatchewan
p7
sa(dp8
g4
I380
sg5
I355
sg6
VUniversity of Saskatchewan
p9
sa(dp10
g4
I2026
sg5
I2001
sg6
VUniversity of Saskatchewan
p11
sas.