(dp0
S'possamples'
p1
(lp2
(dp3
S'endIndex'
p4
I251
sS'startIndex'
p5
I236
sS'string'
p6
VBrandeis College
p7
sa(dp8
g4
I357
sg5
I350
sg6
VBrandeis
p9
sa(dp10
g4
I775
sg5
I767
sg6
VBrandeis.
p11
sa(dp12
g4
I1072
sg5
I1065
sg6
VBrandeis
p13
sas.