(dp0
S'possamples'
p1
(lp2
(dp3
S'endIndex'
p4
I14
sS'startIndex'
p5
I0
sS'string'
p6
VSimmons College
p7
sa(dp8
g4
I674
sg5
I662
sg6
VMount Holyoke
p9
sa(dp10
g4
I1357
sg5
I1330
sg6
VUniversity of Massachusetts.
p11
sas.