(dp0
S'possamples'
p1
(lp2
(dp3
S'endIndex'
p4
I369
sS'startIndex'
p5
I347
sS'string'
p6
VEvergreen State College
p7
sa(dp8
g4
I521
sg5
I513
sg6
VEvergreen
p9
sa(dp10
g4
I1605
sg5
I1597
sg6
VEvergreen
p11
sas.