(dp0
S'possamples'
p1
(lp2
(dp3
S'endIndex'
p4
I118
sS'startIndex'
p5
I86
sS'string'
p6
VUniversity of California Berkeley
p7
sa(dp8
g4
I220
sg5
I212
sg6
VEvergreen
p9
sa(dp10
g4
I467
sg5
I459
sg6
VEvergreen
p11
sa(dp12
g4
I973
sg5
I965
sg6
VEvergreen
p13
sas.