(dp0
S'possamples'
p1
(lp2
(dp3
S'endIndex'
p4
I108
sS'startIndex'
p5
I100
sS'string'
p6
VEvergreen
p7
sa(dp8
g4
I820
sg5
I812
sg6
VEvergreen
p9
sa(dp10
g4
I937
sg5
I929
sg6
VEvergreen
p11
sa(dp12
g4
I974
sg5
I966
sg6
VEvergreen
p13
sas.