(dp0
S'possamples'
p1
(lp2
(dp3
S'endIndex'
p4
I400
sS'startIndex'
p5
I386
sS'string'
p6
VCarnegie Mellon
p7
sa(dp8
g4
I408
sg5
I402
sg6
VCornell
p9
sa(dp10
g4
I413
sg5
I410
sg6
VDuke
p11
sa(dp12
g4
I455
sg5
I419
sg6
VMassachusetts Institute of Technology
p13
sa(dp14
g4
I486
sg5
I465
sg6
VUniversity of Maryland
p15
sa(dp16
g4
I818
sg5
I800
sg6
VNew York University
p17
sa(dp18
g4
I1193
sg5
I1191
sg6
VNYU
p19
sas.