(dp0
S'possamples'
p1
(lp2
(dp3
S'endIndex'
p4
I249
sS'startIndex'
p5
I241
sS'string'
p6
VEvergreen
p7
sa(dp8
g4
I560
sg5
I552
sg6
VEvergreen
p9
sa(dp10
g4
I706
sg5
I698
sg6
VEvergreen
p11
sa(dp12
g4
I1671
sg5
I1663
sg6
VEvergreen
p13
sa(dp14
g4
I2054
sg5
I2046
sg6
VEvergreen
p15
sas.