(dp0
S'possamples'
p1
(lp2
(dp3
S'endIndex'
p4
I614
sS'startIndex'
p5
I595
sS'string'
p6
VEvergreen University
p7
sa(dp8
g4
I1001
sg5
I993
sg6
VEvergreen
p9
sa(dp10
g4
I1866
sg5
I1858
sg6
VEvergreen
p11
sa(dp12
g4
I2408
sg5
I2400
sg6
VEvergreen
p13
sa(dp14
g4
I2581
sg5
I2573
sg6
VEvergreen
p15
sa(dp16
g4
I2833
sg5
I2827
sg6
VHarvard
p17
sa(dp18
g4
I3437
sg5
I3431
sg6
VHarvard
p19
sas.