(dp0
S'possamples'
p1
(lp2
(dp3
S'endIndex'
p4
I148
sS'startIndex'
p5
I142
sS'string'
p6
VHarvard
p7
sa(dp8
g4
I279
sg5
I261
sg6
VColumbia University
p9
sa(dp10
g4
I301
sg5
I295
sg6
VHarvard
p11
sa(dp12
g4
I403
sg5
I397
sg6
VHarvard
p13
sa(dp14
g4
I605
sg5
I599
sg6
VHarvard
p15
sa(dp16
g4
I1110
sg5
I1104
sg6
VHarvard
p17
sa(dp18
g4
I1311
sg5
I1305
sg6
VHarvard
p19
sa(dp20
g4
I1665
sg5
I1659
sg6
VHarvard
p21
sa(dp22
g4
I1772
sg5
I1766
sg6
VHarvard
p23
sa(dp24
g4
I2092
sg5
I2086
sg6
VHarvard
p25
sas.