(dp0
S'possamples'
p1
(lp2
(dp3
S'endIndex'
p4
I324
sS'startIndex'
p5
I317
sS'string'
p6
VHarvard.
p7
sa(dp8
g4
I604
sg5
I598
sg6
VHarvard
p9
sa(dp10
g4
I979
sg5
I973
sg6
VHarvard
p11
sa(dp12
g4
I1535
sg5
I1510
sg6
VUniversity of Pennsylvania
p13
sa(dp14
g4
I1626
sg5
I1608
sg6
VRadcliffe Institute
p15
sa(dp16
g4
I1666
sg5
I1650
sg6
VRadcliffe College
p17
sa(dp18
g4
I1709
sg5
I1702
sg6
VHarvard.
p19
sa(dp20
g4
I2480
sg5
I2452
sg6
VUniversity of Central Florida
p21
sas.