(dp0
S'possamples'
p1
(lp2
(dp3
S'endIndex'
p4
I547
sS'startIndex'
p5
I545
sS'string'
p6
VUCF
p7
sa(dp8
g4
I1230
sg5
I1228
sg6
VUCF
p9
sa(dp10
g4
I2331
sg5
I2305
sg6
VCity University of New York
p11
sa(dp12
g4
I2391
sg5
I2388
sg6
VCUNY
p13
sa(dp14
g4
I2559
sg5
I2556
sg6
VCUNY
p15
sas.