(dp0
S'possamples'
p1
(lp2
(dp3
S'endIndex'
p4
I462
sS'startIndex'
p5
I459
sS'string'
p6
VCUNY
p7
sa(dp8
g4
I1487
sg5
I1484
sg6
VCUNY
p9
sa(dp10
g4
I1521
sg5
I1498
sg6
VHostos Community College
p11
sa(dp12
g4
I1839
sg5
I1836
sg6
VCUNY
p13
sa(dp14
g4
I1895
sg5
I1872
sg6
VHostos Community College
p15
sas.