(dp0
S'possamples'
p1
(lp2
(dp3
S'endIndex'
p4
I119
sS'startIndex'
p5
I116
sS'string'
p6
VCUNY
p7
sa(dp8
g4
I610
sg5
I607
sg6
VCUNY
p9
sa(dp10
g4
I777
sg5
I774
sg6
VCUNY
p11
sa(dp12
g4
I815
sg5
I801
sg6
VCity University
p13
sa(dp14
g4
I863
sg5
I856
sg6
VStanford
p15
sa(dp16
g4
I872
sg5
I865
sg6
VBerkeley
p17
sa(dp18
g4
I882
sg5
I878
sg6
VBrown
p19
sa(dp20
g4
I916
sg5
I913
sg6
VCUNY
p21
sa(dp22
g4
I1013
sg5
I1010
sg6
VCUNY
p23
sa(dp24
g4
I1036
sg5
I1015
sg6
VStony Brook University
p25
sa(dp26
g4
I1080
sg5
I1042
sg6
VCalifornia State University Los Angeles
p27
sa(dp28
g4
I1328
sg5
I1307
sg6
VUniversity of Illinois
p29
sas.