(dp0
S'possamples'
p1
(lp2
(dp3
S'endIndex'
p4
I529
sS'startIndex'
p5
I515
sS'string'
p6
VDuke University
p7
sa(dp8
g4
I640
sg5
I623
sg6
VDillard University
p9
sa(dp10
g4
I949
sg5
I946
sg6
VDuke
p11
sa(dp12
g4
I1409
sg5
I1393
sg6
VMorehouse College
p13
sa(dp14
g4
I1789
sg5
I1781
sg6
VMorehouse
p15
sa(dp16
g4
I2094
sg5
I2086
sg6
VMorehouse
p17
sa(dp18
g4
I2267
sg5
I2246
sg6
VOhio State University.
p19
sa(dp20
g4
I2300
sg5
I2282
sg6
VSouthern University
p21
sa(dp22
g4
I2322
sg5
I2305
sg6
VAtlanta University
p23
sa(dp24
g4
I2349
sg5
I2328
sg6
VUniversity of Illinois
p25
sa(dp26
g4
I2394
sg5
I2359
sg6
VUniversity of California Los Angeles
p27
sa(dp28
g4
I2406
sg5
I2403
sg6
VDuke
p29
sas.