(dp0
S'possamples'
p1
(lp2
(dp3
S'endIndex'
p4
I106
sS'startIndex'
p5
I91
sS'string'
p6
VDuke University.
p7
sa(dp8
g4
I190
sg5
I164
sg6
VCity University of New York
p9
sa(dp10
g4
I404
sg5
I401
sg6
VCUNY
p11
sa(dp12
g4
I815
sg5
I812
sg6
VCUNY
p13
sa(dp14
g4
I886
sg5
I863
sg6
VCity College of New York
p15
sa(dp16
g4
I1218
sg5
I1215
sg6
VCUNY
p17
sas.