(dp0
S'possamples'
p1
(lp2
(dp3
S'endIndex'
p4
I372
sS'startIndex'
p5
I369
sS'string'
p6
VCUNY
p7
sa(dp8
g4
I564
sg5
I561
sg6
VCUNY
p9
sa(dp10
g4
I872
sg5
I869
sg6
VCUNY
p11
sa(dp12
g4
I1503
sg5
I1500
sg6
VCUNY
p13
sa(dp14
g4
I2188
sg5
I2185
sg6
VCUNY
p15
sa(dp16
g4
I2467
sg5
I2464
sg6
VCUNY
p17
sas.