(dp0
S'possamples'
p1
(lp2
(dp3
S'endIndex'
p4
I23
sS'startIndex'
p5
I20
sS'string'
p6
VCUNY
p7
sa(dp8
g4
I303
sg5
I300
sg6
VCUNY
p9
sa(dp10
g4
I728
sg5
I725
sg6
VCUNY
p11
sa(dp12
g4
I1469
sg5
I1451
sg6
VBaruch College Fund
p13
sa(dp14
g4
I1481
sg5
I1478
sg6
VCUNY
p15
sa(dp16
g4
I1575
sg5
I1572
sg6
VCUNY
p17
sa(dp18
g4
I1736
sg5
I1733
sg6
VCUNY
p19
sa(dp20
g4
I2220
sg5
I2201
sg6
VPrinceton University
p21
sa(dp22
g4
I2265
sg5
I2230
sg6
VUniversity of California Los Angeles
p23
sa(dp24
g4
I3462
sg5
I3448
sg6
VYork University
p25
sa(dp26
g4
I3486
sg5
I3468
sg6
VMcMaster University
p27
sas.