(dp0
S'possamples'
p1
(lp2
(dp3
S'endIndex'
p4
I206
sS'startIndex'
p5
I200
sS'string'
p6
VHarvard
p7
sa(dp8
g4
I763
sg5
I757
sg6
VHarvard
p9
sa(dp10
g4
I1795
sg5
I1778
sg6
VUniversity of Bath
p11
sas.