(dp0
S'possamples'
p1
(lp2
(dp3
S'endIndex'
p4
I6
sS'startIndex'
p5
I0
sS'string'
p6
VHarvard
p7
sa(dp8
g4
I493
sg5
I487
sg6
VHarvard
p9
sa(dp10
g4
I1364
sg5
I1343
sg6
VUniversity of Illinois
p11
sas.