(dp0
S'possamples'
p1
(lp2
(dp3
S'endIndex'
p4
I1936
sS'startIndex'
p5
I1932
sS'string'
p6
VB. U.
p7
sa(dp8
g4
I3164
sg5
I3148
sg6
VBoston University
p9
sa(dp10
g4
I3589
sg5
I3561
sg6
VBunker Hill Community College
p11
sa(dp12
g4
I3730
sg5
I3714
sg6
VBoston University
p13
sas.